TN:
SF:/home/nn/redis/FalkorDB/deps/RediSearch/deps/VectorSimilarity/src/VecSim/algorithms/brute_force/bf_batch_iterator.h
FN:102,135,_ZN16BF_BatchIteratorIddE15heapBasedSearchEm
FN:102,135,_ZN16BF_BatchIteratorIffE15heapBasedSearchEm
FN:138,163,_ZN16BF_BatchIteratorIddE17selectBasedSearchEm
FN:138,163,_ZN16BF_BatchIteratorIffE17selectBasedSearchEm
FN:166,170,_ZN16BF_BatchIteratorIddEC2EPvPK15BruteForceIndexIddEP17VecSimQueryParamsSt10shared_ptrI15VecSimAllocatorE
FN:166,170,_ZN16BF_BatchIteratorIffEC2EPvPK15BruteForceIndexIffEP17VecSimQueryParamsSt10shared_ptrI15VecSimAllocatorE
FN:174,197,_ZN16BF_BatchIteratorIddE14getNextResultsEm23VecSimQueryResult_Order
FN:174,197,_ZN16BF_BatchIteratorIffE14getNextResultsEm23VecSimQueryResult_Order
FN:200,204,_ZN16BF_BatchIteratorIddE10isDepletedEv
FN:200,204,_ZN16BF_BatchIteratorIffE10isDepletedEv
FN:207,211,_ZN16BF_BatchIteratorIddE5resetEv
FN:207,211,_ZN16BF_BatchIteratorIffE5resetEv
FN:48,48,_ZN16BF_BatchIteratorIddED0Ev
FN:48,48,_ZN16BF_BatchIteratorIddED2Ev
FN:48,48,_ZN16BF_BatchIteratorIffED0Ev
FN:48,48,_ZN16BF_BatchIteratorIffED2Ev
FN:57,68,_ZN16BF_BatchIteratorIddE18searchByHeuristicsEm23VecSimQueryResult_Order
FN:57,68,_ZN16BF_BatchIteratorIffE18searchByHeuristicsEm23VecSimQueryResult_Order
FN:71,99,_ZN16BF_BatchIteratorIddE10swapScoresERKSt13unordered_mapImmSt4hashImESt8equal_toImE18VecsimSTLAllocatorISt4pairIKmmEEEm
FN:71,99,_ZN16BF_BatchIteratorIffE10swapScoresERKSt13unordered_mapImmSt4hashImESt8equal_toImE18VecsimSTLAllocatorISt4pairIKmmEEEm
FNDA:0,_ZN16BF_BatchIteratorIddE15heapBasedSearchEm
FNDA:0,_ZN16BF_BatchIteratorIffE15heapBasedSearchEm
FNDA:0,_ZN16BF_BatchIteratorIddE17selectBasedSearchEm
FNDA:0,_ZN16BF_BatchIteratorIffE17selectBasedSearchEm
FNDA:0,_ZN16BF_BatchIteratorIddEC2EPvPK15BruteForceIndexIddEP17VecSimQueryParamsSt10shared_ptrI15VecSimAllocatorE
FNDA:0,_ZN16BF_BatchIteratorIffEC2EPvPK15BruteForceIndexIffEP17VecSimQueryParamsSt10shared_ptrI15VecSimAllocatorE
FNDA:0,_ZN16BF_BatchIteratorIddE14getNextResultsEm23VecSimQueryResult_Order
FNDA:0,_ZN16BF_BatchIteratorIffE14getNextResultsEm23VecSimQueryResult_Order
FNDA:0,_ZN16BF_BatchIteratorIddE10isDepletedEv
FNDA:0,_ZN16BF_BatchIteratorIffE10isDepletedEv
FNDA:0,_ZN16BF_BatchIteratorIddE5resetEv
FNDA:0,_ZN16BF_BatchIteratorIffE5resetEv
FNDA:0,_ZN16BF_BatchIteratorIddED0Ev
FNDA:0,_ZN16BF_BatchIteratorIddED2Ev
FNDA:0,_ZN16BF_BatchIteratorIffED0Ev
FNDA:0,_ZN16BF_BatchIteratorIffED2Ev
FNDA:0,_ZN16BF_BatchIteratorIddE18searchByHeuristicsEm23VecSimQueryResult_Order
FNDA:0,_ZN16BF_BatchIteratorIffE18searchByHeuristicsEm23VecSimQueryResult_Order
FNDA:0,_ZN16BF_BatchIteratorIddE10swapScoresERKSt13unordered_mapImmSt4hashImESt8equal_toImE18VecsimSTLAllocatorISt4pairIKmmEEEm
FNDA:0,_ZN16BF_BatchIteratorIffE10swapScoresERKSt13unordered_mapImmSt4hashImESt8equal_toImE18VecsimSTLAllocatorISt4pairIKmmEEEm
FNF:20
FNH:0
DA:48,0
DA:57,0
DA:59,0
DA:61,0
DA:63,0
DA:64,0
DA:65,0
DA:67,0
DA:71,0
DA:74,0
DA:75,0
DA:76,0
DA:79,0
DA:82,0
DA:83,0
DA:84,0
DA:87,0
DA:90,0
DA:91,0
DA:93,0
DA:94,0
DA:96,0
DA:98,0
DA:99,0
DA:102,0
DA:103,0
DA:104,0
DA:105,0
DA:107,0
DA:108,0
DA:109,0
DA:110,0
DA:113,0
DA:114,0
DA:116,0
DA:121,0
DA:122,0
DA:123,0
DA:127,0
DA:128,0
DA:129,0
DA:130,0
DA:131,0
DA:133,0
DA:134,0
DA:135,0
DA:138,0
DA:139,0
DA:140,0
DA:143,0
DA:145,0
DA:146,0
DA:148,0
DA:152,0
DA:154,0
DA:155,0
DA:156,0
DA:157,0
DA:158,0
DA:161,0
DA:162,0
DA:166,0
DA:170,0
DA:174,0
DA:175,0
DA:178,0
DA:179,0
DA:181,0
DA:183,0
DA:184,0
DA:187,0
DA:188,0
DA:190,0
DA:192,0
DA:193,0
DA:194,0
DA:196,0
DA:200,0
DA:201,0
DA:202,0
DA:203,0
DA:207,0
DA:208,0
DA:209,0
DA:210,0
DA:211,0
LF:86
LH:0
end_of_record
TN:
SF:/home/nn/redis/FalkorDB/deps/RediSearch/deps/VectorSimilarity/src/VecSim/algorithms/brute_force/bfm_batch_iterator.h
FN:15,17,_ZN17BFM_BatchIteratorIddEC2EPvPK15BruteForceIndexIddEP17VecSimQueryParamsSt10shared_ptrI15VecSimAllocatorE
FN:15,17,_ZN17BFM_BatchIteratorIffEC2EPvPK15BruteForceIndexIffEP17VecSimQueryParamsSt10shared_ptrI15VecSimAllocatorE
FN:19,19,_ZN17BFM_BatchIteratorIddED0Ev
FN:19,19,_ZN17BFM_BatchIteratorIddED2Ev
FN:19,19,_ZN17BFM_BatchIteratorIffED0Ev
FN:19,19,_ZN17BFM_BatchIteratorIffED2Ev
FN:22,55,_ZN17BFM_BatchIteratorIddE15calculateScoresEv
FN:22,55,_ZN17BFM_BatchIteratorIffE15calculateScoresEv
FNDA:0,_ZN17BFM_BatchIteratorIddEC2EPvPK15BruteForceIndexIddEP17VecSimQueryParamsSt10shared_ptrI15VecSimAllocatorE
FNDA:0,_ZN17BFM_BatchIteratorIffEC2EPvPK15BruteForceIndexIffEP17VecSimQueryParamsSt10shared_ptrI15VecSimAllocatorE
FNDA:0,_ZN17BFM_BatchIteratorIddED0Ev
FNDA:0,_ZN17BFM_BatchIteratorIddED2Ev
FNDA:0,_ZN17BFM_BatchIteratorIffED0Ev
FNDA:0,_ZN17BFM_BatchIteratorIffED2Ev
FNDA:0,_ZN17BFM_BatchIteratorIddE15calculateScoresEv
FNDA:0,_ZN17BFM_BatchIteratorIffE15calculateScoresEv
FNF:8
FNH:0
DA:15,0
DA:17,0
DA:19,0
DA:22,0
DA:24,0
DA:25,0
DA:26,0
DA:27,0
DA:30,0
DA:31,0
DA:33,0
DA:35,0
DA:36,0
DA:38,0
DA:39,0
DA:40,0
DA:42,0
DA:43,0
DA:44,0
DA:45,0
DA:47,0
DA:50,0
DA:51,0
DA:52,0
DA:54,0
DA:55,0
LF:26
LH:0
end_of_record
TN:
SF:/home/nn/redis/FalkorDB/deps/RediSearch/deps/VectorSimilarity/src/VecSim/algorithms/brute_force/bfs_batch_iterator.h
FN:15,17,_ZN17BFS_BatchIteratorIddEC2EPvPK15BruteForceIndexIddEP17VecSimQueryParamsSt10shared_ptrI15VecSimAllocatorE
FN:15,17,_ZN17BFS_BatchIteratorIffEC2EPvPK15BruteForceIndexIffEP17VecSimQueryParamsSt10shared_ptrI15VecSimAllocatorE
FN:19,19,_ZN17BFS_BatchIteratorIddED0Ev
FN:19,19,_ZN17BFS_BatchIteratorIddED2Ev
FN:19,19,_ZN17BFS_BatchIteratorIffED0Ev
FN:19,19,_ZN17BFS_BatchIteratorIffED2Ev
FN:22,43,_ZN17BFS_BatchIteratorIddE15calculateScoresEv
FN:22,43,_ZN17BFS_BatchIteratorIffE15calculateScoresEv
FNDA:0,_ZN17BFS_BatchIteratorIddEC2EPvPK15BruteForceIndexIddEP17VecSimQueryParamsSt10shared_ptrI15VecSimAllocatorE
FNDA:0,_ZN17BFS_BatchIteratorIffEC2EPvPK15BruteForceIndexIffEP17VecSimQueryParamsSt10shared_ptrI15VecSimAllocatorE
FNDA:0,_ZN17BFS_BatchIteratorIddED0Ev
FNDA:0,_ZN17BFS_BatchIteratorIddED2Ev
FNDA:0,_ZN17BFS_BatchIteratorIffED0Ev
FNDA:0,_ZN17BFS_BatchIteratorIffED2Ev
FNDA:0,_ZN17BFS_BatchIteratorIddE15calculateScoresEv
FNDA:0,_ZN17BFS_BatchIteratorIffE15calculateScoresEv
FNF:8
FNH:0
DA:15,0
DA:17,0
DA:19,0
DA:22,0
DA:24,0
DA:25,0
DA:28,0
DA:29,0
DA:31,0
DA:33,0
DA:34,0
DA:36,0
DA:37,0
DA:38,0
DA:41,0
DA:42,0
DA:43,0
LF:17
LH:0
end_of_record
TN:
SF:/home/nn/redis/FalkorDB/deps/RediSearch/deps/VectorSimilarity/src/VecSim/algorithms/brute_force/brute_force.h
FN:107,111,_ZN15BruteForceIndexIddED0Ev
FN:107,111,_ZN15BruteForceIndexIddED2Ev
FN:107,111,_ZN15BruteForceIndexIffED0Ev
FN:107,111,_ZN15BruteForceIndexIffED2Ev
FN:116,156,_ZN15BruteForceIndexIddE12appendVectorEPKvm
FN:116,156,_ZN15BruteForceIndexIffE12appendVectorEPKvm
FN:159,206,_ZN15BruteForceIndexIddE12removeVectorEj
FN:159,206,_ZN15BruteForceIndexIffE12removeVectorEj
FN:209,211,_ZNK15BruteForceIndexIddE9indexSizeEv
FN:209,211,_ZNK15BruteForceIndexIffE9indexSizeEv
FN:215,228,_ZNK15BruteForceIndexIddE18computeBlockScoresEP11VectorBlockPKvPvP22VecSimQueryResult_Code
FN:215,228,_ZNK15BruteForceIndexIffE18computeBlockScoresEP11VectorBlockPKvPvP22VecSimQueryResult_Code
FN:232,287,_ZN15BruteForceIndexIddE9topKQueryEPKvmP17VecSimQueryParams
FN:232,287,_ZN15BruteForceIndexIffE9topKQueryEPKvmP17VecSimQueryParams
FN:291,327,_ZN15BruteForceIndexIddE10rangeQueryEPKvdP17VecSimQueryParams
FN:291,327,_ZN15BruteForceIndexIffE10rangeQueryEPKvdP17VecSimQueryParams
FN:330,344,_ZNK15BruteForceIndexIddE4infoEv
FN:330,344,_ZNK15BruteForceIndexIffE4infoEv
FN:347,396,_ZNK15BruteForceIndexIddE12infoIteratorEv
FN:347,396,_ZNK15BruteForceIndexIffE12infoIteratorEv
FN:400,409,_ZNK15BruteForceIndexIddE16newBatchIteratorEPKvP17VecSimQueryParams
FN:400,409,_ZNK15BruteForceIndexIffE16newBatchIteratorEPKvP17VecSimQueryParams
FN:412,482,_ZN15BruteForceIndexIddE17preferAdHocSearchEmmb
FN:412,482,_ZN15BruteForceIndexIffE17preferAdHocSearchEmmb
FN:51,51,_ZNK15BruteForceIndexIddE14getVectorLabelEj
FN:51,51,_ZNK15BruteForceIndexIffE14getVectorLabelEj
FN:53,53,_ZNK15BruteForceIndexIddE15getVectorBlocksEv
FN:53,53,_ZNK15BruteForceIndexIffE15getVectorBlocksEv
FN:63,65,_ZNK15BruteForceIndexIddE19getDataByInternalIdEj
FN:63,65,_ZNK15BruteForceIndexIffE19getDataByInternalIdEj
FN:66,68,_ZNK15BruteForceIndexIddE20getVectorVectorBlockEj
FN:66,68,_ZNK15BruteForceIndexIffE20getVectorVectorBlockEj
FN:69,69,_ZNK15BruteForceIndexIddE22getVectorRelativeIndexEj
FN:69,69,_ZNK15BruteForceIndexIffE22getVectorRelativeIndexEj
FN:70,72,_ZN15BruteForceIndexIddE14setVectorLabelEjm
FN:70,72,_ZN15BruteForceIndexIffE14setVectorLabelEjm
FN:97,104,_ZN15BruteForceIndexIddEC2EPK8BFParamsSt10shared_ptrI15VecSimAllocatorE
FN:97,104,_ZN15BruteForceIndexIffEC2EPK8BFParamsSt10shared_ptrI15VecSimAllocatorE
FNDA:0,_ZN15BruteForceIndexIddED0Ev
FNDA:0,_ZN15BruteForceIndexIddED2Ev
FNDA:0,_ZN15BruteForceIndexIffED0Ev
FNDA:0,_ZN15BruteForceIndexIffED2Ev
FNDA:0,_ZN15BruteForceIndexIddE12appendVectorEPKvm
FNDA:0,_ZN15BruteForceIndexIffE12appendVectorEPKvm
FNDA:0,_ZN15BruteForceIndexIddE12removeVectorEj
FNDA:0,_ZN15BruteForceIndexIffE12removeVectorEj
FNDA:0,_ZNK15BruteForceIndexIddE9indexSizeEv
FNDA:0,_ZNK15BruteForceIndexIffE9indexSizeEv
FNDA:0,_ZNK15BruteForceIndexIddE18computeBlockScoresEP11VectorBlockPKvPvP22VecSimQueryResult_Code
FNDA:0,_ZNK15BruteForceIndexIffE18computeBlockScoresEP11VectorBlockPKvPvP22VecSimQueryResult_Code
FNDA:0,_ZN15BruteForceIndexIddE9topKQueryEPKvmP17VecSimQueryParams
FNDA:0,_ZN15BruteForceIndexIffE9topKQueryEPKvmP17VecSimQueryParams
FNDA:0,_ZN15BruteForceIndexIddE10rangeQueryEPKvdP17VecSimQueryParams
FNDA:0,_ZN15BruteForceIndexIffE10rangeQueryEPKvdP17VecSimQueryParams
FNDA:0,_ZNK15BruteForceIndexIddE4infoEv
FNDA:0,_ZNK15BruteForceIndexIffE4infoEv
FNDA:0,_ZNK15BruteForceIndexIddE12infoIteratorEv
FNDA:0,_ZNK15BruteForceIndexIffE12infoIteratorEv
FNDA:0,_ZNK15BruteForceIndexIddE16newBatchIteratorEPKvP17VecSimQueryParams
FNDA:0,_ZNK15BruteForceIndexIffE16newBatchIteratorEPKvP17VecSimQueryParams
FNDA:0,_ZN15BruteForceIndexIddE17preferAdHocSearchEmmb
FNDA:0,_ZN15BruteForceIndexIffE17preferAdHocSearchEmmb
FNDA:0,_ZNK15BruteForceIndexIddE14getVectorLabelEj
FNDA:0,_ZNK15BruteForceIndexIffE14getVectorLabelEj
FNDA:0,_ZNK15BruteForceIndexIddE15getVectorBlocksEv
FNDA:0,_ZNK15BruteForceIndexIffE15getVectorBlocksEv
FNDA:0,_ZNK15BruteForceIndexIddE19getDataByInternalIdEj
FNDA:0,_ZNK15BruteForceIndexIffE19getDataByInternalIdEj
FNDA:0,_ZNK15BruteForceIndexIddE20getVectorVectorBlockEj
FNDA:0,_ZNK15BruteForceIndexIffE20getVectorVectorBlockEj
FNDA:0,_ZNK15BruteForceIndexIddE22getVectorRelativeIndexEj
FNDA:0,_ZNK15BruteForceIndexIffE22getVectorRelativeIndexEj
FNDA:0,_ZN15BruteForceIndexIddE14setVectorLabelEjm
FNDA:0,_ZN15BruteForceIndexIffE14setVectorLabelEjm
FNDA:0,_ZN15BruteForceIndexIddEC2EPK8BFParamsSt10shared_ptrI15VecSimAllocatorE
FNDA:0,_ZN15BruteForceIndexIffEC2EPK8BFParamsSt10shared_ptrI15VecSimAllocatorE
FNF:38
FNH:0
DA:51,0
DA:53,0
DA:63,0
DA:64,0
DA:66,0
DA:67,0
DA:69,0
DA:70,0
DA:71,0
DA:72,0
DA:97,0
DA:99,0
DA:100,0
DA:101,0
DA:102,0
DA:103,0
DA:104,0
DA:107,0
DA:108,0
DA:109,0
DA:111,0
DA:116,0
DA:119,0
DA:124,0
DA:125,0
DA:126,0
DA:127,0
DA:128,0
DA:132,0
DA:134,0
DA:137,0
DA:141,0
DA:143,0
DA:144,0
DA:145,0
DA:146,0
DA:150,0
DA:153,0
DA:155,0
DA:159,0
DA:162,0
DA:163,0
DA:166,0
DA:167,0
DA:169,0
DA:173,0
DA:176,0
DA:180,0
DA:183,0
DA:184,0
DA:187,0
DA:191,0
DA:192,0
DA:193,0
DA:196,0
DA:199,0
DA:200,0
DA:201,0
DA:205,0
DA:209,0
DA:210,0
DA:215,0
DA:217,0
DA:218,0
DA:219,0
DA:220,0
DA:221,0
DA:222,0
DA:224,0
DA:226,0
DA:227,0
DA:228,0
DA:232,0
DA:235,0
DA:236,0
DA:237,0
DA:239,0
DA:240,0
DA:241,0
DA:244,0
DA:245,0
DA:246,0
DA:247,0
DA:249,0
DA:252,0
DA:254,0
DA:256,0
DA:257,0
DA:258,0
DA:259,0
DA:260,0
DA:261,0
DA:263,0
DA:265,0
DA:266,0
DA:267,0
DA:269,0
DA:271,0
DA:273,0
DA:276,0
DA:278,0
DA:279,0
DA:280,0
DA:281,0
DA:282,0
DA:284,0
DA:285,0
DA:286,0
DA:287,0
DA:291,0
DA:293,0
DA:294,0
DA:295,0
DA:297,0
DA:298,0
DA:299,0
DA:300,0
DA:301,0
DA:305,0
DA:306,0
DA:308,0
DA:309,0
DA:310,0
DA:311,0
DA:312,0
DA:313,0
DA:314,0
DA:316,0
DA:317,0
DA:318,0
DA:320,0
DA:324,0
DA:325,0
DA:326,0
DA:327,0
DA:330,0
DA:333,0
DA:334,0
DA:335,0
DA:336,0
DA:337,0
DA:338,0
DA:339,0
DA:340,0
DA:341,0
DA:342,0
DA:343,0
DA:347,0
DA:348,0
DA:350,0
DA:351,0
DA:353,0
DA:356,0
DA:357,0
DA:360,0
DA:361,0
DA:364,0
DA:365,0
DA:368,0
DA:369,0
DA:372,0
DA:373,0
DA:376,0
DA:377,0
DA:380,0
DA:381,0
DA:384,0
DA:385,0
DA:388,0
DA:389,0
DA:393,0
DA:395,0
DA:400,0
DA:402,0
DA:403,0
DA:404,0
DA:405,0
DA:408,0
DA:412,0
DA:416,0
DA:417,0
DA:418,0
DA:420,0
DA:421,0
DA:423,0
DA:425,0
DA:428,0
DA:430,0
DA:432,0
DA:435,0
DA:437,0
DA:439,0
DA:442,0
DA:444,0
DA:447,0
DA:452,0
DA:457,0
DA:459,0
DA:462,0
DA:464,0
DA:467,0
DA:469,0
DA:472,0
DA:479,0
DA:480,0
DA:481,0
LF:206
LH:0
end_of_record
TN:
SF:/home/nn/redis/FalkorDB/deps/RediSearch/deps/VectorSimilarity/src/VecSim/algorithms/brute_force/brute_force_factory.cpp
FN:14,21,_ZN17BruteForceFactory28NewIndex_ChooseMultiOrSingleIddEEP20VecSimIndexInterfacePK8BFParamsSt10shared_ptrI15VecSimAllocatorE
FN:14,21,_ZN17BruteForceFactory28NewIndex_ChooseMultiOrSingleIffEEP20VecSimIndexInterfacePK8BFParamsSt10shared_ptrI15VecSimAllocatorE
FN:23,32,_ZN17BruteForceFactory8NewIndexEPK8BFParamsSt10shared_ptrI15VecSimAllocatorE
FN:35,41,_ZN17BruteForceFactory39EstimateInitialSize_ChooseMultiOrSingleIddEEmb
FN:35,41,_ZN17BruteForceFactory39EstimateInitialSize_ChooseMultiOrSingleIffEEmb
FN:43,59,_ZN17BruteForceFactory19EstimateInitialSizeEPK8BFParams
FN:61,63,_ZN17BruteForceFactory19EstimateElementSizeEPK8BFParams
FNDA:0,_ZN17BruteForceFactory28NewIndex_ChooseMultiOrSingleIddEEP20VecSimIndexInterfacePK8BFParamsSt10shared_ptrI15VecSimAllocatorE
FNDA:0,_ZN17BruteForceFactory28NewIndex_ChooseMultiOrSingleIffEEP20VecSimIndexInterfacePK8BFParamsSt10shared_ptrI15VecSimAllocatorE
FNDA:0,_ZN17BruteForceFactory8NewIndexEPK8BFParamsSt10shared_ptrI15VecSimAllocatorE
FNDA:0,_ZN17BruteForceFactory39EstimateInitialSize_ChooseMultiOrSingleIddEEmb
FNDA:0,_ZN17BruteForceFactory39EstimateInitialSize_ChooseMultiOrSingleIffEEmb
FNDA:0,_ZN17BruteForceFactory19EstimateInitialSizeEPK8BFParams
FNDA:0,_ZN17BruteForceFactory19EstimateElementSizeEPK8BFParams
FNF:7
FNH:0
DA:14,0
DA:17,0
DA:18,0
DA:20,0
DA:23,0
DA:24,0
DA:25,0
DA:26,0
DA:27,0
DA:31,0
DA:35,0
DA:37,0
DA:38,0
DA:40,0
DA:43,0
DA:46,0
DA:47,0
DA:48,0
DA:49,0
DA:50,0
DA:54,0
DA:55,0
DA:58,0
DA:61,0
DA:62,0
LF:25
LH:0
end_of_record
TN:
SF:/home/nn/redis/FalkorDB/deps/RediSearch/deps/VectorSimilarity/src/VecSim/algorithms/brute_force/brute_force_multi.h
FN:116,127,_ZN21BruteForceIndex_MultiIddE16replaceIdOfLabelEmjj
FN:116,127,_ZN21BruteForceIndex_MultiIffE16replaceIdOfLabelEmjj
FN:130,139,_ZN21BruteForceIndex_MultiIddE11setVectorIdEmj
FN:130,139,_ZN21BruteForceIndex_MultiIffE11setVectorIdEmj
FN:20,21,_ZN21BruteForceIndex_MultiIddEC2EPK8BFParamsSt10shared_ptrI15VecSimAllocatorE
FN:20,21,_ZN21BruteForceIndex_MultiIffEC2EPK8BFParamsSt10shared_ptrI15VecSimAllocatorE
FN:23,23,_ZN21BruteForceIndex_MultiIddED0Ev
FN:23,23,_ZN21BruteForceIndex_MultiIddED2Ev
FN:23,23,_ZN21BruteForceIndex_MultiIffED0Ev
FN:23,23,_ZN21BruteForceIndex_MultiIffED2Ev
FN:28,28,_ZNK21BruteForceIndex_MultiIddE15indexLabelCountEv
FN:28,28,_ZNK21BruteForceIndex_MultiIffE15indexLabelCountEv
FN:31,34,_ZNK21BruteForceIndex_MultiIddE22getNewResultsContainerEm
FN:31,34,_ZNK21BruteForceIndex_MultiIffE22getNewResultsContainerEm
FN:44,47,_ZN21BruteForceIndex_MultiIddE22getNewMaxPriorityQueueEv
FN:44,47,_ZN21BruteForceIndex_MultiIffE22getNewMaxPriorityQueueEv
FN:50,53,_ZNK21BruteForceIndex_MultiIddE25newBatchIterator_InstanceEPvP17VecSimQueryParams
FN:50,53,_ZNK21BruteForceIndex_MultiIffE25newBatchIterator_InstanceEPvP17VecSimQueryParams
FN:63,73,_ZN21BruteForceIndex_MultiIddE9addVectorEPKvm
FN:63,73,_ZN21BruteForceIndex_MultiIffE9addVectorEPKvm
FN:76,95,_ZN21BruteForceIndex_MultiIddE12deleteVectorEm
FN:76,95,_ZN21BruteForceIndex_MultiIffE12deleteVectorEm
FN:98,113,_ZNK21BruteForceIndex_MultiIddE15getDistanceFromEmPKv
FN:98,113,_ZNK21BruteForceIndex_MultiIffE15getDistanceFromEmPKv
FNDA:0,_ZN21BruteForceIndex_MultiIddE16replaceIdOfLabelEmjj
FNDA:0,_ZN21BruteForceIndex_MultiIffE16replaceIdOfLabelEmjj
FNDA:0,_ZN21BruteForceIndex_MultiIddE11setVectorIdEmj
FNDA:0,_ZN21BruteForceIndex_MultiIffE11setVectorIdEmj
FNDA:0,_ZN21BruteForceIndex_MultiIddEC2EPK8BFParamsSt10shared_ptrI15VecSimAllocatorE
FNDA:0,_ZN21BruteForceIndex_MultiIffEC2EPK8BFParamsSt10shared_ptrI15VecSimAllocatorE
FNDA:0,_ZN21BruteForceIndex_MultiIddED0Ev
FNDA:0,_ZN21BruteForceIndex_MultiIddED2Ev
FNDA:0,_ZN21BruteForceIndex_MultiIffED0Ev
FNDA:0,_ZN21BruteForceIndex_MultiIffED2Ev
FNDA:0,_ZNK21BruteForceIndex_MultiIddE15indexLabelCountEv
FNDA:0,_ZNK21BruteForceIndex_MultiIffE15indexLabelCountEv
FNDA:0,_ZNK21BruteForceIndex_MultiIddE22getNewResultsContainerEm
FNDA:0,_ZNK21BruteForceIndex_MultiIffE22getNewResultsContainerEm
FNDA:0,_ZN21BruteForceIndex_MultiIddE22getNewMaxPriorityQueueEv
FNDA:0,_ZN21BruteForceIndex_MultiIffE22getNewMaxPriorityQueueEv
FNDA:0,_ZNK21BruteForceIndex_MultiIddE25newBatchIterator_InstanceEPvP17VecSimQueryParams
FNDA:0,_ZNK21BruteForceIndex_MultiIffE25newBatchIterator_InstanceEPvP17VecSimQueryParams
FNDA:0,_ZN21BruteForceIndex_MultiIddE9addVectorEPKvm
FNDA:0,_ZN21BruteForceIndex_MultiIffE9addVectorEPKvm
FNDA:0,_ZN21BruteForceIndex_MultiIddE12deleteVectorEm
FNDA:0,_ZN21BruteForceIndex_MultiIffE12deleteVectorEm
FNDA:0,_ZNK21BruteForceIndex_MultiIddE15getDistanceFromEmPKv
FNDA:0,_ZNK21BruteForceIndex_MultiIffE15getDistanceFromEmPKv
FNF:24
FNH:0
DA:20,0
DA:21,0
DA:23,0
DA:28,0
DA:31,0
DA:33,0
DA:44,0
DA:45,0
DA:46,0
DA:50,0
DA:51,0
DA:52,0
DA:63,0
DA:65,0
DA:66,0
DA:67,0
DA:68,0
DA:69,0
DA:72,0
DA:73,0
DA:76,0
DA:79,0
DA:80,0
DA:82,0
DA:85,0
DA:88,0
DA:89,0
DA:93,0
DA:94,0
DA:98,0
DA:101,0
DA:102,0
DA:103,0
DA:106,0
DA:107,0
DA:108,0
DA:109,0
DA:112,0
DA:116,0
DA:118,0
DA:119,0
DA:120,0
DA:121,0
DA:122,0
DA:123,0
DA:126,0
DA:130,0
DA:131,0
DA:132,0
DA:133,0
DA:137,0
DA:139,0
LF:52
LH:0
end_of_record
TN:
SF:/home/nn/redis/FalkorDB/deps/RediSearch/deps/VectorSimilarity/src/VecSim/algorithms/brute_force/brute_force_single.h
FN:107,123,_ZN22BruteForceIndex_SingleIddE12deleteVectorEm
FN:107,123,_ZN22BruteForceIndex_SingleIffE12deleteVectorEm
FN:126,136,_ZNK22BruteForceIndex_SingleIddE15getDistanceFromEmPKv
FN:126,136,_ZNK22BruteForceIndex_SingleIffE15getDistanceFromEmPKv
FN:28,31,_ZNK22BruteForceIndex_SingleIddE22getNewResultsContainerEm
FN:28,31,_ZNK22BruteForceIndex_SingleIffE22getNewResultsContainerEm
FN:33,33,_ZNK22BruteForceIndex_SingleIddE15indexLabelCountEv
FN:33,33,_ZNK22BruteForceIndex_SingleIffE15indexLabelCountEv
FN:38,46,_ZN22BruteForceIndex_SingleIddE12updateVectorEjPKv
FN:38,46,_ZN22BruteForceIndex_SingleIffE12updateVectorEjPKv
FN:48,50,_ZN22BruteForceIndex_SingleIddE11setVectorIdEmj
FN:48,50,_ZN22BruteForceIndex_SingleIffE11setVectorIdEmj
FN:52,54,_ZN22BruteForceIndex_SingleIddE16replaceIdOfLabelEmjj
FN:52,54,_ZN22BruteForceIndex_SingleIffE16replaceIdOfLabelEmjj
FN:57,60,_ZN22BruteForceIndex_SingleIddE22getNewMaxPriorityQueueEv
FN:57,60,_ZN22BruteForceIndex_SingleIffE22getNewMaxPriorityQueueEv
FN:63,66,_ZNK22BruteForceIndex_SingleIddE25newBatchIterator_InstanceEPvP17VecSimQueryParams
FN:63,66,_ZNK22BruteForceIndex_SingleIffE25newBatchIterator_InstanceEPvP17VecSimQueryParams
FN:77,79,_ZN22BruteForceIndex_SingleIddEC2EPK8BFParamsSt10shared_ptrI15VecSimAllocatorE
FN:77,79,_ZN22BruteForceIndex_SingleIffEC2EPK8BFParamsSt10shared_ptrI15VecSimAllocatorE
FN:82,82,_ZN22BruteForceIndex_SingleIddED0Ev
FN:82,82,_ZN22BruteForceIndex_SingleIddED2Ev
FN:82,82,_ZN22BruteForceIndex_SingleIffED0Ev
FN:82,82,_ZN22BruteForceIndex_SingleIffED2Ev
FN:85,104,_ZN22BruteForceIndex_SingleIddE9addVectorEPKvm
FN:85,104,_ZN22BruteForceIndex_SingleIffE9addVectorEPKvm
FNDA:0,_ZN22BruteForceIndex_SingleIddE12deleteVectorEm
FNDA:0,_ZN22BruteForceIndex_SingleIffE12deleteVectorEm
FNDA:0,_ZNK22BruteForceIndex_SingleIddE15getDistanceFromEmPKv
FNDA:0,_ZNK22BruteForceIndex_SingleIffE15getDistanceFromEmPKv
FNDA:0,_ZNK22BruteForceIndex_SingleIddE22getNewResultsContainerEm
FNDA:0,_ZNK22BruteForceIndex_SingleIffE22getNewResultsContainerEm
FNDA:0,_ZNK22BruteForceIndex_SingleIddE15indexLabelCountEv
FNDA:0,_ZNK22BruteForceIndex_SingleIffE15indexLabelCountEv
FNDA:0,_ZN22BruteForceIndex_SingleIddE12updateVectorEjPKv
FNDA:0,_ZN22BruteForceIndex_SingleIffE12updateVectorEjPKv
FNDA:0,_ZN22BruteForceIndex_SingleIddE11setVectorIdEmj
FNDA:0,_ZN22BruteForceIndex_SingleIffE11setVectorIdEmj
FNDA:0,_ZN22BruteForceIndex_SingleIddE16replaceIdOfLabelEmjj
FNDA:0,_ZN22BruteForceIndex_SingleIffE16replaceIdOfLabelEmjj
FNDA:0,_ZN22BruteForceIndex_SingleIddE22getNewMaxPriorityQueueEv
FNDA:0,_ZN22BruteForceIndex_SingleIffE22getNewMaxPriorityQueueEv
FNDA:0,_ZNK22BruteForceIndex_SingleIddE25newBatchIterator_InstanceEPvP17VecSimQueryParams
FNDA:0,_ZNK22BruteForceIndex_SingleIffE25newBatchIterator_InstanceEPvP17VecSimQueryParams
FNDA:0,_ZN22BruteForceIndex_SingleIddEC2EPK8BFParamsSt10shared_ptrI15VecSimAllocatorE
FNDA:0,_ZN22BruteForceIndex_SingleIffEC2EPK8BFParamsSt10shared_ptrI15VecSimAllocatorE
FNDA:0,_ZN22BruteForceIndex_SingleIddED0Ev
FNDA:0,_ZN22BruteForceIndex_SingleIddED2Ev
FNDA:0,_ZN22BruteForceIndex_SingleIffED0Ev
FNDA:0,_ZN22BruteForceIndex_SingleIffED2Ev
FNDA:0,_ZN22BruteForceIndex_SingleIddE9addVectorEPKvm
FNDA:0,_ZN22BruteForceIndex_SingleIffE9addVectorEPKvm
FNF:26
FNH:0
DA:28,0
DA:30,0
DA:33,0
DA:38,0
DA:41,0
DA:42,0
DA:45,0
DA:46,0
DA:48,0
DA:49,0
DA:50,0
DA:52,0
DA:53,0
DA:54,0
DA:57,0
DA:58,0
DA:59,0
DA:63,0
DA:64,0
DA:65,0
DA:77,0
DA:79,0
DA:82,0
DA:85,0
DA:88,0
DA:89,0
DA:90,0
DA:91,0
DA:92,0
DA:95,0
DA:97,0
DA:98,0
DA:99,0
DA:100,0
DA:103,0
DA:104,0
DA:107,0
DA:110,0
DA:111,0
DA:113,0
DA:117,0
DA:120,0
DA:122,0
DA:126,0
DA:129,0
DA:130,0
DA:131,0
DA:133,0
DA:135,0
LF:49
LH:0
end_of_record
TN:
SF:/home/nn/redis/FalkorDB/deps/RediSearch/deps/VectorSimilarity/src/VecSim/algorithms/brute_force/vector_block.cpp
FN:11,16,_ZN11VectorBlockC2EmmSt10shared_ptrI15VecSimAllocatorE
FN:18,20,_ZN11VectorBlockD0Ev
FN:18,20,_ZN11VectorBlockD2Ev
FN:22,27,_ZN11VectorBlock9addVectorEPKv
FN:29,32,_ZN11VectorBlock12updateVectorEmPKv
FNDA:0,_ZN11VectorBlockC2EmmSt10shared_ptrI15VecSimAllocatorE
FNDA:0,_ZN11VectorBlockD0Ev
FNDA:0,_ZN11VectorBlockD2Ev
FNDA:0,_ZN11VectorBlock9addVectorEPKv
FNDA:0,_ZN11VectorBlock12updateVectorEmPKv
FNF:5
FNH:0
DA:11,0
DA:12,0
DA:13,0
DA:14,0
DA:15,0
DA:16,0
DA:18,0
DA:19,0
DA:20,0
DA:22,0
DA:25,0
DA:26,0
DA:27,0
DA:29,0
DA:30,0
DA:31,0
DA:32,0
LF:17
LH:0
end_of_record
TN:
SF:/home/nn/redis/FalkorDB/deps/RediSearch/deps/VectorSimilarity/src/VecSim/algorithms/brute_force/vector_block.h
FN:24,24,_ZN11VectorBlock9getVectorEm
FN:26,28,_ZN11VectorBlock24removeAndFetchLastVectorEv
FN:30,30,_ZN11VectorBlock9getLengthEv
FNDA:0,_ZN11VectorBlock9getVectorEm
FNDA:0,_ZN11VectorBlock24removeAndFetchLastVectorEv
FNDA:0,_ZN11VectorBlock9getLengthEv
FNF:3
FNH:0
DA:24,0
DA:26,0
DA:27,0
DA:30,0
LF:4
LH:0
end_of_record
TN:
SF:/home/nn/redis/FalkorDB/deps/RediSearch/deps/VectorSimilarity/src/VecSim/algorithms/hnsw/hnsw.h
FN:1008,1021,_ZN9HNSWIndexIddED0Ev
FN:1008,1021,_ZN9HNSWIndexIddED2Ev
FN:1008,1021,_ZN9HNSWIndexIffED0Ev
FN:1008,1021,_ZN9HNSWIndexIffED2Ev
FN:1027,1055,_ZN9HNSWIndexIddE11resizeIndexEm
FN:1027,1055,_ZN9HNSWIndexIffE11resizeIndexEm
FN:1058,1149,_ZN9HNSWIndexIddE12removeVectorEj
FN:1058,1149,_ZN9HNSWIndexIffE12removeVectorEj
FN:1152,1279,_ZN9HNSWIndexIddE12appendVectorEPKvm
FN:1152,1279,_ZN9HNSWIndexIffE12appendVectorEPKvm
FN:1282,1318,_ZNK9HNSWIndexIddE19searchBottomLayerEPEPKvPvP22VecSimQueryResult_Code
FN:1282,1318,_ZNK9HNSWIndexIffE19searchBottomLayerEPEPKvPvP22VecSimQueryResult_Code
FN:1322,1365,_ZNK9HNSWIndexIddE29searchBottomLayer_WithTimeoutEjPKvmmPvP22VecSimQueryResult_Code
FN:1322,1365,_ZNK9HNSWIndexIffE29searchBottomLayer_WithTimeoutEjPKvmmPvP22VecSimQueryResult_Code
FN:1368,1417,_ZN9HNSWIndexIddE9topKQueryEPKvmP17VecSimQueryParams
FN:1368,1417,_ZN9HNSWIndexIffE9topKQueryEPKvmP17VecSimQueryParams
FN:1420,1483,_ZNK9HNSWIndexIddE34searchRangeBottomLayer_WithTimeoutEjPKvddPvP22VecSimQueryResult_Code
FN:1420,1483,_ZNK9HNSWIndexIffE34searchRangeBottomLayer_WithTimeoutEjPKvddPvP22VecSimQueryResult_Code
FN:1486,1526,_ZN9HNSWIndexIddE10rangeQueryEPKvdP17VecSimQueryParams
FN:1486,1526,_ZN9HNSWIndexIffE10rangeQueryEPKvdP17VecSimQueryParams
FN:1529,1549,_ZNK9HNSWIndexIddE4infoEv
FN:1529,1549,_ZNK9HNSWIndexIffE4infoEv
FN:1552,1622,_ZNK9HNSWIndexIddE12infoIteratorEv
FN:1552,1622,_ZNK9HNSWIndexIffE12infoIteratorEv
FN:1625,1758,_ZN9HNSWIndexIddE17preferAdHocSearchEmmb
FN:1625,1758,_ZN9HNSWIndexIffE17preferAdHocSearchEmmb
FN:218,220,_ZNK9HNSWIndexIddE5getEfEv
FN:218,220,_ZNK9HNSWIndexIffE5getEfEv
FN:233,235,_ZNK9HNSWIndexIddE9indexSizeEv
FN:233,235,_ZNK9HNSWIndexIffE9indexSizeEv
FN:243,245,_ZNK9HNSWIndexIddE17getEfConstructionEv
FN:243,245,_ZNK9HNSWIndexIffE17getEfConstructionEv
FN:248,250,_ZNK9HNSWIndexIddE4getMEv
FN:248,250,_ZNK9HNSWIndexIffE4getMEv
FN:253,255,_ZNK9HNSWIndexIddE11getMaxLevelEv
FN:253,255,_ZNK9HNSWIndexIffE11getMaxLevelEv
FN:258,262,_ZNK9HNSWIndexIddE18getEntryPointLabelEv
FN:258,262,_ZNK9HNSWIndexIffE18getEntryPointLabelEv
FN:265,271,_ZNK9HNSWIndexIddE16getExternalLabelEj
FN:265,271,_ZNK9HNSWIndexIffE16getExternalLabelEj
FN:274,277,_ZN9HNSWIndexIddE16setExternalLabelEjm
FN:274,277,_ZN9HNSWIndexIffE16setExternalLabelEjm
FN:286,288,_ZNK9HNSWIndexIddE19getDataByInternalIdEj
FN:286,288,_ZNK9HNSWIndexIffE19getDataByInternalIdEj
FN:291,295,_ZN9HNSWIndexIddE14getRandomLevelEd
FN:291,295,_ZN9HNSWIndexIffE14getRandomLevelEd
FN:298,308,_ZNK9HNSWIndexIddE19getIncomingEdgesPtrEjm
FN:298,308,_ZNK9HNSWIndexIffE19getIncomingEdgesPtrEjm
FN:311,321,_ZN9HNSWIndexIddE19setIncomingEdgesPtrEjmPv
FN:311,321,_ZN9HNSWIndexIffE19setIncomingEdgesPtrEjmPv
FN:324,327,_ZNK9HNSWIndexIddE13get_linklist0Ej
FN:324,327,_ZNK9HNSWIndexIffE13get_linklist0Ej
FN:330,333,_ZNK9HNSWIndexIddE12get_linklistEjm
FN:330,333,_ZNK9HNSWIndexIffE12get_linklistEjm
FN:336,339,_ZNK9HNSWIndexIddE21get_linklist_at_levelEjm
FN:336,339,_ZNK9HNSWIndexIffE21get_linklist_at_levelEjm
FN:342,344,_ZNK9HNSWIndexIddE12getListCountEPKj
FN:342,344,_ZNK9HNSWIndexIffE12getListCountEPKj
FN:347,349,_ZN9HNSWIndexIddE12setListCountEPjt
FN:347,349,_ZN9HNSWIndexIffE12setListCountEPjt
FN:352,354,_ZNK9HNSWIndexIddE15getEntryPointIdEv
FN:352,354,_ZNK9HNSWIndexIffE15getEntryPointIdEv
FN:357,359,_ZNK9HNSWIndexIddE14getVisitedListEv
FN:357,359,_ZNK9HNSWIndexIffE14getVisitedListEv
FN:365,393,_ZN9HNSWIndexIddE16removeExtraLinksEPjN10vecsim_stl18max_priority_queueIdjEEmS1_RKNS2_6vectorIbEES1_Pm
FN:365,393,_ZN9HNSWIndexIffE16removeExtraLinksEPjN10vecsim_stl18max_priority_queueIfjEEmS1_RKNS2_6vectorIbEES1_Pm
FN:396,399,_ZNK9HNSWIndexIddE13emplaceToHeapERN10vecsim_stl23abstract_priority_queueIdjEEdj
FN:396,399,_ZNK9HNSWIndexIffE13emplaceToHeapERN10vecsim_stl23abstract_priority_queueIfjEEfj
FN:402,406,_ZNK9HNSWIndexIddE13emplaceToHeapERN10vecsim_stl23abstract_priority_queueIdmEEdj
FN:402,406,_ZNK9HNSWIndexIffE13emplaceToHeapERN10vecsim_stl23abstract_priority_queueIfmEEfj
FN:412,459,_ZNK9HNSWIndexIddE16processCandidateIjEEdjPKvmmtRN10vecsim_stl23abstract_priority_queueIdT_EERNS4_18max_priority_queueIdjEEd
FN:412,459,_ZNK9HNSWIndexIddE16processCandidateImEEdjPKvmmtRN10vecsim_stl23abstract_priority_queueIdT_EERNS4_18max_priority_queueIdjEEd
FN:412,459,_ZNK9HNSWIndexIffE16processCandidateIjEEfjPKvmmtRN10vecsim_stl23abstract_priority_queueIfT_EERNS4_18max_priority_queueIfjEEf
FN:412,459,_ZNK9HNSWIndexIffE16processCandidateImEEfjPKvmmtRN10vecsim_stl23abstract_priority_queueIfT_EERNS4_18max_priority_queueIfjEEf
FN:462,506,_ZNK9HNSWIndexIddE28processCandidate_RangeSearchEjPKvmdtRSt10unique_ptrIN10vecsim_stl26abstract_results_containerESt14default_deleteIS5_EERNS4_18max_priority_queueIdjEEdd
FN:462,506,_ZNK9HNSWIndexIffE28processCandidate_RangeSearchEjPKvmdtRSt10unique_ptrIN10vecsim_stl26abstract_results_containerESt14default_deleteIS5_EERNS4_18max_priority_queueIfjEEfd
FN:510,545,_ZNK9HNSWIndexIddE11searchLayerEjPKvmm
FN:510,545,_ZNK9HNSWIndexIffE11searchLayerEjPKvmm
FN:548,591,_ZN9HNSWIndexIddE24getNeighborsByHeuristic2ERN10vecsim_stl18max_priority_queueIdjEEm
FN:548,591,_ZN9HNSWIndexIffE24getNeighborsByHeuristic2ERN10vecsim_stl18max_priority_queueIfjEEm
FN:594,705,_ZN9HNSWIndexIddE25mutuallyConnectNewElementEjRN10vecsim_stl18max_priority_queueIdjEEm
FN:594,705,_ZN9HNSWIndexIffE25mutuallyConnectNewElementEjRN10vecsim_stl18max_priority_queueIfjEEm
FN:708,797,_ZN9HNSWIndexIddE28repairConnectionsForDeletionEjjPjS1_mRN10vecsim_stl6vectorIbEE
FN:708,797,_ZN9HNSWIndexIffE28repairConnectionsForDeletionEjjPjS1_mRN10vecsim_stl6vectorIbEE
FN:800,828,_ZN9HNSWIndexIddE17replaceEntryPointEv
FN:800,828,_ZN9HNSWIndexIffE17replaceEntryPointEv
FN:831,909,_ZN9HNSWIndexIddE23SwapLastIdWithDeletedIdEj
FN:831,909,_ZN9HNSWIndexIffE23SwapLastIdWithDeletedIdEj
FN:923,1005,_ZN9HNSWIndexIddEC2EPK10HNSWParamsSt10shared_ptrI15VecSimAllocatorEmm
FN:923,1005,_ZN9HNSWIndexIffEC2EPK10HNSWParamsSt10shared_ptrI15VecSimAllocatorEmm
FNDA:0,_ZN9HNSWIndexIddED0Ev
FNDA:0,_ZN9HNSWIndexIddED2Ev
FNDA:0,_ZN9HNSWIndexIffED0Ev
FNDA:0,_ZN9HNSWIndexIffED2Ev
FNDA:0,_ZN9HNSWIndexIddE11resizeIndexEm
FNDA:0,_ZN9HNSWIndexIffE11resizeIndexEm
FNDA:0,_ZN9HNSWIndexIddE12removeVectorEj
FNDA:0,_ZN9HNSWIndexIffE12removeVectorEj
FNDA:0,_ZN9HNSWIndexIddE12appendVectorEPKvm
FNDA:0,_ZN9HNSWIndexIffE12appendVectorEPKvm
FNDA:0,_ZNK9HNSWIndexIddE19searchBottomLayerEPEPKvPvP22VecSimQueryResult_Code
FNDA:0,_ZNK9HNSWIndexIffE19searchBottomLayerEPEPKvPvP22VecSimQueryResult_Code
FNDA:0,_ZNK9HNSWIndexIddE29searchBottomLayer_WithTimeoutEjPKvmmPvP22VecSimQueryResult_Code
FNDA:0,_ZNK9HNSWIndexIffE29searchBottomLayer_WithTimeoutEjPKvmmPvP22VecSimQueryResult_Code
FNDA:0,_ZN9HNSWIndexIddE9topKQueryEPKvmP17VecSimQueryParams
FNDA:0,_ZN9HNSWIndexIffE9topKQueryEPKvmP17VecSimQueryParams
FNDA:0,_ZNK9HNSWIndexIddE34searchRangeBottomLayer_WithTimeoutEjPKvddPvP22VecSimQueryResult_Code
FNDA:0,_ZNK9HNSWIndexIffE34searchRangeBottomLayer_WithTimeoutEjPKvddPvP22VecSimQueryResult_Code
FNDA:0,_ZN9HNSWIndexIddE10rangeQueryEPKvdP17VecSimQueryParams
FNDA:0,_ZN9HNSWIndexIffE10rangeQueryEPKvdP17VecSimQueryParams
FNDA:0,_ZNK9HNSWIndexIddE4infoEv
FNDA:0,_ZNK9HNSWIndexIffE4infoEv
FNDA:0,_ZNK9HNSWIndexIddE12infoIteratorEv
FNDA:0,_ZNK9HNSWIndexIffE12infoIteratorEv
FNDA:0,_ZN9HNSWIndexIddE17preferAdHocSearchEmmb
FNDA:0,_ZN9HNSWIndexIffE17preferAdHocSearchEmmb
FNDA:0,_ZNK9HNSWIndexIddE5getEfEv
FNDA:0,_ZNK9HNSWIndexIffE5getEfEv
FNDA:0,_ZNK9HNSWIndexIddE9indexSizeEv
FNDA:0,_ZNK9HNSWIndexIffE9indexSizeEv
FNDA:0,_ZNK9HNSWIndexIddE17getEfConstructionEv
FNDA:0,_ZNK9HNSWIndexIffE17getEfConstructionEv
FNDA:0,_ZNK9HNSWIndexIddE4getMEv
FNDA:0,_ZNK9HNSWIndexIffE4getMEv
FNDA:0,_ZNK9HNSWIndexIddE11getMaxLevelEv
FNDA:0,_ZNK9HNSWIndexIffE11getMaxLevelEv
FNDA:0,_ZNK9HNSWIndexIddE18getEntryPointLabelEv
FNDA:0,_ZNK9HNSWIndexIffE18getEntryPointLabelEv
FNDA:0,_ZNK9HNSWIndexIddE16getExternalLabelEj
FNDA:0,_ZNK9HNSWIndexIffE16getExternalLabelEj
FNDA:0,_ZN9HNSWIndexIddE16setExternalLabelEjm
FNDA:0,_ZN9HNSWIndexIffE16setExternalLabelEjm
FNDA:0,_ZNK9HNSWIndexIddE19getDataByInternalIdEj
FNDA:0,_ZNK9HNSWIndexIffE19getDataByInternalIdEj
FNDA:0,_ZN9HNSWIndexIddE14getRandomLevelEd
FNDA:0,_ZN9HNSWIndexIffE14getRandomLevelEd
FNDA:0,_ZNK9HNSWIndexIddE19getIncomingEdgesPtrEjm
FNDA:0,_ZNK9HNSWIndexIffE19getIncomingEdgesPtrEjm
FNDA:0,_ZN9HNSWIndexIddE19setIncomingEdgesPtrEjmPv
FNDA:0,_ZN9HNSWIndexIffE19setIncomingEdgesPtrEjmPv
FNDA:0,_ZNK9HNSWIndexIddE13get_linklist0Ej
FNDA:0,_ZNK9HNSWIndexIffE13get_linklist0Ej
FNDA:0,_ZNK9HNSWIndexIddE12get_linklistEjm
FNDA:0,_ZNK9HNSWIndexIffE12get_linklistEjm
FNDA:0,_ZNK9HNSWIndexIddE21get_linklist_at_levelEjm
FNDA:0,_ZNK9HNSWIndexIffE21get_linklist_at_levelEjm
FNDA:0,_ZNK9HNSWIndexIddE12getListCountEPKj
FNDA:0,_ZNK9HNSWIndexIffE12getListCountEPKj
FNDA:0,_ZN9HNSWIndexIddE12setListCountEPjt
FNDA:0,_ZN9HNSWIndexIffE12setListCountEPjt
FNDA:0,_ZNK9HNSWIndexIddE15getEntryPointIdEv
FNDA:0,_ZNK9HNSWIndexIffE15getEntryPointIdEv
FNDA:0,_ZNK9HNSWIndexIddE14getVisitedListEv
FNDA:0,_ZNK9HNSWIndexIffE14getVisitedListEv
FNDA:0,_ZN9HNSWIndexIddE16removeExtraLinksEPjN10vecsim_stl18max_priority_queueIdjEEmS1_RKNS2_6vectorIbEES1_Pm
FNDA:0,_ZN9HNSWIndexIffE16removeExtraLinksEPjN10vecsim_stl18max_priority_queueIfjEEmS1_RKNS2_6vectorIbEES1_Pm
FNDA:0,_ZNK9HNSWIndexIddE13emplaceToHeapERN10vecsim_stl23abstract_priority_queueIdjEEdj
FNDA:0,_ZNK9HNSWIndexIffE13emplaceToHeapERN10vecsim_stl23abstract_priority_queueIfjEEfj
FNDA:0,_ZNK9HNSWIndexIddE13emplaceToHeapERN10vecsim_stl23abstract_priority_queueIdmEEdj
FNDA:0,_ZNK9HNSWIndexIffE13emplaceToHeapERN10vecsim_stl23abstract_priority_queueIfmEEfj
FNDA:0,_ZNK9HNSWIndexIddE16processCandidateIjEEdjPKvmmtRN10vecsim_stl23abstract_priority_queueIdT_EERNS4_18max_priority_queueIdjEEd
FNDA:0,_ZNK9HNSWIndexIddE16processCandidateImEEdjPKvmmtRN10vecsim_stl23abstract_priority_queueIdT_EERNS4_18max_priority_queueIdjEEd
FNDA:0,_ZNK9HNSWIndexIffE16processCandidateIjEEfjPKvmmtRN10vecsim_stl23abstract_priority_queueIfT_EERNS4_18max_priority_queueIfjEEf
FNDA:0,_ZNK9HNSWIndexIffE16processCandidateImEEfjPKvmmtRN10vecsim_stl23abstract_priority_queueIfT_EERNS4_18max_priority_queueIfjEEf
FNDA:0,_ZNK9HNSWIndexIddE28processCandidate_RangeSearchEjPKvmdtRSt10unique_ptrIN10vecsim_stl26abstract_results_containerESt14default_deleteIS5_EERNS4_18max_priority_queueIdjEEdd
FNDA:0,_ZNK9HNSWIndexIffE28processCandidate_RangeSearchEjPKvmdtRSt10unique_ptrIN10vecsim_stl26abstract_results_containerESt14default_deleteIS5_EERNS4_18max_priority_queueIfjEEfd
FNDA:0,_ZNK9HNSWIndexIddE11searchLayerEjPKvmm
FNDA:0,_ZNK9HNSWIndexIffE11searchLayerEjPKvmm
FNDA:0,_ZN9HNSWIndexIddE24getNeighborsByHeuristic2ERN10vecsim_stl18max_priority_queueIdjEEm
FNDA:0,_ZN9HNSWIndexIffE24getNeighborsByHeuristic2ERN10vecsim_stl18max_priority_queueIfjEEm
FNDA:0,_ZN9HNSWIndexIddE25mutuallyConnectNewElementEjRN10vecsim_stl18max_priority_queueIdjEEm
FNDA:0,_ZN9HNSWIndexIffE25mutuallyConnectNewElementEjRN10vecsim_stl18max_priority_queueIfjEEm
FNDA:0,_ZN9HNSWIndexIddE28repairConnectionsForDeletionEjjPjS1_mRN10vecsim_stl6vectorIbEE
FNDA:0,_ZN9HNSWIndexIffE28repairConnectionsForDeletionEjjPjS1_mRN10vecsim_stl6vectorIbEE
FNDA:0,_ZN9HNSWIndexIddE17replaceEntryPointEv
FNDA:0,_ZN9HNSWIndexIffE17replaceEntryPointEv
FNDA:0,_ZN9HNSWIndexIddE23SwapLastIdWithDeletedIdEj
FNDA:0,_ZN9HNSWIndexIffE23SwapLastIdWithDeletedIdEj
FNDA:0,_ZN9HNSWIndexIddEC2EPK10HNSWParamsSt10shared_ptrI15VecSimAllocatorEmm
FNDA:0,_ZN9HNSWIndexIffEC2EPK10HNSWParamsSt10shared_ptrI15VecSimAllocatorEmm
FNF:90
FNH:0
DA:218,0
DA:219,0
DA:233,0
DA:234,0
DA:243,0
DA:244,0
DA:248,0
DA:249,0
DA:253,0
DA:254,0
DA:258,0
DA:259,0
DA:260,0
DA:261,0
DA:265,0
DA:267,0
DA:268,0
DA:270,0
DA:274,0
DA:275,0
DA:277,0
DA:286,0
DA:287,0
DA:291,0
DA:292,0
DA:293,0
DA:294,0
DA:298,0
DA:300,0
DA:302,0
DA:303,0
DA:306,0
DA:307,0
DA:311,0
DA:313,0
DA:314,0
DA:317,0
DA:318,0
DA:321,0
DA:324,0
DA:325,0
DA:326,0
DA:330,0
DA:332,0
DA:336,0
DA:338,0
DA:342,0
DA:343,0
DA:347,0
DA:348,0
DA:349,0
DA:352,0
DA:353,0
DA:357,0
DA:358,0
DA:365,0
DA:370,0
DA:372,0
DA:376,0
DA:377,0
DA:379,0
DA:380,0
DA:381,0
DA:382,0
DA:384,0
DA:386,0
DA:387,0
DA:388,0
DA:391,0
DA:392,0
DA:393,0
DA:396,0
DA:398,0
DA:399,0
DA:402,0
DA:405,0
DA:406,0
DA:412,0
DA:420,0
DA:421,0
DA:422,0
DA:424,0
DA:425,0
DA:427,0
DA:428,0
DA:429,0
DA:432,0
DA:433,0
DA:434,0
DA:436,0
DA:437,0
DA:439,0
DA:440,0
DA:442,0
DA:443,0
DA:444,0
DA:446,0
DA:448,0
DA:449,0
DA:451,0
DA:456,0
DA:458,0
DA:462,0
DA:470,0
DA:471,0
DA:472,0
DA:474,0
DA:475,0
DA:478,0
DA:479,0
DA:480,0
DA:481,0
DA:484,0
DA:485,0
DA:486,0
DA:488,0
DA:489,0
DA:490,0
DA:491,0
DA:493,0
DA:494,0
DA:495,0
DA:498,0
DA:499,0
DA:505,0
DA:506,0
DA:510,0
DA:518,0
DA:520,0
DA:521,0
DA:523,0
DA:524,0
DA:525,0
DA:526,0
DA:528,0
DA:530,0
DA:531,0
DA:532,0
DA:533,0
DA:535,0
DA:537,0
DA:544,0
DA:545,0
DA:548,0
DA:550,0
DA:551,0
DA:554,0
DA:555,0
DA:556,0
DA:559,0
DA:560,0
DA:563,0
DA:564,0
DA:565,0
DA:566,0
DA:567,0
DA:568,0
DA:569,0
DA:574,0
DA:576,0
DA:577,0
DA:578,0
DA:579,0
DA:580,0
DA:583,0
DA:584,0
DA:588,0
DA:589,0
DA:591,0
DA:594,0
DA:596,0
DA:597,0
DA:598,0
DA:599,0
DA:602,0
DA:603,0
DA:604,0
DA:605,0
DA:606,0
DA:609,0
DA:611,0
DA:612,0
DA:613,0
DA:615,0
DA:616,0
DA:617,0
DA:618,0
DA:619,0
DA:620,0
DA:621,0
DA:622,0
DA:624,0
DA:625,0
DA:629,0
DA:630,0
DA:634,0
DA:635,0
DA:637,0
DA:638,0
DA:639,0
DA:640,0
DA:641,0
DA:642,0
DA:645,0
DA:648,0
DA:649,0
DA:650,0
DA:653,0
DA:656,0
DA:657,0
DA:658,0
DA:659,0
DA:661,0
DA:662,0
DA:663,0
DA:664,0
DA:666,0
DA:667,0
DA:670,0
DA:672,0
DA:677,0
DA:678,0
DA:679,0
DA:680,0
DA:683,0
DA:684,0
DA:685,0
DA:694,0
DA:696,0
DA:697,0
DA:699,0
DA:702,0
DA:704,0
DA:705,0
DA:708,0
DA:713,0
DA:714,0
DA:715,0
DA:716,0
DA:718,0
DA:719,0
DA:721,0
DA:722,0
DA:723,0
DA:727,0
DA:728,0
DA:729,0
DA:730,0
DA:731,0
DA:734,0
DA:735,0
DA:736,0
DA:738,0
DA:739,0
DA:740,0
DA:743,0
DA:745,0
DA:746,0
DA:751,0
DA:753,0
DA:754,0
DA:755,0
DA:762,0
DA:763,0
DA:764,0
DA:766,0
DA:771,0
DA:772,0
DA:773,0
DA:774,0
DA:775,0
DA:779,0
DA:780,0
DA:781,0
DA:782,0
DA:783,0
DA:784,0
DA:785,0
DA:788,0
DA:789,0
DA:792,0
DA:793,0
DA:797,0
DA:800,0
DA:801,0
DA:803,0
DA:804,0
DA:805,0
DA:807,0
DA:811,0
DA:812,0
DA:813,0
DA:814,0
DA:820,0
DA:821,0
DA:822,0
DA:823,0
DA:824,0
DA:828,0
DA:831,0
DA:833,0
DA:836,0
DA:837,0
DA:838,0
DA:839,0
DA:840,0
DA:844,0
DA:845,0
DA:846,0
DA:847,0
DA:849,0
DA:850,0
DA:851,0
DA:853,0
DA:854,0
DA:855,0
DA:856,0
DA:862,0
DA:863,0
DA:864,0
DA:865,0
DA:866,0
DA:867,0
DA:868,0
DA:874,0
DA:875,0
DA:877,0
DA:879,0
DA:880,0
DA:882,0
DA:883,0
DA:884,0
DA:885,0
DA:892,0
DA:893,0
DA:895,0
DA:899,0
DA:900,0
DA:903,0
DA:904,0
DA:906,0
DA:907,0
DA:909,0
DA:923,0
DA:926,0
DA:927,0
DA:928,0
DA:929,0
DA:930,0
DA:937,0
DA:938,0
DA:939,0
DA:940,0
DA:941,0
DA:942,0
DA:944,0
DA:945,0
DA:946,0
DA:947,0
DA:949,0
DA:950,0
DA:957,0
DA:958,0
DA:962,0
DA:963,0
DA:965,0
DA:966,0
DA:967,0
DA:968,0
DA:973,0
DA:974,0
DA:975,0
DA:977,0
DA:978,0
DA:979,0
DA:983,0
DA:984,0
DA:985,0
DA:986,0
DA:988,0
DA:989,0
DA:990,0
DA:991,0
DA:993,0
DA:994,0
DA:995,0
DA:1001,0
DA:1004,0
DA:1005,0
DA:1008,0
DA:1009,0
DA:1010,0
DA:1011,0
DA:1012,0
DA:1014,0
DA:1015,0
DA:1019,0
DA:1020,0
DA:1021,0
DA:1027,0
DA:1028,0
DA:1029,0
DA:1030,0
DA:1037,0
DA:1038,0
DA:1041,0
DA:1042,0
DA:1043,0
DA:1044,0
DA:1045,0
DA:1049,0
DA:1050,0
DA:1051,0
DA:1052,0
DA:1054,0
DA:1055,0
DA:1058,0
DA:1060,0
DA:1063,0
DA:1064,0
DA:1065,0
DA:1066,0
DA:1067,0
DA:1069,0
DA:1071,0
DA:1072,0
DA:1076,0
DA:1077,0
DA:1078,0
DA:1079,0
DA:1081,0
DA:1082,0
DA:1083,0
DA:1085,0
DA:1086,0
DA:1087,0
DA:1090,0
DA:1096,0
DA:1097,0
DA:1098,0
DA:1106,0
DA:1107,0
DA:1109,0
DA:1110,0
DA:1113,0
DA:1117,0
DA:1118,0
DA:1119,0
DA:1123,0
DA:1124,0
DA:1125,0
DA:1127,0
DA:1129,0
DA:1132,0
DA:1134,0
DA:1135,0
DA:1139,0
DA:1140,0
DA:1143,0
DA:1146,0
DA:1148,0
DA:1149,0
DA:1152,0
DA:1156,0
DA:1157,0
DA:1158,0
DA:1159,0
DA:1160,0
DA:1168,0
DA:1169,0
DA:1170,0
DA:1172,0
DA:1173,0
DA:1179,0
DA:1180,0
DA:1185,0
DA:1191,0
DA:1193,0
DA:1197,0
DA:1198,0
DA:1200,0
DA:1201,0
DA:1202,0
DA:1203,0
DA:1204,0
DA:1205,0
DA:1209,0
DA:1210,0
DA:1212,0
DA:1213,0
DA:1219,0
DA:1220,0
DA:1221,0
DA:1226,0
DA:1227,0
DA:1229,0
DA:1230,0
DA:1231,0
DA:1232,0
DA:1233,0
DA:1237,0
DA:1238,0
DA:1239,0
DA:1240,0
DA:1241,0
DA:1248,0
DA:1249,0
DA:1250,0
DA:1252,0
DA:1254,0
DA:1258,0
DA:1259,0
DA:1260,0
DA:1262,0
DA:1263,0
DA:1264,0
DA:1265,0
DA:1270,0
DA:1271,0
DA:1272,0
DA:1273,0
DA:1274,0
DA:1276,0
DA:1278,0
DA:1279,0
DA:1282,0
DA:1285,0
DA:1286,0
DA:1288,0
DA:1290,0
DA:1291,0
DA:1292,0
DA:1293,0
DA:1294,0
DA:1295,0
DA:1296,0
DA:1298,0
DA:1299,0
DA:1300,0
DA:1301,0
DA:1302,0
DA:1303,0
DA:1304,0
DA:1305,0
DA:1307,0
DA:1308,0
DA:1309,0
DA:1310,0
DA:1311,0
DA:1316,0
DA:1317,0
DA:1322,0
DA:1331,0
DA:1333,0
DA:1334,0
DA:1336,0
DA:1337,0
DA:1338,0
DA:1339,0
DA:1341,0
DA:1343,0
DA:1344,0
DA:1345,0
DA:1346,0
DA:1348,0
DA:1349,0
DA:1350,0
DA:1352,0
DA:1354,0
DA:1360,0
DA:1361,0
DA:1363,0
DA:1364,0
DA:1365,0
DA:1368,0
DA:1371,0
DA:1372,0
DA:1374,0
DA:1375,0
DA:1376,0
DA:1377,0
DA:1380,0
DA:1382,0
DA:1383,0
DA:1384,0
DA:1385,0
DA:1386,0
DA:1389,0
DA:1391,0
DA:1392,0
DA:1393,0
DA:1394,0
DA:1398,0
DA:1399,0
DA:1400,0
DA:1404,0
DA:1405,0
DA:1407,0
DA:1408,0
DA:1409,0
DA:1410,0
DA:1411,0
DA:1412,0
DA:1415,0
DA:1416,0
DA:1417,0
DA:1420,0
DA:1424,0
DA:1425,0
DA:1432,0
DA:1433,0
DA:1436,0
DA:1437,0
DA:1439,0
DA:1441,0
DA:1442,0
DA:1445,0
DA:1446,0
DA:1447,0
DA:1450,0
DA:1451,0
DA:1452,0
DA:1455,0
DA:1456,0
DA:1458,0
DA:1459,0
DA:1460,0
DA:1462,0
DA:1465,0
DA:1466,0
DA:1467,0
DA:1474,0
DA:1482,0
DA:1483,0
DA:1486,0
DA:1489,0
DA:1490,0
DA:1492,0
DA:1493,0
DA:1494,0
DA:1495,0
DA:1497,0
DA:1499,0
DA:1500,0
DA:1501,0
DA:1502,0
DA:1503,0
DA:1506,0
DA:1507,0
DA:1508,0
DA:1509,0
DA:1510,0
DA:1514,0
DA:1515,0
DA:1516,0
DA:1517,0
DA:1522,0
DA:1525,0
DA:1526,0
DA:1529,0
DA:1532,0
DA:1533,0
DA:1534,0
DA:1535,0
DA:1536,0
DA:1537,0
DA:1538,0
DA:1539,0
DA:1540,0
DA:1541,0
DA:1542,0
DA:1543,0
DA:1544,0
DA:1545,0
DA:1546,0
DA:1547,0
DA:1548,0
DA:1552,0
DA:1553,0
DA:1555,0
DA:1556,0
DA:1558,0
DA:1561,0
DA:1562,0
DA:1565,0
DA:1566,0
DA:1569,0
DA:1570,0
DA:1573,0
DA:1575,0
DA:1578,0
DA:1579,0
DA:1582,0
DA:1583,0
DA:1586,0
DA:1587,0
DA:1590,0
DA:1591,0
DA:1594,0
DA:1595,0
DA:1598,0
DA:1599,0
DA:1602,0
DA:1603,0
DA:1606,0
DA:1607,0
DA:1610,0
DA:1611,0
DA:1615,0
DA:1616,0
DA:1619,0
DA:1621,0
DA:1625,0
DA:1629,0
DA:1630,0
DA:1631,0
DA:1633,0
DA:1634,0
DA:1635,0
DA:1639,0
DA:1641,0
DA:1643,0
DA:1646,0
DA:1648,0
DA:1651,0
DA:1653,0
DA:1655,0
DA:1658,0
DA:1660,0
DA:1663,0
DA:1668,0
DA:1674,0
DA:1676,0
DA:1678,0
DA:1681,0
DA:1683,0
DA:1686,0
DA:1688,0
DA:1691,0
DA:1697,0
DA:1699,0
DA:1702,0
DA:1704,0
DA:1706,0
DA:1708,0
DA:1710,0
DA:1713,0
DA:1717,0
DA:1721,0
DA:1725,0
DA:1727,0
DA:1729,0
DA:1732,0
DA:1736,0
DA:1738,0
DA:1741,0
DA:1743,0
DA:1746,0
DA:1755,0
DA:1756,0
DA:1757,0
LF:761
LH:0
end_of_record
TN:
SF:/home/nn/redis/FalkorDB/deps/RediSearch/deps/VectorSimilarity/src/VecSim/algorithms/hnsw/hnsw_batch_iterator.h
FN:178,220,_ZN18HNSW_BatchIteratorIddE14getNextResultsEm23VecSimQueryResult_Order
FN:178,220,_ZN18HNSW_BatchIteratorIffE14getNextResultsEm23VecSimQueryResult_Order
FN:223,225,_ZN18HNSW_BatchIteratorIddE10isDepletedEv
FN:223,225,_ZN18HNSW_BatchIteratorIffE10isDepletedEv
FN:228,236,_ZN18HNSW_BatchIteratorIddE5resetEv
FN:228,236,_ZN18HNSW_BatchIteratorIffE5resetEv
FN:42,44,_ZN18HNSW_BatchIteratorIddE9visitNodeEj
FN:42,44,_ZN18HNSW_BatchIteratorIffE9visitNodeEj
FN:45,47,_ZNK18HNSW_BatchIteratorIddE14hasVisitedNodeEj
FN:45,47,_ZNK18HNSW_BatchIteratorIffE14hasVisitedNodeEj
FN:63,63,_ZN18HNSW_BatchIteratorIddED0Ev
FN:63,63,_ZN18HNSW_BatchIteratorIddED2Ev
FN:63,63,_ZN18HNSW_BatchIteratorIffED0Ev
FN:63,63,_ZN18HNSW_BatchIteratorIffED2Ev
FN:69,89,_ZN18HNSW_BatchIteratorIddEC2EPvPK9HNSWIndexIddEP17VecSimQueryParamsSt10shared_ptrI15VecSimAllocatorE
FN:69,89,_ZN18HNSW_BatchIteratorIffEC2EPvPK9HNSWIndexIffEP17VecSimQueryParamsSt10shared_ptrI15VecSimAllocatorE
FN:95,174,_ZN18HNSW_BatchIteratorIddE9scanGraphEP22VecSimQueryResult_Code
FN:95,174,_ZN18HNSW_BatchIteratorIffE9scanGraphEP22VecSimQueryResult_Code
FNDA:0,_ZN18HNSW_BatchIteratorIddE14getNextResultsEm23VecSimQueryResult_Order
FNDA:0,_ZN18HNSW_BatchIteratorIffE14getNextResultsEm23VecSimQueryResult_Order
FNDA:0,_ZN18HNSW_BatchIteratorIddE10isDepletedEv
FNDA:0,_ZN18HNSW_BatchIteratorIffE10isDepletedEv
FNDA:0,_ZN18HNSW_BatchIteratorIddE5resetEv
FNDA:0,_ZN18HNSW_BatchIteratorIffE5resetEv
FNDA:0,_ZN18HNSW_BatchIteratorIddE9visitNodeEj
FNDA:0,_ZN18HNSW_BatchIteratorIffE9visitNodeEj
FNDA:0,_ZNK18HNSW_BatchIteratorIddE14hasVisitedNodeEj
FNDA:0,_ZNK18HNSW_BatchIteratorIffE14hasVisitedNodeEj
FNDA:0,_ZN18HNSW_BatchIteratorIddED0Ev
FNDA:0,_ZN18HNSW_BatchIteratorIddED2Ev
FNDA:0,_ZN18HNSW_BatchIteratorIffED0Ev
FNDA:0,_ZN18HNSW_BatchIteratorIffED2Ev
FNDA:0,_ZN18HNSW_BatchIteratorIddEC2EPvPK9HNSWIndexIddEP17VecSimQueryParamsSt10shared_ptrI15VecSimAllocatorE
FNDA:0,_ZN18HNSW_BatchIteratorIffEC2EPvPK9HNSWIndexIffEP17VecSimQueryParamsSt10shared_ptrI15VecSimAllocatorE
FNDA:0,_ZN18HNSW_BatchIteratorIddE9scanGraphEP22VecSimQueryResult_Code
FNDA:0,_ZN18HNSW_BatchIteratorIffE9scanGraphEP22VecSimQueryResult_Code
FNF:18
FNH:0
DA:42,0
DA:43,0
DA:44,0
DA:45,0
DA:46,0
DA:63,0
DA:69,0
DA:73,0
DA:74,0
DA:75,0
DA:77,0
DA:78,0
DA:79,0
DA:81,0
DA:82,0
DA:84,0
DA:85,0
DA:87,0
DA:89,0
DA:95,0
DA:97,0
DA:98,0
DA:99,0
DA:100,0
DA:104,0
DA:105,0
DA:106,0
DA:107,0
DA:108,0
DA:109,0
DA:110,0
DA:113,0
DA:114,0
DA:115,0
DA:119,0
DA:120,0
DA:121,0
DA:124,0
DA:125,0
DA:126,0
DA:129,0
DA:130,0
DA:132,0
DA:133,0
DA:134,0
DA:138,0
DA:141,0
DA:143,0
DA:144,0
DA:145,0
DA:147,0
DA:148,0
DA:150,0
DA:151,0
DA:153,0
DA:154,0
DA:157,0
DA:158,0
DA:160,0
DA:161,0
DA:162,0
DA:163,0
DA:164,0
DA:165,0
DA:170,0
DA:171,0
DA:173,0
DA:178,0
DA:181,0
DA:184,0
DA:185,0
DA:186,0
DA:191,0
DA:192,0
DA:194,0
DA:195,0
DA:197,0
DA:201,0
DA:202,0
DA:203,0
DA:204,0
DA:207,0
DA:208,0
DA:210,0
DA:211,0
DA:212,0
DA:215,0
DA:216,0
DA:218,0
DA:219,0
DA:223,0
DA:224,0
DA:228,0
DA:229,0
DA:230,0
DA:231,0
DA:232,0
DA:234,0
DA:235,0
DA:236,0
LF:100
LH:0
end_of_record
TN:
SF:/home/nn/redis/FalkorDB/deps/RediSearch/deps/VectorSimilarity/src/VecSim/algorithms/hnsw/hnsw_factory.cpp
FN:15,22,_ZN11HNSWFactory28NewIndex_ChooseMultiOrSingleIddEEP20VecSimIndexInterfacePK10HNSWParamsSt10shared_ptrI15VecSimAllocatorE
FN:15,22,_ZN11HNSWFactory28NewIndex_ChooseMultiOrSingleIffEEP20VecSimIndexInterfacePK10HNSWParamsSt10shared_ptrI15VecSimAllocatorE
FN:24,33,_ZN11HNSWFactory8NewIndexEPK10HNSWParamsSt10shared_ptrI15VecSimAllocatorE
FN:36,42,_ZN11HNSWFactory39EstimateInitialSize_ChooseMultiOrSingleIddEEmb
FN:36,42,_ZN11HNSWFactory39EstimateInitialSize_ChooseMultiOrSingleIffEEmb
FN:44,78,_ZN11HNSWFactory19EstimateInitialSizeEPK10HNSWParams
FN:80,127,_ZN11HNSWFactory19EstimateElementSizeEPK10HNSWParams
FNDA:0,_ZN11HNSWFactory28NewIndex_ChooseMultiOrSingleIddEEP20VecSimIndexInterfacePK10HNSWParamsSt10shared_ptrI15VecSimAllocatorE
FNDA:0,_ZN11HNSWFactory28NewIndex_ChooseMultiOrSingleIffEEP20VecSimIndexInterfacePK10HNSWParamsSt10shared_ptrI15VecSimAllocatorE
FNDA:0,_ZN11HNSWFactory8NewIndexEPK10HNSWParamsSt10shared_ptrI15VecSimAllocatorE
FNDA:0,_ZN11HNSWFactory39EstimateInitialSize_ChooseMultiOrSingleIddEEmb
FNDA:0,_ZN11HNSWFactory39EstimateInitialSize_ChooseMultiOrSingleIffEEmb
FNDA:0,_ZN11HNSWFactory19EstimateInitialSizeEPK10HNSWParams
FNDA:0,_ZN11HNSWFactory19EstimateElementSizeEPK10HNSWParams
FNF:7
FNH:0
DA:15,0
DA:18,0
DA:19,0
DA:21,0
DA:24,0
DA:25,0
DA:26,0
DA:27,0
DA:28,0
DA:32,0
DA:36,0
DA:38,0
DA:39,0
DA:41,0
DA:44,0
DA:45,0
DA:47,0
DA:48,0
DA:49,0
DA:50,0
DA:51,0
DA:58,0
DA:59,0
DA:63,0
DA:64,0
DA:65,0
DA:70,0
DA:72,0
DA:74,0
DA:75,0
DA:77,0
DA:80,0
DA:81,0
DA:82,0
DA:84,0
DA:92,0
DA:94,0
DA:95,0
DA:96,0
DA:99,0
DA:103,0
DA:110,0
DA:116,0
DA:126,0
LF:44
LH:0
end_of_record
TN:
SF:/home/nn/redis/FalkorDB/deps/RediSearch/deps/VectorSimilarity/src/VecSim/algorithms/hnsw/hnsw_multi.h
FN:102,104,_ZN15HNSWIndex_MultiIddE17resizeLabelLookupEm
FN:102,104,_ZN15HNSWIndex_MultiIffE17resizeLabelLookupEm
FN:111,122,_ZN15HNSWIndex_MultiIddE12deleteVectorEm
FN:111,122,_ZN15HNSWIndex_MultiIffE12deleteVectorEm
FN:125,134,_ZN15HNSWIndex_MultiIddE9addVectorEPKvm
FN:125,134,_ZN15HNSWIndex_MultiIffE9addVectorEPKvm
FN:138,148,_ZNK15HNSWIndex_MultiIddE16newBatchIteratorEPKvP17VecSimQueryParams
FN:138,148,_ZNK15HNSWIndex_MultiIffE16newBatchIteratorEPKvP17VecSimQueryParams
FN:24,26,_ZN15HNSWIndex_MultiIddE11setVectorIdEmj
FN:24,26,_ZN15HNSWIndex_MultiIffE11setVectorIdEmj
FN:30,33,_ZN15HNSWIndex_MultiIddEC2EPK10HNSWParamsSt10shared_ptrI15VecSimAllocatorEmm
FN:30,33,_ZN15HNSWIndex_MultiIffEC2EPK10HNSWParamsSt10shared_ptrI15VecSimAllocatorEmm
FN:35,35,_ZN15HNSWIndex_MultiIddED0Ev
FN:35,35,_ZN15HNSWIndex_MultiIddED2Ev
FN:35,35,_ZN15HNSWIndex_MultiIffED0Ev
FN:35,35,_ZN15HNSWIndex_MultiIffED2Ev
FN:37,40,_ZNK15HNSWIndex_MultiIddE22getNewMaxPriorityQueueEv
FN:37,40,_ZNK15HNSWIndex_MultiIffE22getNewMaxPriorityQueueEv
FN:42,45,_ZNK15HNSWIndex_MultiIddE22getNewResultsContainerEm
FN:42,45,_ZNK15HNSWIndex_MultiIffE22getNewResultsContainerEm
FN:61,63,_ZNK15HNSWIndex_MultiIddE15indexLabelCountEv
FN:61,63,_ZNK15HNSWIndex_MultiIffE15indexLabelCountEv
FN:66,81,_ZNK15HNSWIndex_MultiIddE15getDistanceFromEmPKv
FN:66,81,_ZNK15HNSWIndex_MultiIffE15getDistanceFromEmPKv
FN:88,99,_ZN15HNSWIndex_MultiIddE16replaceIdOfLabelEmjj
FN:88,99,_ZN15HNSWIndex_MultiIffE16replaceIdOfLabelEmjj
FNDA:0,_ZN15HNSWIndex_MultiIddE17resizeLabelLookupEm
FNDA:0,_ZN15HNSWIndex_MultiIffE17resizeLabelLookupEm
FNDA:0,_ZN15HNSWIndex_MultiIddE12deleteVectorEm
FNDA:0,_ZN15HNSWIndex_MultiIffE12deleteVectorEm
FNDA:0,_ZN15HNSWIndex_MultiIddE9addVectorEPKvm
FNDA:0,_ZN15HNSWIndex_MultiIffE9addVectorEPKvm
FNDA:0,_ZNK15HNSWIndex_MultiIddE16newBatchIteratorEPKvP17VecSimQueryParams
FNDA:0,_ZNK15HNSWIndex_MultiIffE16newBatchIteratorEPKvP17VecSimQueryParams
FNDA:0,_ZN15HNSWIndex_MultiIddE11setVectorIdEmj
FNDA:0,_ZN15HNSWIndex_MultiIffE11setVectorIdEmj
FNDA:0,_ZN15HNSWIndex_MultiIddEC2EPK10HNSWParamsSt10shared_ptrI15VecSimAllocatorEmm
FNDA:0,_ZN15HNSWIndex_MultiIffEC2EPK10HNSWParamsSt10shared_ptrI15VecSimAllocatorEmm
FNDA:0,_ZN15HNSWIndex_MultiIddED0Ev
FNDA:0,_ZN15HNSWIndex_MultiIddED2Ev
FNDA:0,_ZN15HNSWIndex_MultiIffED0Ev
FNDA:0,_ZN15HNSWIndex_MultiIffED2Ev
FNDA:0,_ZNK15HNSWIndex_MultiIddE22getNewMaxPriorityQueueEv
FNDA:0,_ZNK15HNSWIndex_MultiIffE22getNewMaxPriorityQueueEv
FNDA:0,_ZNK15HNSWIndex_MultiIddE22getNewResultsContainerEm
FNDA:0,_ZNK15HNSWIndex_MultiIffE22getNewResultsContainerEm
FNDA:0,_ZNK15HNSWIndex_MultiIddE15indexLabelCountEv
FNDA:0,_ZNK15HNSWIndex_MultiIffE15indexLabelCountEv
FNDA:0,_ZNK15HNSWIndex_MultiIddE15getDistanceFromEmPKv
FNDA:0,_ZNK15HNSWIndex_MultiIffE15getDistanceFromEmPKv
FNDA:0,_ZN15HNSWIndex_MultiIddE16replaceIdOfLabelEmjj
FNDA:0,_ZN15HNSWIndex_MultiIffE16replaceIdOfLabelEmjj
FNF:26
FNH:0
DA:24,0
DA:25,0
DA:26,0
DA:30,0
DA:33,0
DA:35,0
DA:37,0
DA:38,0
DA:39,0
DA:42,0
DA:44,0
DA:61,0
DA:62,0
DA:66,0
DA:69,0
DA:70,0
DA:71,0
DA:74,0
DA:75,0
DA:76,0
DA:77,0
DA:80,0
DA:88,0
DA:90,0
DA:91,0
DA:92,0
DA:93,0
DA:94,0
DA:95,0
DA:98,0
DA:102,0
DA:103,0
DA:104,0
DA:111,0
DA:113,0
DA:114,0
DA:115,0
DA:117,0
DA:118,0
DA:120,0
DA:121,0
DA:125,0
DA:129,0
DA:130,0
DA:133,0
DA:138,0
DA:140,0
DA:141,0
DA:142,0
DA:143,0
DA:146,0
DA:147,0
LF:52
LH:0
end_of_record
TN:
SF:/home/nn/redis/FalkorDB/deps/RediSearch/deps/VectorSimilarity/src/VecSim/algorithms/hnsw/hnsw_multi_batch_iterator.h
FN:23,27,_ZN23HNSWMulti_BatchIteratorIddEC2EPvPK9HNSWIndexIddEP17VecSimQueryParamsSt10shared_ptrI15VecSimAllocatorE
FN:23,27,_ZN23HNSWMulti_BatchIteratorIffEC2EPvPK9HNSWIndexIffEP17VecSimQueryParamsSt10shared_ptrI15VecSimAllocatorE
FN:29,29,_ZN23HNSWMulti_BatchIteratorIddED0Ev
FN:29,29,_ZN23HNSWMulti_BatchIteratorIddED2Ev
FN:29,29,_ZN23HNSWMulti_BatchIteratorIffED0Ev
FN:29,29,_ZN23HNSWMulti_BatchIteratorIffED2Ev
FN:37,60,_ZN23HNSWMulti_BatchIteratorIddE14prepareResultsEPN10vecsim_stl23abstract_priority_queueIdmEEm
FN:37,60,_ZN23HNSWMulti_BatchIteratorIffE14prepareResultsEPN10vecsim_stl23abstract_priority_queueIfmEEm
FN:63,72,_ZN23HNSWMulti_BatchIteratorIddE14fillFromExtrasEPN10vecsim_stl23abstract_priority_queueIdmEE
FN:63,72,_ZN23HNSWMulti_BatchIteratorIffE14fillFromExtrasEPN10vecsim_stl23abstract_priority_queueIfmEE
FN:75,92,_ZN23HNSWMulti_BatchIteratorIddE11updateHeapsEPN10vecsim_stl23abstract_priority_queueIdmEEdj
FN:75,92,_ZN23HNSWMulti_BatchIteratorIffE11updateHeapsEPN10vecsim_stl23abstract_priority_queueIfmEEfj
FN:95,98,_ZN23HNSWMulti_BatchIteratorIddE5resetEv
FN:95,98,_ZN23HNSWMulti_BatchIteratorIffE5resetEv
FNDA:0,_ZN23HNSWMulti_BatchIteratorIddEC2EPvPK9HNSWIndexIddEP17VecSimQueryParamsSt10shared_ptrI15VecSimAllocatorE
FNDA:0,_ZN23HNSWMulti_BatchIteratorIffEC2EPvPK9HNSWIndexIffEP17VecSimQueryParamsSt10shared_ptrI15VecSimAllocatorE
FNDA:0,_ZN23HNSWMulti_BatchIteratorIddED0Ev
FNDA:0,_ZN23HNSWMulti_BatchIteratorIddED2Ev
FNDA:0,_ZN23HNSWMulti_BatchIteratorIffED0Ev
FNDA:0,_ZN23HNSWMulti_BatchIteratorIffED2Ev
FNDA:0,_ZN23HNSWMulti_BatchIteratorIddE14prepareResultsEPN10vecsim_stl23abstract_priority_queueIdmEEm
FNDA:0,_ZN23HNSWMulti_BatchIteratorIffE14prepareResultsEPN10vecsim_stl23abstract_priority_queueIfmEEm
FNDA:0,_ZN23HNSWMulti_BatchIteratorIddE14fillFromExtrasEPN10vecsim_stl23abstract_priority_queueIdmEE
FNDA:0,_ZN23HNSWMulti_BatchIteratorIffE14fillFromExtrasEPN10vecsim_stl23abstract_priority_queueIfmEE
FNDA:0,_ZN23HNSWMulti_BatchIteratorIddE11updateHeapsEPN10vecsim_stl23abstract_priority_queueIdmEEdj
FNDA:0,_ZN23HNSWMulti_BatchIteratorIffE11updateHeapsEPN10vecsim_stl23abstract_priority_queueIfmEEfj
FNDA:0,_ZN23HNSWMulti_BatchIteratorIddE5resetEv
FNDA:0,_ZN23HNSWMulti_BatchIteratorIffE5resetEv
FNF:14
FNH:0
DA:23,0
DA:27,0
DA:29,0
DA:37,0
DA:39,0
DA:42,0
DA:43,0
DA:44,0
DA:45,0
DA:47,0
DA:50,0
DA:51,0
DA:53,0
DA:54,0
DA:55,0
DA:56,0
DA:57,0
DA:59,0
DA:63,0
DA:65,0
DA:66,0
DA:67,0
DA:68,0
DA:70,0
DA:72,0
DA:75,0
DA:78,0
DA:79,0
DA:80,0
DA:81,0
DA:82,0
DA:85,0
DA:86,0
DA:87,0
DA:89,0
DA:92,0
DA:95,0
DA:96,0
DA:97,0
DA:98,0
LF:40
LH:0
end_of_record
TN:
SF:/home/nn/redis/FalkorDB/deps/RediSearch/deps/VectorSimilarity/src/VecSim/algorithms/hnsw/hnsw_single.h
FN:103,112,_ZN16HNSWIndex_SingleIddE9addVectorEPKvm
FN:103,112,_ZN16HNSWIndex_SingleIffE9addVectorEPKvm
FN:116,126,_ZNK16HNSWIndex_SingleIddE16newBatchIteratorEPKvP17VecSimQueryParams
FN:116,126,_ZNK16HNSWIndex_SingleIffE16newBatchIteratorEPKvP17VecSimQueryParams
FN:23,23,_ZN16HNSWIndex_SingleIddE11setVectorIdEmj
FN:23,23,_ZN16HNSWIndex_SingleIffE11setVectorIdEmj
FN:27,30,_ZN16HNSWIndex_SingleIddEC2EPK10HNSWParamsSt10shared_ptrI15VecSimAllocatorEmm
FN:27,30,_ZN16HNSWIndex_SingleIffEC2EPK10HNSWParamsSt10shared_ptrI15VecSimAllocatorEmm
FN:32,32,_ZN16HNSWIndex_SingleIddED0Ev
FN:32,32,_ZN16HNSWIndex_SingleIddED2Ev
FN:32,32,_ZN16HNSWIndex_SingleIffED0Ev
FN:32,32,_ZN16HNSWIndex_SingleIffED2Ev
FN:34,37,_ZNK16HNSWIndex_SingleIddE22getNewMaxPriorityQueueEv
FN:34,37,_ZNK16HNSWIndex_SingleIffE22getNewMaxPriorityQueueEv
FN:39,42,_ZNK16HNSWIndex_SingleIddE22getNewResultsContainerEm
FN:39,42,_ZNK16HNSWIndex_SingleIffE22getNewResultsContainerEm
FN:58,60,_ZNK16HNSWIndex_SingleIddE15indexLabelCountEv
FN:58,60,_ZNK16HNSWIndex_SingleIffE15indexLabelCountEv
FN:63,70,_ZNK16HNSWIndex_SingleIddE15getDistanceFromEmPKv
FN:63,70,_ZNK16HNSWIndex_SingleIffE15getDistanceFromEmPKv
FN:77,80,_ZN16HNSWIndex_SingleIddE16replaceIdOfLabelEmjj
FN:77,80,_ZN16HNSWIndex_SingleIffE16replaceIdOfLabelEmjj
FN:83,85,_ZN16HNSWIndex_SingleIddE17resizeLabelLookupEm
FN:83,85,_ZN16HNSWIndex_SingleIffE17resizeLabelLookupEm
FN:92,100,_ZN16HNSWIndex_SingleIddE12deleteVectorEm
FN:92,100,_ZN16HNSWIndex_SingleIffE12deleteVectorEm
FNDA:0,_ZN16HNSWIndex_SingleIddE9addVectorEPKvm
FNDA:0,_ZN16HNSWIndex_SingleIffE9addVectorEPKvm
FNDA:0,_ZNK16HNSWIndex_SingleIddE16newBatchIteratorEPKvP17VecSimQueryParams
FNDA:0,_ZNK16HNSWIndex_SingleIffE16newBatchIteratorEPKvP17VecSimQueryParams
FNDA:0,_ZN16HNSWIndex_SingleIddE11setVectorIdEmj
FNDA:0,_ZN16HNSWIndex_SingleIffE11setVectorIdEmj
FNDA:0,_ZN16HNSWIndex_SingleIddEC2EPK10HNSWParamsSt10shared_ptrI15VecSimAllocatorEmm
FNDA:0,_ZN16HNSWIndex_SingleIffEC2EPK10HNSWParamsSt10shared_ptrI15VecSimAllocatorEmm
FNDA:0,_ZN16HNSWIndex_SingleIddED0Ev
FNDA:0,_ZN16HNSWIndex_SingleIddED2Ev
FNDA:0,_ZN16HNSWIndex_SingleIffED0Ev
FNDA:0,_ZN16HNSWIndex_SingleIffED2Ev
FNDA:0,_ZNK16HNSWIndex_SingleIddE22getNewMaxPriorityQueueEv
FNDA:0,_ZNK16HNSWIndex_SingleIffE22getNewMaxPriorityQueueEv
FNDA:0,_ZNK16HNSWIndex_SingleIddE22getNewResultsContainerEm
FNDA:0,_ZNK16HNSWIndex_SingleIffE22getNewResultsContainerEm
FNDA:0,_ZNK16HNSWIndex_SingleIddE15indexLabelCountEv
FNDA:0,_ZNK16HNSWIndex_SingleIffE15indexLabelCountEv
FNDA:0,_ZNK16HNSWIndex_SingleIddE15getDistanceFromEmPKv
FNDA:0,_ZNK16HNSWIndex_SingleIffE15getDistanceFromEmPKv
FNDA:0,_ZN16HNSWIndex_SingleIddE16replaceIdOfLabelEmjj
FNDA:0,_ZN16HNSWIndex_SingleIffE16replaceIdOfLabelEmjj
FNDA:0,_ZN16HNSWIndex_SingleIddE17resizeLabelLookupEm
FNDA:0,_ZN16HNSWIndex_SingleIffE17resizeLabelLookupEm
FNDA:0,_ZN16HNSWIndex_SingleIddE12deleteVectorEm
FNDA:0,_ZN16HNSWIndex_SingleIffE12deleteVectorEm
FNF:26
FNH:0
DA:23,0
DA:27,0
DA:30,0
DA:32,0
DA:34,0
DA:35,0
DA:36,0
DA:39,0
DA:41,0
DA:58,0
DA:59,0
DA:63,0
DA:65,0
DA:66,0
DA:67,0
DA:69,0
DA:77,0
DA:79,0
DA:80,0
DA:83,0
DA:84,0
DA:85,0
DA:92,0
DA:94,0
DA:95,0
DA:97,0
DA:98,0
DA:99,0
DA:103,0
DA:107,0
DA:108,0
DA:111,0
DA:116,0
DA:118,0
DA:119,0
DA:120,0
DA:121,0
DA:124,0
DA:125,0
LF:39
LH:0
end_of_record
TN:
SF:/home/nn/redis/FalkorDB/deps/RediSearch/deps/VectorSimilarity/src/VecSim/algorithms/hnsw/hnsw_single_batch_iterator.h
FN:22,25,_ZN24HNSWSingle_BatchIteratorIddEC2EPvPK9HNSWIndexIddEP17VecSimQueryParamsSt10shared_ptrI15VecSimAllocatorE
FN:22,25,_ZN24HNSWSingle_BatchIteratorIffEC2EPvPK9HNSWIndexIffEP17VecSimQueryParamsSt10shared_ptrI15VecSimAllocatorE
FN:27,27,_ZN24HNSWSingle_BatchIteratorIddED0Ev
FN:27,27,_ZN24HNSWSingle_BatchIteratorIddED2Ev
FN:27,27,_ZN24HNSWSingle_BatchIteratorIffED0Ev
FN:27,27,_ZN24HNSWSingle_BatchIteratorIffED2Ev
FN:33,52,_ZN24HNSWSingle_BatchIteratorIddE14prepareResultsEPN10vecsim_stl23abstract_priority_queueIdmEEm
FN:33,52,_ZN24HNSWSingle_BatchIteratorIffE14prepareResultsEPN10vecsim_stl23abstract_priority_queueIfmEEm
FN:55,62,_ZN24HNSWSingle_BatchIteratorIddE14fillFromExtrasEPN10vecsim_stl23abstract_priority_queueIdmEE
FN:55,62,_ZN24HNSWSingle_BatchIteratorIffE14fillFromExtrasEPN10vecsim_stl23abstract_priority_queueIfmEE
FN:65,79,_ZN24HNSWSingle_BatchIteratorIddE11updateHeapsEPN10vecsim_stl23abstract_priority_queueIdmEEdj
FN:65,79,_ZN24HNSWSingle_BatchIteratorIffE11updateHeapsEPN10vecsim_stl23abstract_priority_queueIfmEEfj
FNDA:0,_ZN24HNSWSingle_BatchIteratorIddEC2EPvPK9HNSWIndexIddEP17VecSimQueryParamsSt10shared_ptrI15VecSimAllocatorE
FNDA:0,_ZN24HNSWSingle_BatchIteratorIffEC2EPvPK9HNSWIndexIffEP17VecSimQueryParamsSt10shared_ptrI15VecSimAllocatorE
FNDA:0,_ZN24HNSWSingle_BatchIteratorIddED0Ev
FNDA:0,_ZN24HNSWSingle_BatchIteratorIddED2Ev
FNDA:0,_ZN24HNSWSingle_BatchIteratorIffED0Ev
FNDA:0,_ZN24HNSWSingle_BatchIteratorIffED2Ev
FNDA:0,_ZN24HNSWSingle_BatchIteratorIddE14prepareResultsEPN10vecsim_stl23abstract_priority_queueIdmEEm
FNDA:0,_ZN24HNSWSingle_BatchIteratorIffE14prepareResultsEPN10vecsim_stl23abstract_priority_queueIfmEEm
FNDA:0,_ZN24HNSWSingle_BatchIteratorIddE14fillFromExtrasEPN10vecsim_stl23abstract_priority_queueIdmEE
FNDA:0,_ZN24HNSWSingle_BatchIteratorIffE14fillFromExtrasEPN10vecsim_stl23abstract_priority_queueIfmEE
FNDA:0,_ZN24HNSWSingle_BatchIteratorIddE11updateHeapsEPN10vecsim_stl23abstract_priority_queueIdmEEdj
FNDA:0,_ZN24HNSWSingle_BatchIteratorIffE11updateHeapsEPN10vecsim_stl23abstract_priority_queueIfmEEfj
FNF:12
FNH:0
DA:22,0
DA:25,0
DA:27,0
DA:33,0
DA:35,0
DA:38,0
DA:39,0
DA:40,0
DA:41,0
DA:43,0
DA:46,0
DA:47,0
DA:48,0
DA:49,0
DA:51,0
DA:55,0
DA:57,0
DA:58,0
DA:59,0
DA:60,0
DA:62,0
DA:65,0
DA:67,0
DA:68,0
DA:69,0
DA:70,0
DA:71,0
DA:74,0
DA:75,0
DA:76,0
DA:77,0
DA:79,0
LF:32
LH:0
end_of_record
TN:
SF:/home/nn/redis/FalkorDB/deps/RediSearch/deps/VectorSimilarity/src/VecSim/algorithms/hnsw/visited_nodes_handler.cpp
FN:17,20,_ZN19VisitedNodesHandler5resetEv
FN:22,29,_ZN19VisitedNodesHandler11getFreshTagEv
FN:31,31,_ZN19VisitedNodesHandlerD0Ev
FN:31,31,_ZN19VisitedNodesHandlerD2Ev
FN:36,41,_ZN23VisitedNodesHandlerPoolC2EiiRKSt10shared_ptrI15VecSimAllocatorE
FN:43,53,_ZN23VisitedNodesHandlerPool31getAvailableVisitedNodesHandlerEv
FN:55,58,_ZN23VisitedNodesHandlerPool31returnVisitedNodesHandlerToPoolEP19VisitedNodesHandler
FN:60,66,_ZN23VisitedNodesHandlerPoolD0Ev
FN:60,66,_ZN23VisitedNodesHandlerPoolD2Ev
FN:9,15,_ZN19VisitedNodesHandlerC2EjRKSt10shared_ptrI15VecSimAllocatorE
FNDA:0,_ZN19VisitedNodesHandler5resetEv
FNDA:0,_ZN19VisitedNodesHandler11getFreshTagEv
FNDA:0,_ZN19VisitedNodesHandlerD0Ev
FNDA:0,_ZN19VisitedNodesHandlerD2Ev
FNDA:0,_ZN23VisitedNodesHandlerPoolC2EiiRKSt10shared_ptrI15VecSimAllocatorE
FNDA:0,_ZN23VisitedNodesHandlerPool31getAvailableVisitedNodesHandlerEv
FNDA:0,_ZN23VisitedNodesHandlerPool31returnVisitedNodesHandlerToPoolEP19VisitedNodesHandler
FNDA:0,_ZN23VisitedNodesHandlerPoolD0Ev
FNDA:0,_ZN23VisitedNodesHandlerPoolD2Ev
FNDA:0,_ZN19VisitedNodesHandlerC2EjRKSt10shared_ptrI15VecSimAllocatorE
FNF:10
FNH:0
DA:9,0
DA:10,0
DA:11,0
DA:12,0
DA:13,0
DA:14,0
DA:15,0
DA:17,0
DA:18,0
DA:19,0
DA:20,0
DA:22,0
DA:23,0
DA:24,0
DA:25,0
DA:26,0
DA:28,0
DA:31,0
DA:36,0
DA:37,0
DA:38,0
DA:39,0
DA:40,0
DA:41,0
DA:43,0
DA:45,0
DA:46,0
DA:47,0
DA:48,0
DA:50,0
DA:52,0
DA:53,0
DA:55,0
DA:56,0
DA:57,0
DA:58,0
DA:60,0
DA:61,0
DA:62,0
DA:63,0
DA:64,0
DA:66,0
LF:42
LH:0
end_of_record
TN:
SF:/home/nn/redis/FalkorDB/deps/RediSearch/deps/VectorSimilarity/src/VecSim/algorithms/hnsw/visited_nodes_handler.h
FN:35,35,_ZN19VisitedNodesHandler15getElementsTagsEv
FN:40,40,_ZN19VisitedNodesHandler7tagNodeEjt
FN:43,43,_ZN19VisitedNodesHandler10getNodeTagEj
FNDA:0,_ZN19VisitedNodesHandler15getElementsTagsEv
FNDA:0,_ZN19VisitedNodesHandler7tagNodeEjt
FNDA:0,_ZN19VisitedNodesHandler10getNodeTagEj
FNF:3
FNH:0
DA:35,0
DA:40,0
DA:43,0
LF:3
LH:0
end_of_record
TN:
SF:/home/nn/redis/FalkorDB/deps/RediSearch/deps/VectorSimilarity/src/VecSim/batch_iterator.h
FN:23,26,_ZN19VecSimBatchIteratorC2EPvS0_St10shared_ptrI15VecSimAllocatorE
FN:28,28,_ZNK19VecSimBatchIterator12getQueryBlobEv
FN:30,30,_ZNK19VecSimBatchIterator13getTimeoutCtxEv
FN:32,32,_ZNK19VecSimBatchIterator15getResultsCountEv
FN:34,34,_ZN19VecSimBatchIterator18updateResultsCountEm
FN:36,36,_ZN19VecSimBatchIterator17resetResultsCountEv
FN:48,48,_ZN19VecSimBatchIteratorD0Ev
FN:48,48,_ZN19VecSimBatchIteratorD2Ev
FNDA:0,_ZN19VecSimBatchIteratorC2EPvS0_St10shared_ptrI15VecSimAllocatorE
FNDA:0,_ZNK19VecSimBatchIterator12getQueryBlobEv
FNDA:0,_ZNK19VecSimBatchIterator13getTimeoutCtxEv
FNDA:0,_ZNK19VecSimBatchIterator15getResultsCountEv
FNDA:0,_ZN19VecSimBatchIterator18updateResultsCountEm
FNDA:0,_ZN19VecSimBatchIterator17resetResultsCountEv
FNDA:0,_ZN19VecSimBatchIteratorD0Ev
FNDA:0,_ZN19VecSimBatchIteratorD2Ev
FNF:8
FNH:0
DA:23,0
DA:25,0
DA:26,0
DA:28,0
DA:30,0
DA:32,0
DA:34,0
DA:36,0
DA:48,0
LF:9
LH:0
end_of_record
TN:
SF:/home/nn/redis/FalkorDB/deps/RediSearch/deps/VectorSimilarity/src/VecSim/info_iterator.cpp
FN:13,15,VecSimInfoIterator_HasNextField
FN:17,22,VecSimInfoIterator_NextField
FN:24,28,VecSimInfoIterator_Free
FN:9,11,VecSimInfoIterator_NumberOfFields
FNDA:0,VecSimInfoIterator_HasNextField
FNDA:0,VecSimInfoIterator_NextField
FNDA:0,VecSimInfoIterator_Free
FNDA:0,VecSimInfoIterator_NumberOfFields
FNF:4
FNH:0
DA:9,0
DA:10,0
DA:13,0
DA:14,0
DA:17,0
DA:18,0
DA:19,0
DA:21,0
DA:24,0
DA:25,0
DA:26,0
DA:28,0
LF:12
LH:0
end_of_record
TN:
SF:/home/nn/redis/FalkorDB/deps/RediSearch/deps/VectorSimilarity/src/VecSim/info_iterator_struct.h
FN:18,18,_ZN18VecSimInfoIteratorC2Em
FN:20,22,_ZN18VecSimInfoIterator12addInfoFieldE16VecSim_InfoField
FN:24,24,_ZN18VecSimInfoIterator7hasNextEv
FN:26,26,_ZN18VecSimInfoIterator4nextEv
FN:28,28,_ZN18VecSimInfoIterator14numberOfFieldsEv
FN:30,30,_ZN18VecSimInfoIteratorD0Ev
FN:30,30,_ZN18VecSimInfoIteratorD2Ev
FNDA:0,_ZN18VecSimInfoIteratorC2Em
FNDA:0,_ZN18VecSimInfoIterator12addInfoFieldE16VecSim_InfoField
FNDA:0,_ZN18VecSimInfoIterator7hasNextEv
FNDA:0,_ZN18VecSimInfoIterator4nextEv
FNDA:0,_ZN18VecSimInfoIterator14numberOfFieldsEv
FNDA:0,_ZN18VecSimInfoIteratorD0Ev
FNDA:0,_ZN18VecSimInfoIteratorD2Ev
FNF:7
FNH:0
DA:18,0
DA:20,0
DA:21,0
DA:22,0
DA:24,0
DA:26,0
DA:28,0
DA:30,0
LF:8
LH:0
end_of_record
TN:
SF:/home/nn/redis/FalkorDB/deps/RediSearch/deps/VectorSimilarity/src/VecSim/memory/vecsim_base.cpp
FN:13,15,_ZN16VecsimBaseObjectnaEmSt10shared_ptrI15VecSimAllocatorE
FN:17,20,_ZN16VecsimBaseObjectdlEPvm
FN:22,25,_ZN16VecsimBaseObjectdaEPvm
FN:27,29,_ZN16VecsimBaseObjectdlEPvSt10shared_ptrI15VecSimAllocatorE
FN:30,32,_ZN16VecsimBaseObjectdaEPvSt10shared_ptrI15VecSimAllocatorE
FN:34,36,_ZdlPvSt10shared_ptrI15VecSimAllocatorE
FN:37,39,_ZdaPvSt10shared_ptrI15VecSimAllocatorE
FN:43,45,_ZdlPvmSt10shared_ptrI15VecSimAllocatorE
FN:47,49,_ZdaPvmSt10shared_ptrI15VecSimAllocatorE
FN:51,51,_ZN16VecsimBaseObject12getAllocatorEv
FN:9,11,_ZN16VecsimBaseObjectnwEmSt10shared_ptrI15VecSimAllocatorE
FNDA:0,_ZN16VecsimBaseObjectnaEmSt10shared_ptrI15VecSimAllocatorE
FNDA:0,_ZN16VecsimBaseObjectdlEPvm
FNDA:0,_ZN16VecsimBaseObjectdaEPvm
FNDA:0,_ZN16VecsimBaseObjectdlEPvSt10shared_ptrI15VecSimAllocatorE
FNDA:0,_ZN16VecsimBaseObjectdaEPvSt10shared_ptrI15VecSimAllocatorE
FNDA:0,_ZdlPvSt10shared_ptrI15VecSimAllocatorE
FNDA:0,_ZdaPvSt10shared_ptrI15VecSimAllocatorE
FNDA:0,_ZdlPvmSt10shared_ptrI15VecSimAllocatorE
FNDA:0,_ZdaPvmSt10shared_ptrI15VecSimAllocatorE
FNDA:0,_ZN16VecsimBaseObject12getAllocatorEv
FNDA:0,_ZN16VecsimBaseObjectnwEmSt10shared_ptrI15VecSimAllocatorE
FNF:11
FNH:0
DA:9,0
DA:10,0
DA:13,0
DA:14,0
DA:17,0
DA:18,0
DA:19,0
DA:20,0
DA:22,0
DA:23,0
DA:24,0
DA:25,0
DA:27,0
DA:28,0
DA:29,0
DA:30,0
DA:31,0
DA:32,0
DA:34,0
DA:35,0
DA:36,0
DA:37,0
DA:38,0
DA:39,0
DA:43,0
DA:44,0
DA:45,0
DA:47,0
DA:48,0
DA:49,0
DA:51,0
LF:31
LH:0
end_of_record
TN:
SF:/home/nn/redis/FalkorDB/deps/RediSearch/deps/VectorSimilarity/src/VecSim/memory/vecsim_base.h
FN:17,17,_ZN16VecsimBaseObjectC2ESt10shared_ptrI15VecSimAllocatorE
FN:31,31,_ZN16VecsimBaseObjectD0Ev
FN:31,31,_ZN16VecsimBaseObjectD2Ev
FNDA:0,_ZN16VecsimBaseObjectC2ESt10shared_ptrI15VecSimAllocatorE
FNDA:0,_ZN16VecsimBaseObjectD0Ev
FNDA:0,_ZN16VecsimBaseObjectD2Ev
FNF:3
FNH:0
DA:17,0
DA:31,0
LF:2
LH:0
end_of_record
TN:
SF:/home/nn/redis/FalkorDB/deps/RediSearch/deps/VectorSimilarity/src/VecSim/memory/vecsim_malloc.cpp
FN:13,16,_ZN15VecSimAllocator18newVecsimAllocatorEv
FN:25,27,_ZN15VecSimAllocator18setMemoryFunctionsE21VecSimMemoryFunctions
FN:29,37,_ZN15VecSimAllocator8allocateEm
FN:39,39,_ZN15VecSimAllocator10deallocateEPvm
FN:41,53,_ZN15VecSimAllocator10reallocateEPvm
FN:55,61,_ZN15VecSimAllocator15free_allocationEPv
FN:63,72,_ZN15VecSimAllocator9callocateEm
FN:74,74,_ZN15VecSimAllocatornwEm
FN:76,76,_ZN15VecSimAllocatornaEm
FN:77,77,_ZN15VecSimAllocatordlEPvm
FN:78,78,_ZN15VecSimAllocatordaEPvm
FN:80,80,_ZN15VecSimAllocator17getAllocationSizeEv
FNDA:0,_ZN15VecSimAllocator18newVecsimAllocatorEv
FNDA:1,_ZN15VecSimAllocator18setMemoryFunctionsE21VecSimMemoryFunctions
FNDA:0,_ZN15VecSimAllocator8allocateEm
FNDA:0,_ZN15VecSimAllocator10deallocateEPvm
FNDA:0,_ZN15VecSimAllocator10reallocateEPvm
FNDA:0,_ZN15VecSimAllocator15free_allocationEPv
FNDA:0,_ZN15VecSimAllocator9callocateEm
FNDA:0,_ZN15VecSimAllocatornwEm
FNDA:0,_ZN15VecSimAllocatornaEm
FNDA:0,_ZN15VecSimAllocatordlEPvm
FNDA:0,_ZN15VecSimAllocatordaEPvm
FNDA:0,_ZN15VecSimAllocator17getAllocationSizeEv
FNF:12
FNH:1
DA:13,0
DA:14,0
DA:15,0
DA:25,1
DA:26,1
DA:27,1
DA:29,0
DA:30,0
DA:31,0
DA:32,0
DA:33,0
DA:34,0
DA:36,0
DA:39,0
DA:41,0
DA:42,0
DA:43,0
DA:45,0
DA:46,0
DA:47,0
DA:48,0
DA:49,0
DA:50,0
DA:52,0
DA:55,0
DA:56,0
DA:57,0
DA:58,0
DA:59,0
DA:60,0
DA:63,0
DA:64,0
DA:66,0
DA:67,0
DA:68,0
DA:69,0
DA:71,0
DA:74,0
DA:76,0
DA:77,0
DA:78,0
DA:80,0
LF:42
LH:3
end_of_record
TN:
SF:/home/nn/redis/FalkorDB/deps/RediSearch/deps/VectorSimilarity/src/VecSim/memory/vecsim_malloc.h
FN:104,105,_ZN18VecsimSTLAllocatorIP11VectorBlockEC2ESt10shared_ptrI15VecSimAllocatorE
FN:104,105,_ZN18VecsimSTLAllocatorIP19VisitedNodesHandlerEC2ESt10shared_ptrI15VecSimAllocatorE
FN:104,105,_ZN18VecsimSTLAllocatorISt4pairIKdmEEC2ESt10shared_ptrI15VecSimAllocatorE
FN:104,105,_ZN18VecsimSTLAllocatorISt4pairIKfmEEC2ESt10shared_ptrI15VecSimAllocatorE
FN:104,105,_ZN18VecsimSTLAllocatorISt4pairIKmN10vecsim_stl6vectorIjEEEEC2ESt10shared_ptrI15VecSimAllocatorE
FN:104,105,_ZN18VecsimSTLAllocatorISt4pairIKmdEEC2ESt10shared_ptrI15VecSimAllocatorE
FN:104,105,_ZN18VecsimSTLAllocatorISt4pairIKmfEEC2ESt10shared_ptrI15VecSimAllocatorE
FN:104,105,_ZN18VecsimSTLAllocatorISt4pairIKmjEEC2ESt10shared_ptrI15VecSimAllocatorE
FN:104,105,_ZN18VecsimSTLAllocatorISt4pairIKmmEEC2ESt10shared_ptrI15VecSimAllocatorE
FN:104,105,_ZN18VecsimSTLAllocatorISt4pairIdjEEC2ESt10shared_ptrI15VecSimAllocatorE
FN:104,105,_ZN18VecsimSTLAllocatorISt4pairIdmEEC2ESt10shared_ptrI15VecSimAllocatorE
FN:104,105,_ZN18VecsimSTLAllocatorISt4pairIfjEEC2ESt10shared_ptrI15VecSimAllocatorE
FN:104,105,_ZN18VecsimSTLAllocatorISt4pairIfmEEC2ESt10shared_ptrI15VecSimAllocatorE
FN:104,105,_ZN18VecsimSTLAllocatorIbEC2ESt10shared_ptrI15VecSimAllocatorE
FN:104,105,_ZN18VecsimSTLAllocatorIdEC2ESt10shared_ptrI15VecSimAllocatorE
FN:104,105,_ZN18VecsimSTLAllocatorIfEC2ESt10shared_ptrI15VecSimAllocatorE
FN:104,105,_ZN18VecsimSTLAllocatorIjEC2ESt10shared_ptrI15VecSimAllocatorE
FN:104,105,_ZN18VecsimSTLAllocatorImEC2ESt10shared_ptrI15VecSimAllocatorE
FN:109,110,_ZN18VecsimSTLAllocatorINSt8__detail10_Hash_nodeISt4pairIKmN10vecsim_stl6vectorIjEEELb0EEEEC2IS7_EERKS_IT_E
FN:109,110,_ZN18VecsimSTLAllocatorINSt8__detail10_Hash_nodeISt4pairIKmdELb0EEEEC2IS4_EERKS_IT_E
FN:109,110,_ZN18VecsimSTLAllocatorINSt8__detail10_Hash_nodeISt4pairIKmfELb0EEEEC2IS4_EERKS_IT_E
FN:109,110,_ZN18VecsimSTLAllocatorINSt8__detail10_Hash_nodeISt4pairIKmjELb0EEEEC2IS4_EERKS_IT_E
FN:109,110,_ZN18VecsimSTLAllocatorINSt8__detail10_Hash_nodeISt4pairIKmmELb0EEEEC2IS4_EERKS_IT_E
FN:109,110,_ZN18VecsimSTLAllocatorINSt8__detail10_Hash_nodeImLb0EEEEC2ImEERKS_IT_E
FN:109,110,_ZN18VecsimSTLAllocatorIPNSt8__detail15_Hash_node_baseEEC2INS0_10_Hash_nodeISt4pairIKmN10vecsim_stl6vectorIjEEELb0EEEEERKS_IT_E
FN:109,110,_ZN18VecsimSTLAllocatorIPNSt8__detail15_Hash_node_baseEEC2INS0_10_Hash_nodeISt4pairIKmdELb0EEEEERKS_IT_E
FN:109,110,_ZN18VecsimSTLAllocatorIPNSt8__detail15_Hash_node_baseEEC2INS0_10_Hash_nodeISt4pairIKmfELb0EEEEERKS_IT_E
FN:109,110,_ZN18VecsimSTLAllocatorIPNSt8__detail15_Hash_node_baseEEC2INS0_10_Hash_nodeISt4pairIKmjELb0EEEEERKS_IT_E
FN:109,110,_ZN18VecsimSTLAllocatorIPNSt8__detail15_Hash_node_baseEEC2INS0_10_Hash_nodeISt4pairIKmmELb0EEEEERKS_IT_E
FN:109,110,_ZN18VecsimSTLAllocatorIPNSt8__detail15_Hash_node_baseEEC2INS0_10_Hash_nodeImLb0EEEEERKS_IT_E
FN:109,110,_ZN18VecsimSTLAllocatorIPP19VisitedNodesHandlerEC2IS1_EERKS_IT_E
FN:109,110,_ZN18VecsimSTLAllocatorISt13_Rb_tree_nodeISt4pairIKdmEEEC2IS3_EERKS_IT_E
FN:109,110,_ZN18VecsimSTLAllocatorISt13_Rb_tree_nodeISt4pairIKfmEEEC2IS3_EERKS_IT_E
FN:109,110,_ZN18VecsimSTLAllocatorISt13_Rb_tree_nodeImEEC2ImEERKS_IT_E
FN:109,110,_ZN18VecsimSTLAllocatorImEC2IbEERKS_IT_E
FN:118,118,_ZN18VecsimSTLAllocatorINSt8__detail10_Hash_nodeISt4pairIKmN10vecsim_stl6vectorIjEEELb0EEEE8allocateEm
FN:118,118,_ZN18VecsimSTLAllocatorINSt8__detail10_Hash_nodeISt4pairIKmdELb0EEEE8allocateEm
FN:118,118,_ZN18VecsimSTLAllocatorINSt8__detail10_Hash_nodeISt4pairIKmfELb0EEEE8allocateEm
FN:118,118,_ZN18VecsimSTLAllocatorINSt8__detail10_Hash_nodeISt4pairIKmjELb0EEEE8allocateEm
FN:118,118,_ZN18VecsimSTLAllocatorINSt8__detail10_Hash_nodeISt4pairIKmmELb0EEEE8allocateEm
FN:118,118,_ZN18VecsimSTLAllocatorINSt8__detail10_Hash_nodeImLb0EEEE8allocateEm
FN:118,118,_ZN18VecsimSTLAllocatorIP11VectorBlockE8allocateEm
FN:118,118,_ZN18VecsimSTLAllocatorIP19VisitedNodesHandlerE8allocateEm
FN:118,118,_ZN18VecsimSTLAllocatorIPNSt8__detail15_Hash_node_baseEE8allocateEm
FN:118,118,_ZN18VecsimSTLAllocatorIPP19VisitedNodesHandlerE8allocateEm
FN:118,118,_ZN18VecsimSTLAllocatorISt13_Rb_tree_nodeISt4pairIKdmEEE8allocateEm
FN:118,118,_ZN18VecsimSTLAllocatorISt13_Rb_tree_nodeISt4pairIKfmEEE8allocateEm
FN:118,118,_ZN18VecsimSTLAllocatorISt13_Rb_tree_nodeImEE8allocateEm
FN:118,118,_ZN18VecsimSTLAllocatorISt4pairIdjEE8allocateEm
FN:118,118,_ZN18VecsimSTLAllocatorISt4pairIdmEE8allocateEm
FN:118,118,_ZN18VecsimSTLAllocatorISt4pairIfjEE8allocateEm
FN:118,118,_ZN18VecsimSTLAllocatorISt4pairIfmEE8allocateEm
FN:118,118,_ZN18VecsimSTLAllocatorIdE8allocateEm
FN:118,118,_ZN18VecsimSTLAllocatorIfE8allocateEm
FN:118,118,_ZN18VecsimSTLAllocatorIjE8allocateEm
FN:118,118,_ZN18VecsimSTLAllocatorImE8allocateEm
FN:120,122,_ZN18VecsimSTLAllocatorINSt8__detail10_Hash_nodeISt4pairIKmN10vecsim_stl6vectorIjEEELb0EEEE10deallocateEPS8_m
FN:120,122,_ZN18VecsimSTLAllocatorINSt8__detail10_Hash_nodeISt4pairIKmdELb0EEEE10deallocateEPS5_m
FN:120,122,_ZN18VecsimSTLAllocatorINSt8__detail10_Hash_nodeISt4pairIKmfELb0EEEE10deallocateEPS5_m
FN:120,122,_ZN18VecsimSTLAllocatorINSt8__detail10_Hash_nodeISt4pairIKmjELb0EEEE10deallocateEPS5_m
FN:120,122,_ZN18VecsimSTLAllocatorINSt8__detail10_Hash_nodeISt4pairIKmmELb0EEEE10deallocateEPS5_m
FN:120,122,_ZN18VecsimSTLAllocatorINSt8__detail10_Hash_nodeImLb0EEEE10deallocateEPS2_m
FN:120,122,_ZN18VecsimSTLAllocatorIP11VectorBlockE10deallocateEPS1_m
FN:120,122,_ZN18VecsimSTLAllocatorIP19VisitedNodesHandlerE10deallocateEPS1_m
FN:120,122,_ZN18VecsimSTLAllocatorIPNSt8__detail15_Hash_node_baseEE10deallocateEPS2_m
FN:120,122,_ZN18VecsimSTLAllocatorIPP19VisitedNodesHandlerE10deallocateEPS2_m
FN:120,122,_ZN18VecsimSTLAllocatorISt13_Rb_tree_nodeISt4pairIKdmEEE10deallocateEPS4_m
FN:120,122,_ZN18VecsimSTLAllocatorISt13_Rb_tree_nodeISt4pairIKfmEEE10deallocateEPS4_m
FN:120,122,_ZN18VecsimSTLAllocatorISt13_Rb_tree_nodeImEE10deallocateEPS1_m
FN:120,122,_ZN18VecsimSTLAllocatorISt4pairIdjEE10deallocateEPS1_m
FN:120,122,_ZN18VecsimSTLAllocatorISt4pairIdmEE10deallocateEPS1_m
FN:120,122,_ZN18VecsimSTLAllocatorISt4pairIfjEE10deallocateEPS1_m
FN:120,122,_ZN18VecsimSTLAllocatorISt4pairIfmEE10deallocateEPS1_m
FN:120,122,_ZN18VecsimSTLAllocatorIdE10deallocateEPdm
FN:120,122,_ZN18VecsimSTLAllocatorIfE10deallocateEPfm
FN:120,122,_ZN18VecsimSTLAllocatorIjE10deallocateEPjm
FN:120,122,_ZN18VecsimSTLAllocatorImE10deallocateEPmm
FN:126,128,_ZeqISt4pairIdjES1_EbRK18VecsimSTLAllocatorIT_ERKS2_IT0_E
FN:126,128,_ZeqISt4pairIdmES1_EbRK18VecsimSTLAllocatorIT_ERKS2_IT0_E
FN:126,128,_ZeqISt4pairIfjES1_EbRK18VecsimSTLAllocatorIT_ERKS2_IT0_E
FN:126,128,_ZeqISt4pairIfmES1_EbRK18VecsimSTLAllocatorIT_ERKS2_IT0_E
FN:126,128,_ZeqImmEbRK18VecsimSTLAllocatorIT_ERKS0_IT0_E
FN:27,27,_ZN15VecSimAllocatorC2Ev
FN:55,55,_ZN15VecSimAllocator24getPointerAllocationSizeEPv
FN:64,64,_Z13vecsim_mallocm
FN:73,75,_Z13vecsim_callocmm
FN:84,86,_Z14vecsim_reallocPvm
FN:93,93,_Z11vecsim_freePv
FNDA:0,_ZN18VecsimSTLAllocatorIP11VectorBlockEC2ESt10shared_ptrI15VecSimAllocatorE
FNDA:0,_ZN18VecsimSTLAllocatorIP19VisitedNodesHandlerEC2ESt10shared_ptrI15VecSimAllocatorE
FNDA:0,_ZN18VecsimSTLAllocatorISt4pairIKdmEEC2ESt10shared_ptrI15VecSimAllocatorE
FNDA:0,_ZN18VecsimSTLAllocatorISt4pairIKfmEEC2ESt10shared_ptrI15VecSimAllocatorE
FNDA:0,_ZN18VecsimSTLAllocatorISt4pairIKmN10vecsim_stl6vectorIjEEEEC2ESt10shared_ptrI15VecSimAllocatorE
FNDA:0,_ZN18VecsimSTLAllocatorISt4pairIKmdEEC2ESt10shared_ptrI15VecSimAllocatorE
FNDA:0,_ZN18VecsimSTLAllocatorISt4pairIKmfEEC2ESt10shared_ptrI15VecSimAllocatorE
FNDA:0,_ZN18VecsimSTLAllocatorISt4pairIKmjEEC2ESt10shared_ptrI15VecSimAllocatorE
FNDA:0,_ZN18VecsimSTLAllocatorISt4pairIKmmEEC2ESt10shared_ptrI15VecSimAllocatorE
FNDA:0,_ZN18VecsimSTLAllocatorISt4pairIdjEEC2ESt10shared_ptrI15VecSimAllocatorE
FNDA:0,_ZN18VecsimSTLAllocatorISt4pairIdmEEC2ESt10shared_ptrI15VecSimAllocatorE
FNDA:0,_ZN18VecsimSTLAllocatorISt4pairIfjEEC2ESt10shared_ptrI15VecSimAllocatorE
FNDA:0,_ZN18VecsimSTLAllocatorISt4pairIfmEEC2ESt10shared_ptrI15VecSimAllocatorE
FNDA:0,_ZN18VecsimSTLAllocatorIbEC2ESt10shared_ptrI15VecSimAllocatorE
FNDA:0,_ZN18VecsimSTLAllocatorIdEC2ESt10shared_ptrI15VecSimAllocatorE
FNDA:0,_ZN18VecsimSTLAllocatorIfEC2ESt10shared_ptrI15VecSimAllocatorE
FNDA:0,_ZN18VecsimSTLAllocatorIjEC2ESt10shared_ptrI15VecSimAllocatorE
FNDA:0,_ZN18VecsimSTLAllocatorImEC2ESt10shared_ptrI15VecSimAllocatorE
FNDA:0,_ZN18VecsimSTLAllocatorINSt8__detail10_Hash_nodeISt4pairIKmN10vecsim_stl6vectorIjEEELb0EEEEC2IS7_EERKS_IT_E
FNDA:0,_ZN18VecsimSTLAllocatorINSt8__detail10_Hash_nodeISt4pairIKmdELb0EEEEC2IS4_EERKS_IT_E
FNDA:0,_ZN18VecsimSTLAllocatorINSt8__detail10_Hash_nodeISt4pairIKmfELb0EEEEC2IS4_EERKS_IT_E
FNDA:0,_ZN18VecsimSTLAllocatorINSt8__detail10_Hash_nodeISt4pairIKmjELb0EEEEC2IS4_EERKS_IT_E
FNDA:0,_ZN18VecsimSTLAllocatorINSt8__detail10_Hash_nodeISt4pairIKmmELb0EEEEC2IS4_EERKS_IT_E
FNDA:0,_ZN18VecsimSTLAllocatorINSt8__detail10_Hash_nodeImLb0EEEEC2ImEERKS_IT_E
FNDA:0,_ZN18VecsimSTLAllocatorIPNSt8__detail15_Hash_node_baseEEC2INS0_10_Hash_nodeISt4pairIKmN10vecsim_stl6vectorIjEEELb0EEEEERKS_IT_E
FNDA:0,_ZN18VecsimSTLAllocatorIPNSt8__detail15_Hash_node_baseEEC2INS0_10_Hash_nodeISt4pairIKmdELb0EEEEERKS_IT_E
FNDA:0,_ZN18VecsimSTLAllocatorIPNSt8__detail15_Hash_node_baseEEC2INS0_10_Hash_nodeISt4pairIKmfELb0EEEEERKS_IT_E
FNDA:0,_ZN18VecsimSTLAllocatorIPNSt8__detail15_Hash_node_baseEEC2INS0_10_Hash_nodeISt4pairIKmjELb0EEEEERKS_IT_E
FNDA:0,_ZN18VecsimSTLAllocatorIPNSt8__detail15_Hash_node_baseEEC2INS0_10_Hash_nodeISt4pairIKmmELb0EEEEERKS_IT_E
FNDA:0,_ZN18VecsimSTLAllocatorIPNSt8__detail15_Hash_node_baseEEC2INS0_10_Hash_nodeImLb0EEEEERKS_IT_E
FNDA:0,_ZN18VecsimSTLAllocatorIPP19VisitedNodesHandlerEC2IS1_EERKS_IT_E
FNDA:0,_ZN18VecsimSTLAllocatorISt13_Rb_tree_nodeISt4pairIKdmEEEC2IS3_EERKS_IT_E
FNDA:0,_ZN18VecsimSTLAllocatorISt13_Rb_tree_nodeISt4pairIKfmEEEC2IS3_EERKS_IT_E
FNDA:0,_ZN18VecsimSTLAllocatorISt13_Rb_tree_nodeImEEC2ImEERKS_IT_E
FNDA:0,_ZN18VecsimSTLAllocatorImEC2IbEERKS_IT_E
FNDA:0,_ZN18VecsimSTLAllocatorINSt8__detail10_Hash_nodeISt4pairIKmN10vecsim_stl6vectorIjEEELb0EEEE8allocateEm
FNDA:0,_ZN18VecsimSTLAllocatorINSt8__detail10_Hash_nodeISt4pairIKmdELb0EEEE8allocateEm
FNDA:0,_ZN18VecsimSTLAllocatorINSt8__detail10_Hash_nodeISt4pairIKmfELb0EEEE8allocateEm
FNDA:0,_ZN18VecsimSTLAllocatorINSt8__detail10_Hash_nodeISt4pairIKmjELb0EEEE8allocateEm
FNDA:0,_ZN18VecsimSTLAllocatorINSt8__detail10_Hash_nodeISt4pairIKmmELb0EEEE8allocateEm
FNDA:0,_ZN18VecsimSTLAllocatorINSt8__detail10_Hash_nodeImLb0EEEE8allocateEm
FNDA:0,_ZN18VecsimSTLAllocatorIP11VectorBlockE8allocateEm
FNDA:0,_ZN18VecsimSTLAllocatorIP19VisitedNodesHandlerE8allocateEm
FNDA:0,_ZN18VecsimSTLAllocatorIPNSt8__detail15_Hash_node_baseEE8allocateEm
FNDA:0,_ZN18VecsimSTLAllocatorIPP19VisitedNodesHandlerE8allocateEm
FNDA:0,_ZN18VecsimSTLAllocatorISt13_Rb_tree_nodeISt4pairIKdmEEE8allocateEm
FNDA:0,_ZN18VecsimSTLAllocatorISt13_Rb_tree_nodeISt4pairIKfmEEE8allocateEm
FNDA:0,_ZN18VecsimSTLAllocatorISt13_Rb_tree_nodeImEE8allocateEm
FNDA:0,_ZN18VecsimSTLAllocatorISt4pairIdjEE8allocateEm
FNDA:0,_ZN18VecsimSTLAllocatorISt4pairIdmEE8allocateEm
FNDA:0,_ZN18VecsimSTLAllocatorISt4pairIfjEE8allocateEm
FNDA:0,_ZN18VecsimSTLAllocatorISt4pairIfmEE8allocateEm
FNDA:0,_ZN18VecsimSTLAllocatorIdE8allocateEm
FNDA:0,_ZN18VecsimSTLAllocatorIfE8allocateEm
FNDA:0,_ZN18VecsimSTLAllocatorIjE8allocateEm
FNDA:0,_ZN18VecsimSTLAllocatorImE8allocateEm
FNDA:0,_ZN18VecsimSTLAllocatorINSt8__detail10_Hash_nodeISt4pairIKmN10vecsim_stl6vectorIjEEELb0EEEE10deallocateEPS8_m
FNDA:0,_ZN18VecsimSTLAllocatorINSt8__detail10_Hash_nodeISt4pairIKmdELb0EEEE10deallocateEPS5_m
FNDA:0,_ZN18VecsimSTLAllocatorINSt8__detail10_Hash_nodeISt4pairIKmfELb0EEEE10deallocateEPS5_m
FNDA:0,_ZN18VecsimSTLAllocatorINSt8__detail10_Hash_nodeISt4pairIKmjELb0EEEE10deallocateEPS5_m
FNDA:0,_ZN18VecsimSTLAllocatorINSt8__detail10_Hash_nodeISt4pairIKmmELb0EEEE10deallocateEPS5_m
FNDA:0,_ZN18VecsimSTLAllocatorINSt8__detail10_Hash_nodeImLb0EEEE10deallocateEPS2_m
FNDA:0,_ZN18VecsimSTLAllocatorIP11VectorBlockE10deallocateEPS1_m
FNDA:0,_ZN18VecsimSTLAllocatorIP19VisitedNodesHandlerE10deallocateEPS1_m
FNDA:0,_ZN18VecsimSTLAllocatorIPNSt8__detail15_Hash_node_baseEE10deallocateEPS2_m
FNDA:0,_ZN18VecsimSTLAllocatorIPP19VisitedNodesHandlerE10deallocateEPS2_m
FNDA:0,_ZN18VecsimSTLAllocatorISt13_Rb_tree_nodeISt4pairIKdmEEE10deallocateEPS4_m
FNDA:0,_ZN18VecsimSTLAllocatorISt13_Rb_tree_nodeISt4pairIKfmEEE10deallocateEPS4_m
FNDA:0,_ZN18VecsimSTLAllocatorISt13_Rb_tree_nodeImEE10deallocateEPS1_m
FNDA:0,_ZN18VecsimSTLAllocatorISt4pairIdjEE10deallocateEPS1_m
FNDA:0,_ZN18VecsimSTLAllocatorISt4pairIdmEE10deallocateEPS1_m
FNDA:0,_ZN18VecsimSTLAllocatorISt4pairIfjEE10deallocateEPS1_m
FNDA:0,_ZN18VecsimSTLAllocatorISt4pairIfmEE10deallocateEPS1_m
FNDA:0,_ZN18VecsimSTLAllocatorIdE10deallocateEPdm
FNDA:0,_ZN18VecsimSTLAllocatorIfE10deallocateEPfm
FNDA:0,_ZN18VecsimSTLAllocatorIjE10deallocateEPjm
FNDA:0,_ZN18VecsimSTLAllocatorImE10deallocateEPmm
FNDA:0,_ZeqISt4pairIdjES1_EbRK18VecsimSTLAllocatorIT_ERKS2_IT0_E
FNDA:0,_ZeqISt4pairIdmES1_EbRK18VecsimSTLAllocatorIT_ERKS2_IT0_E
FNDA:0,_ZeqISt4pairIfjES1_EbRK18VecsimSTLAllocatorIT_ERKS2_IT0_E
FNDA:0,_ZeqISt4pairIfmES1_EbRK18VecsimSTLAllocatorIT_ERKS2_IT0_E
FNDA:0,_ZeqImmEbRK18VecsimSTLAllocatorIT_ERKS0_IT0_E
FNDA:0,_ZN15VecSimAllocatorC2Ev
FNDA:0,_ZN15VecSimAllocator24getPointerAllocationSizeEPv
FNDA:0,_Z13vecsim_mallocm
FNDA:0,_Z13vecsim_callocmm
FNDA:0,_Z14vecsim_reallocPvm
FNDA:0,_Z11vecsim_freePv
FNF:88
FNH:0
DA:27,0
DA:55,0
DA:64,0
DA:73,0
DA:74,0
DA:84,0
DA:85,0
DA:93,0
DA:104,0
DA:105,0
DA:109,0
DA:110,0
DA:118,0
DA:120,0
DA:121,0
DA:122,0
DA:126,0
DA:127,0
LF:18
LH:0
end_of_record
TN:
SF:/home/nn/redis/FalkorDB/deps/RediSearch/deps/VectorSimilarity/src/VecSim/query_result_struct.cpp
FN:12,12,_Z23VecSimQueryResult_SetIdR17VecSimQueryResultm
FN:14,14,_Z26VecSimQueryResult_SetScoreR17VecSimQueryResultd
FNDA:0,_Z23VecSimQueryResult_SetIdR17VecSimQueryResultm
FNDA:0,_Z26VecSimQueryResult_SetScoreR17VecSimQueryResultd
FNF:2
FNH:0
DA:12,0
DA:14,0
LF:2
LH:0
end_of_record
TN:
SF:/home/nn/redis/FalkorDB/deps/RediSearch/deps/VectorSimilarity/src/VecSim/query_results.cpp
FN:17,19,_ZN26VecSimQueryResult_IteratorC2E22VecSimQueryResult_List
FN:22,22,VecSimQueryResult_Len
FN:24,26,VecSimQueryResult_GetArray
FN:28,28,VecSimQueryResult_ArrayLen
FN:30,35,VecSimQueryResult_Free
FN:37,41,VecSimQueryResult_FreeArray
FN:44,46,VecSimQueryResult_List_GetIterator
FN:48,50,VecSimQueryResult_IteratorHasNext
FN:52,60,VecSimQueryResult_IteratorNext
FN:62,67,VecSimQueryResult_GetId
FN:69,74,VecSimQueryResult_GetScore
FN:76,78,VecSimQueryResult_IteratorFree
FN:80,82,VecSimQueryResult_IteratorReset
FN:85,88,VecSimBatchIterator_Next
FN:90,90,VecSimBatchIterator_HasNext
FN:92,97,VecSimBatchIterator_Free
FN:99,99,VecSimBatchIterator_Reset
FNDA:0,_ZN26VecSimQueryResult_IteratorC2E22VecSimQueryResult_List
FNDA:0,VecSimQueryResult_Len
FNDA:0,VecSimQueryResult_GetArray
FNDA:0,VecSimQueryResult_ArrayLen
FNDA:0,VecSimQueryResult_Free
FNDA:0,VecSimQueryResult_FreeArray
FNDA:0,VecSimQueryResult_List_GetIterator
FNDA:0,VecSimQueryResult_IteratorHasNext
FNDA:0,VecSimQueryResult_IteratorNext
FNDA:0,VecSimQueryResult_GetId
FNDA:0,VecSimQueryResult_GetScore
FNDA:0,VecSimQueryResult_IteratorFree
FNDA:0,VecSimQueryResult_IteratorReset
FNDA:0,VecSimBatchIterator_Next
FNDA:0,VecSimBatchIterator_HasNext
FNDA:0,VecSimBatchIterator_Free
FNDA:0,VecSimBatchIterator_Reset
FNF:17
FNH:0
DA:17,0
DA:18,0
DA:19,0
DA:22,0
DA:24,0
DA:25,0
DA:28,0
DA:30,0
DA:31,0
DA:32,0
DA:33,0
DA:35,0
DA:37,0
DA:38,0
DA:39,0
DA:41,0
DA:44,0
DA:45,0
DA:48,0
DA:49,0
DA:52,0
DA:53,0
DA:54,0
DA:56,0
DA:57,0
DA:59,0
DA:62,0
DA:63,0
DA:64,0
DA:66,0
DA:69,0
DA:70,0
DA:71,0
DA:73,0
DA:76,0
DA:77,0
DA:78,0
DA:80,0
DA:81,0
DA:82,0
DA:85,0
DA:87,0
DA:90,0
DA:92,0
DA:95,0
DA:96,0
DA:97,0
DA:99,0
LF:48
LH:0
end_of_record
TN:
SF:/home/nn/redis/FalkorDB/deps/RediSearch/deps/VectorSimilarity/src/VecSim/spaces/IP/IP.cpp
FN:20,22,_Z17FP32_InnerProductPKvS0_m
FN:24,33,_Z22FP64_InnerProduct_implPKvS0_m
FN:35,37,_Z17FP64_InnerProductPKvS0_m
FN:9,18,_Z22FP32_InnerProduct_implPKvS0_m
FNDA:0,_Z17FP32_InnerProductPKvS0_m
FNDA:0,_Z22FP64_InnerProduct_implPKvS0_m
FNDA:0,_Z17FP64_InnerProductPKvS0_m
FNDA:0,_Z22FP32_InnerProduct_implPKvS0_m
FNF:4
FNH:0
DA:9,0
DA:10,0
DA:11,0
DA:13,0
DA:14,0
DA:15,0
DA:17,0
DA:20,0
DA:21,0
DA:24,0
DA:25,0
DA:26,0
DA:28,0
DA:29,0
DA:30,0
DA:32,0
DA:35,0
DA:36,0
LF:18
LH:0
end_of_record
TN:
SF:/home/nn/redis/FalkorDB/deps/RediSearch/deps/VectorSimilarity/src/VecSim/spaces/IP/IP_AVX512DQ_FP64.cpp
FN:11,46,_Z37FP64_InnerProductSIMD2Ext_AVX512_implPKvS0_m
FN:48,50,_Z32FP64_InnerProductSIMD2Ext_AVX512PKvS0_m
FN:52,62,_Z41FP64_InnerProductSIMD2ExtResiduals_AVX512PKvS0_m
FNDA:0,_Z37FP64_InnerProductSIMD2Ext_AVX512_implPKvS0_m
FNDA:0,_Z32FP64_InnerProductSIMD2Ext_AVX512PKvS0_m
FNDA:0,_Z41FP64_InnerProductSIMD2ExtResiduals_AVX512PKvS0_m
FNF:3
FNH:0
DA:11,0
DA:12,0
DA:13,0
DA:15,0
DA:17,0
DA:18,0
DA:20,0
DA:22,0
DA:24,0
DA:25,0
DA:26,0
DA:27,0
DA:28,0
DA:32,0
DA:33,0
DA:35,0
DA:36,0
DA:37,0
DA:38,0
DA:39,0
DA:40,0
DA:45,0
DA:48,0
DA:49,0
DA:52,0
DA:54,0
DA:55,0
DA:56,0
DA:57,0
DA:59,0
DA:60,0
DA:61,0
LF:32
LH:0
end_of_record
TN:
SF:/home/nn/redis/FalkorDB/deps/RediSearch/deps/VectorSimilarity/src/VecSim/spaces/IP/IP_AVX512_FP32.cpp
FN:11,29,_Z38FP32_InnerProductSIMD16Ext_AVX512_implPKvS0_m
FN:31,33,_Z33FP32_InnerProductSIMD16Ext_AVX512PKvS0_m
FN:35,72,_Z37FP32_InnerProductSIMD4Ext_AVX512_implPKvS0_m
FN:74,76,_Z32FP32_InnerProductSIMD4Ext_AVX512PKvS0_m
FN:78,88,_Z42FP32_InnerProductSIMD16ExtResiduals_AVX512PKvS0_m
FN:90,100,_Z41FP32_InnerProductSIMD4ExtResiduals_AVX512PKvS0_m
FNDA:0,_Z38FP32_InnerProductSIMD16Ext_AVX512_implPKvS0_m
FNDA:0,_Z33FP32_InnerProductSIMD16Ext_AVX512PKvS0_m
FNDA:0,_Z37FP32_InnerProductSIMD4Ext_AVX512_implPKvS0_m
FNDA:0,_Z32FP32_InnerProductSIMD4Ext_AVX512PKvS0_m
FNDA:0,_Z42FP32_InnerProductSIMD16ExtResiduals_AVX512PKvS0_m
FNDA:0,_Z41FP32_InnerProductSIMD4ExtResiduals_AVX512PKvS0_m
FNF:6
FNH:0
DA:11,0
DA:12,0
DA:13,0
DA:15,0
DA:17,0
DA:19,0
DA:21,0
DA:22,0
DA:23,0
DA:24,0
DA:25,0
DA:28,0
DA:31,0
DA:32,0
DA:35,0
DA:36,0
DA:37,0
DA:39,0
DA:41,0
DA:42,0
DA:44,0
DA:46,0
DA:48,0
DA:49,0
DA:50,0
DA:51,0
DA:52,0
DA:56,0
DA:57,0
DA:59,0
DA:60,0
DA:61,0
DA:62,0
DA:63,0
DA:64,0
DA:69,0
DA:71,0
DA:74,0
DA:75,0
DA:78,0
DA:80,0
DA:81,0
DA:82,0
DA:83,0
DA:85,0
DA:86,0
DA:87,0
DA:90,0
DA:92,0
DA:93,0
DA:94,0
DA:95,0
DA:97,0
DA:98,0
DA:99,0
LF:55
LH:0
end_of_record
TN:
SF:/home/nn/redis/FalkorDB/deps/RediSearch/deps/VectorSimilarity/src/VecSim/spaces/IP/IP_AVX512_FP64.cpp
FN:11,30,_Z37FP64_InnerProductSIMD8Ext_AVX512_implPKvS0_m
FN:32,34,_Z32FP64_InnerProductSIMD8Ext_AVX512PKvS0_m
FN:36,46,_Z41FP64_InnerProductSIMD8ExtResiduals_AVX512PKvS0_m
FN:48,85,_Z42FP64_InnerProductSIMD2Ext_AVX512_noDQ_implPKvS0_m
FN:87,89,_Z37FP64_InnerProductSIMD2Ext_AVX512_noDQPKvS0_m
FN:91,101,_Z46FP64_InnerProductSIMD2ExtResiduals_AVX512_noDQPKvS0_m
FNDA:0,_Z37FP64_InnerProductSIMD8Ext_AVX512_implPKvS0_m
FNDA:0,_Z32FP64_InnerProductSIMD8Ext_AVX512PKvS0_m
FNDA:0,_Z41FP64_InnerProductSIMD8ExtResiduals_AVX512PKvS0_m
FNDA:0,_Z42FP64_InnerProductSIMD2Ext_AVX512_noDQ_implPKvS0_m
FNDA:0,_Z37FP64_InnerProductSIMD2Ext_AVX512_noDQPKvS0_m
FNDA:0,_Z46FP64_InnerProductSIMD2ExtResiduals_AVX512_noDQPKvS0_m
FNF:6
FNH:0
DA:11,0
DA:12,0
DA:13,0
DA:15,0
DA:17,0
DA:20,0
DA:22,0
DA:23,0
DA:24,0
DA:25,0
DA:26,0
DA:29,0
DA:32,0
DA:33,0
DA:36,0
DA:38,0
DA:39,0
DA:40,0
DA:41,0
DA:43,0
DA:44,0
DA:45,0
DA:48,0
DA:50,0
DA:51,0
DA:53,0
DA:55,0
DA:56,0
DA:58,0
DA:60,0
DA:62,0
DA:63,0
DA:64,0
DA:65,0
DA:66,0
DA:70,0
DA:73,0
DA:74,0
DA:75,0
DA:76,0
DA:77,0
DA:78,0
DA:79,0
DA:84,0
DA:87,0
DA:88,0
DA:91,0
DA:93,0
DA:94,0
DA:95,0
DA:96,0
DA:98,0
DA:99,0
DA:100,0
LF:54
LH:0
end_of_record
TN:
SF:/home/nn/redis/FalkorDB/deps/RediSearch/deps/VectorSimilarity/src/VecSim/spaces/IP/IP_AVX_FP32.cpp
FN:11,40,_Z35FP32_InnerProductSIMD16Ext_AVX_implPKvS0_m
FN:112,124,_Z38FP32_InnerProductSIMD4ExtResiduals_AVXPKvS0_m
FN:42,44,_Z30FP32_InnerProductSIMD16Ext_AVXPKvS0_m
FN:46,92,_Z34FP32_InnerProductSIMD4Ext_AVX_implPKvS0_m
FN:94,96,_Z29FP32_InnerProductSIMD4Ext_AVXPKvS0_m
FN:98,110,_Z39FP32_InnerProductSIMD16ExtResiduals_AVXPKvS0_m
FNDA:0,_Z35FP32_InnerProductSIMD16Ext_AVX_implPKvS0_m
FNDA:0,_Z38FP32_InnerProductSIMD4ExtResiduals_AVXPKvS0_m
FNDA:0,_Z30FP32_InnerProductSIMD16Ext_AVXPKvS0_m
FNDA:0,_Z34FP32_InnerProductSIMD4Ext_AVX_implPKvS0_m
FNDA:0,_Z29FP32_InnerProductSIMD4Ext_AVXPKvS0_m
FNDA:0,_Z39FP32_InnerProductSIMD16ExtResiduals_AVXPKvS0_m
FNF:6
FNH:0
DA:11,0
DA:12,0
DA:13,0
DA:15,0
DA:17,0
DA:20,0
DA:21,0
DA:22,0
DA:23,0
DA:24,0
DA:25,0
DA:27,0
DA:28,0
DA:29,0
DA:30,0
DA:31,0
DA:36,0
DA:37,0
DA:39,0
DA:42,0
DA:43,0
DA:46,0
DA:47,0
DA:48,0
DA:51,0
DA:53,0
DA:54,0
DA:56,0
DA:59,0
DA:61,0
DA:62,0
DA:63,0
DA:64,0
DA:65,0
DA:67,0
DA:68,0
DA:69,0
DA:70,0
DA:71,0
DA:76,0
DA:79,0
DA:80,0
DA:81,0
DA:82,0
DA:83,0
DA:84,0
DA:89,0
DA:91,0
DA:94,0
DA:95,0
DA:98,0
DA:101,0
DA:102,0
DA:103,0
DA:104,0
DA:107,0
DA:108,0
DA:109,0
DA:112,0
DA:114,0
DA:116,0
DA:117,0
DA:119,0
DA:120,0
DA:121,0
DA:123,0
LF:66
LH:0
end_of_record
TN:
SF:/home/nn/redis/FalkorDB/deps/RediSearch/deps/VectorSimilarity/src/VecSim/spaces/IP/IP_AVX_FP64.cpp
FN:107,120,_Z38FP64_InnerProductSIMD2ExtResiduals_AVXPKvS0_m
FN:11,36,_Z34FP64_InnerProductSIMD8Ext_AVX_implPKvS0_m
FN:38,40,_Z29FP64_InnerProductSIMD8Ext_AVXPKvS0_m
FN:42,86,_Z34FP64_InnerProductSIMD2Ext_AVX_implPKvS0_m
FN:88,90,_Z29FP64_InnerProductSIMD2Ext_AVXPKvS0_m
FN:92,105,_Z38FP64_InnerProductSIMD8ExtResiduals_AVXPKvS0_m
FNDA:0,_Z38FP64_InnerProductSIMD2ExtResiduals_AVXPKvS0_m
FNDA:0,_Z34FP64_InnerProductSIMD8Ext_AVX_implPKvS0_m
FNDA:0,_Z29FP64_InnerProductSIMD8Ext_AVXPKvS0_m
FNDA:0,_Z34FP64_InnerProductSIMD2Ext_AVX_implPKvS0_m
FNDA:0,_Z29FP64_InnerProductSIMD2Ext_AVXPKvS0_m
FNDA:0,_Z38FP64_InnerProductSIMD8ExtResiduals_AVXPKvS0_m
FNF:6
FNH:0
DA:11,0
DA:12,0
DA:13,0
DA:15,0
DA:17,0
DA:19,0
DA:20,0
DA:21,0
DA:22,0
DA:23,0
DA:24,0
DA:26,0
DA:27,0
DA:28,0
DA:29,0
DA:30,0
DA:35,0
DA:38,0
DA:39,0
DA:42,0
DA:43,0
DA:44,0
DA:47,0
DA:49,0
DA:50,0
DA:52,0
DA:55,0
DA:57,0
DA:58,0
DA:59,0
DA:60,0
DA:61,0
DA:63,0
DA:64,0
DA:65,0
DA:66,0
DA:67,0
DA:72,0
DA:75,0
DA:76,0
DA:77,0
DA:78,0
DA:79,0
DA:80,0
DA:85,0
DA:88,0
DA:89,0
DA:92,0
DA:95,0
DA:97,0
DA:98,0
DA:99,0
DA:102,0
DA:103,0
DA:104,0
DA:107,0
DA:110,0
DA:112,0
DA:113,0
DA:115,0
DA:116,0
DA:117,0
DA:119,0
LF:63
LH:0
end_of_record
TN:
SF:/home/nn/redis/FalkorDB/deps/RediSearch/deps/VectorSimilarity/src/VecSim/spaces/IP/IP_SSE_FP32.cpp
FN:11,52,_Z35FP32_InnerProductSIMD16Ext_SSE_implPKvS0_m
FN:128,130,_Z29FP32_InnerProductSIMD4Ext_SSEPKvS0_m
FN:132,145,_Z38FP32_InnerProductSIMD4ExtResiduals_SSEPKvS0_m
FN:54,56,_Z30FP32_InnerProductSIMD16Ext_SSEPKvS0_m
FN:58,70,_Z39FP32_InnerProductSIMD16ExtResiduals_SSEPKvS0_m
FN:72,126,_Z34FP32_InnerProductSIMD4Ext_SSE_implPKvS0_m
FNDA:0,_Z35FP32_InnerProductSIMD16Ext_SSE_implPKvS0_m
FNDA:0,_Z29FP32_InnerProductSIMD4Ext_SSEPKvS0_m
FNDA:0,_Z38FP32_InnerProductSIMD4ExtResiduals_SSEPKvS0_m
FNDA:0,_Z30FP32_InnerProductSIMD16Ext_SSEPKvS0_m
FNDA:0,_Z39FP32_InnerProductSIMD16ExtResiduals_SSEPKvS0_m
FNDA:0,_Z34FP32_InnerProductSIMD4Ext_SSE_implPKvS0_m
FNF:6
FNH:0
DA:11,0
DA:12,0
DA:13,0
DA:15,0
DA:18,0
DA:21,0
DA:22,0
DA:23,0
DA:24,0
DA:25,0
DA:26,0
DA:28,0
DA:29,0
DA:30,0
DA:31,0
DA:32,0
DA:34,0
DA:35,0
DA:36,0
DA:37,0
DA:38,0
DA:40,0
DA:41,0
DA:42,0
DA:43,0
DA:44,0
DA:51,0
DA:54,0
DA:55,0
DA:58,0
DA:61,0
DA:62,0
DA:63,0
DA:64,0
DA:67,0
DA:68,0
DA:69,0
DA:72,0
DA:73,0
DA:74,0
DA:77,0
DA:78,0
DA:80,0
DA:83,0
DA:86,0
DA:87,0
DA:88,0
DA:89,0
DA:90,0
DA:91,0
DA:93,0
DA:94,0
DA:95,0
DA:96,0
DA:97,0
DA:99,0
DA:100,0
DA:101,0
DA:102,0
DA:103,0
DA:105,0
DA:106,0
DA:107,0
DA:108,0
DA:109,0
DA:113,0
DA:114,0
DA:115,0
DA:116,0
DA:117,0
DA:118,0
DA:125,0
DA:128,0
DA:129,0
DA:132,0
DA:134,0
DA:136,0
DA:137,0
DA:138,0
DA:141,0
DA:142,0
DA:144,0
LF:82
LH:0
end_of_record
TN:
SF:/home/nn/redis/FalkorDB/deps/RediSearch/deps/VectorSimilarity/src/VecSim/spaces/IP/IP_SSE_FP64.cpp
FN:11,52,_Z34FP64_InnerProductSIMD8Ext_SSE_implPKvS0_m
FN:126,128,_Z29FP64_InnerProductSIMD2Ext_SSEPKvS0_m
FN:130,144,_Z38FP64_InnerProductSIMD2ExtResiduals_SSEPKvS0_m
FN:54,56,_Z29FP64_InnerProductSIMD8Ext_SSEPKvS0_m
FN:58,68,_Z38FP64_InnerProductSIMD8ExtResiduals_SSEPKvS0_m
FN:70,124,_Z34FP64_InnerProductSIMD2Ext_SSE_implPKvS0_m
FNDA:0,_Z34FP64_InnerProductSIMD8Ext_SSE_implPKvS0_m
FNDA:0,_Z29FP64_InnerProductSIMD2Ext_SSEPKvS0_m
FNDA:0,_Z38FP64_InnerProductSIMD2ExtResiduals_SSEPKvS0_m
FNDA:0,_Z29FP64_InnerProductSIMD8Ext_SSEPKvS0_m
FNDA:0,_Z38FP64_InnerProductSIMD8ExtResiduals_SSEPKvS0_m
FNDA:0,_Z34FP64_InnerProductSIMD2Ext_SSE_implPKvS0_m
FNF:6
FNH:0
DA:11,0
DA:13,0
DA:14,0
DA:16,0
DA:19,0
DA:22,0
DA:23,0
DA:24,0
DA:25,0
DA:26,0
DA:27,0
DA:29,0
DA:30,0
DA:31,0
DA:32,0
DA:33,0
DA:35,0
DA:36,0
DA:37,0
DA:38,0
DA:39,0
DA:41,0
DA:42,0
DA:43,0
DA:44,0
DA:45,0
DA:51,0
DA:54,0
DA:55,0
DA:58,0
DA:60,0
DA:61,0
DA:62,0
DA:63,0
DA:65,0
DA:66,0
DA:67,0
DA:70,0
DA:71,0
DA:72,0
DA:75,0
DA:76,0
DA:78,0
DA:81,0
DA:84,0
DA:85,0
DA:86,0
DA:87,0
DA:88,0
DA:89,0
DA:91,0
DA:92,0
DA:93,0
DA:94,0
DA:95,0
DA:97,0
DA:98,0
DA:99,0
DA:100,0
DA:101,0
DA:103,0
DA:104,0
DA:105,0
DA:106,0
DA:107,0
DA:111,0
DA:112,0
DA:113,0
DA:114,0
DA:115,0
DA:116,0
DA:123,0
DA:126,0
DA:127,0
DA:130,0
DA:133,0
DA:135,0
DA:136,0
DA:137,0
DA:140,0
DA:141,0
DA:143,0
LF:82
LH:0
end_of_record
TN:
SF:/home/nn/redis/FalkorDB/deps/RediSearch/deps/VectorSimilarity/src/VecSim/spaces/IP_space.cpp
FN:17,62,_ZN6spaces19IP_FP32_GetDistFuncEm
FN:64,124,_ZN6spaces19IP_FP64_GetDistFuncEm
FNDA:0,_ZN6spaces19IP_FP32_GetDistFuncEm
FNDA:0,_ZN6spaces19IP_FP64_GetDistFuncEm
FNF:2
FNH:0
DA:17,0
DA:19,0
DA:23,0
DA:24,0
DA:25,0
DA:26,0
DA:27,0
DA:35,0
DA:36,0
DA:38,0
DA:45,0
DA:46,0
DA:49,0
DA:56,0
DA:57,0
DA:61,0
DA:64,0
DA:66,0
DA:70,0
DA:71,0
DA:72,0
DA:73,0
DA:74,0
DA:81,0
DA:82,0
DA:84,0
DA:97,0
DA:98,0
DA:100,0
DA:107,0
DA:108,0
DA:111,0
DA:118,0
DA:119,0
DA:123,0
LF:35
LH:0
end_of_record
TN:
SF:/home/nn/redis/FalkorDB/deps/RediSearch/deps/VectorSimilarity/src/VecSim/spaces/L2/L2.cpp
FN:21,31,_Z10FP64_L2SqrPKvS0_m
FN:9,19,_Z10FP32_L2SqrPKvS0_m
FNDA:0,_Z10FP64_L2SqrPKvS0_m
FNDA:0,_Z10FP32_L2SqrPKvS0_m
FNF:2
FNH:0
DA:9,0
DA:10,0
DA:11,0
DA:13,0
DA:14,0
DA:15,0
DA:16,0
DA:18,0
DA:21,0
DA:22,0
DA:23,0
DA:25,0
DA:26,0
DA:27,0
DA:28,0
DA:30,0
LF:16
LH:0
end_of_record
TN:
SF:/home/nn/redis/FalkorDB/deps/RediSearch/deps/VectorSimilarity/src/VecSim/spaces/L2/L2_AVX512DQ_FP64.cpp
FN:11,50,_Z25FP64_L2SqrSIMD2Ext_AVX512PKvS0_m
FN:52,63,_Z34FP64_L2SqrSIMD2ExtResiduals_AVX512PKvS0_m
FNDA:0,_Z25FP64_L2SqrSIMD2Ext_AVX512PKvS0_m
FNDA:0,_Z34FP64_L2SqrSIMD2ExtResiduals_AVX512PKvS0_m
FNF:2
FNH:0
DA:11,0
DA:12,0
DA:13,0
DA:15,0
DA:17,0
DA:18,0
DA:21,0
DA:24,0
DA:25,0
DA:26,0
DA:27,0
DA:28,0
DA:29,0
DA:30,0
DA:34,0
DA:35,0
DA:38,0
DA:39,0
DA:40,0
DA:41,0
DA:42,0
DA:43,0
DA:44,0
DA:49,0
DA:52,0
DA:54,0
DA:55,0
DA:56,0
DA:57,0
DA:60,0
DA:61,0
DA:62,0
LF:32
LH:0
end_of_record
TN:
SF:/home/nn/redis/FalkorDB/deps/RediSearch/deps/VectorSimilarity/src/VecSim/spaces/L2/L2_AVX512_FP32.cpp
FN:11,32,_Z26FP32_L2SqrSIMD16Ext_AVX512PKvS0_m
FN:34,73,_Z25FP32_L2SqrSIMD4Ext_AVX512PKvS0_m
FN:75,86,_Z35FP32_L2SqrSIMD16ExtResiduals_AVX512PKvS0_m
FN:88,99,_Z34FP32_L2SqrSIMD4ExtResiduals_AVX512PKvS0_m
FNDA:0,_Z26FP32_L2SqrSIMD16Ext_AVX512PKvS0_m
FNDA:0,_Z25FP32_L2SqrSIMD4Ext_AVX512PKvS0_m
FNDA:0,_Z35FP32_L2SqrSIMD16ExtResiduals_AVX512PKvS0_m
FNDA:0,_Z34FP32_L2SqrSIMD4ExtResiduals_AVX512PKvS0_m
FNF:4
FNH:0
DA:11,0
DA:12,0
DA:13,0
DA:15,0
DA:18,0
DA:21,0
DA:22,0
DA:23,0
DA:24,0
DA:25,0
DA:26,0
DA:28,0
DA:31,0
DA:34,0
DA:35,0
DA:36,0
DA:38,0
DA:40,0
DA:41,0
DA:44,0
DA:47,0
DA:48,0
DA:49,0
DA:50,0
DA:51,0
DA:52,0
DA:53,0
DA:57,0
DA:58,0
DA:61,0
DA:62,0
DA:63,0
DA:64,0
DA:65,0
DA:66,0
DA:67,0
DA:72,0
DA:75,0
DA:77,0
DA:78,0
DA:79,0
DA:80,0
DA:83,0
DA:84,0
DA:85,0
DA:88,0
DA:90,0
DA:91,0
DA:92,0
DA:93,0
DA:96,0
DA:97,0
DA:98,0
LF:53
LH:0
end_of_record
TN:
SF:/home/nn/redis/FalkorDB/deps/RediSearch/deps/VectorSimilarity/src/VecSim/spaces/L2/L2_AVX512_FP64.cpp
FN:12,32,_Z25FP64_L2SqrSIMD8Ext_AVX512PKvS0_m
FN:34,45,_Z34FP64_L2SqrSIMD8ExtResiduals_AVX512PKvS0_m
FN:47,86,_Z30FP64_L2SqrSIMD2Ext_AVX512_noDQPKvS0_m
FN:88,98,_Z39FP64_L2SqrSIMD2ExtResiduals_AVX512_noDQPKvS0_m
FNDA:0,_Z25FP64_L2SqrSIMD8Ext_AVX512PKvS0_m
FNDA:0,_Z34FP64_L2SqrSIMD8ExtResiduals_AVX512PKvS0_m
FNDA:0,_Z30FP64_L2SqrSIMD2Ext_AVX512_noDQPKvS0_m
FNDA:0,_Z39FP64_L2SqrSIMD2ExtResiduals_AVX512_noDQPKvS0_m
FNF:4
FNH:0
DA:12,0
DA:13,0
DA:14,0
DA:16,0
DA:19,0
DA:22,0
DA:23,0
DA:24,0
DA:25,0
DA:26,0
DA:27,0
DA:28,0
DA:31,0
DA:34,0
DA:36,0
DA:37,0
DA:38,0
DA:39,0
DA:42,0
DA:43,0
DA:44,0
DA:47,0
DA:48,0
DA:49,0
DA:51,0
DA:53,0
DA:54,0
DA:57,0
DA:60,0
DA:61,0
DA:62,0
DA:63,0
DA:64,0
DA:65,0
DA:66,0
DA:70,0
DA:73,0
DA:74,0
DA:75,0
DA:76,0
DA:77,0
DA:78,0
DA:79,0
DA:80,0
DA:85,0
DA:88,0
DA:90,0
DA:91,0
DA:92,0
DA:93,0
DA:95,0
DA:96,0
DA:97,0
LF:53
LH:0
end_of_record
TN:
SF:/home/nn/redis/FalkorDB/deps/RediSearch/deps/VectorSimilarity/src/VecSim/spaces/L2/L2_AVX_FP32.cpp
FN:104,115,_Z31FP32_L2SqrSIMD4ExtResiduals_AVXPKvS0_m
FN:11,41,_Z23FP32_L2SqrSIMD16Ext_AVXPKvS0_m
FN:43,89,_Z22FP32_L2SqrSIMD4Ext_AVXPKvS0_m
FN:91,102,_Z32FP32_L2SqrSIMD16ExtResiduals_AVXPKvS0_m
FNDA:0,_Z31FP32_L2SqrSIMD4ExtResiduals_AVXPKvS0_m
FNDA:0,_Z23FP32_L2SqrSIMD16Ext_AVXPKvS0_m
FNDA:0,_Z22FP32_L2SqrSIMD4Ext_AVXPKvS0_m
FNDA:0,_Z32FP32_L2SqrSIMD16ExtResiduals_AVXPKvS0_m
FNF:4
FNH:0
DA:11,0
DA:12,0
DA:13,0
DA:15,0
DA:18,0
DA:21,0
DA:22,0
DA:23,0
DA:24,0
DA:25,0
DA:26,0
DA:27,0
DA:29,0
DA:30,0
DA:31,0
DA:32,0
DA:33,0
DA:34,0
DA:39,0
DA:40,0
DA:43,0
DA:44,0
DA:45,0
DA:48,0
DA:50,0
DA:51,0
DA:54,0
DA:57,0
DA:58,0
DA:59,0
DA:60,0
DA:61,0
DA:62,0
DA:63,0
DA:65,0
DA:66,0
DA:67,0
DA:68,0
DA:69,0
DA:70,0
DA:74,0
DA:77,0
DA:78,0
DA:79,0
DA:80,0
DA:81,0
DA:82,0
DA:83,0
DA:88,0
DA:91,0
DA:93,0
DA:94,0
DA:95,0
DA:96,0
DA:99,0
DA:100,0
DA:101,0
DA:104,0
DA:106,0
DA:107,0
DA:108,0
DA:109,0
DA:112,0
DA:113,0
DA:114,0
LF:65
LH:0
end_of_record
TN:
SF:/home/nn/redis/FalkorDB/deps/RediSearch/deps/VectorSimilarity/src/VecSim/spaces/L2/L2_AVX_FP64.cpp
FN:103,113,_Z31FP64_L2SqrSIMD2ExtResiduals_AVXPKvS0_m
FN:11,40,_Z22FP64_L2SqrSIMD8Ext_AVXPKvS0_m
FN:42,88,_Z22FP64_L2SqrSIMD2Ext_AVXPKvS0_m
FN:90,101,_Z31FP64_L2SqrSIMD8ExtResiduals_AVXPKvS0_m
FNDA:0,_Z31FP64_L2SqrSIMD2ExtResiduals_AVXPKvS0_m
FNDA:0,_Z22FP64_L2SqrSIMD8Ext_AVXPKvS0_m
FNDA:0,_Z22FP64_L2SqrSIMD2Ext_AVXPKvS0_m
FNDA:0,_Z31FP64_L2SqrSIMD8ExtResiduals_AVXPKvS0_m
FNF:4
FNH:0
DA:11,0
DA:12,0
DA:13,0
DA:15,0
DA:18,0
DA:21,0
DA:22,0
DA:23,0
DA:24,0
DA:25,0
DA:26,0
DA:27,0
DA:29,0
DA:30,0
DA:31,0
DA:32,0
DA:33,0
DA:34,0
DA:39,0
DA:42,0
DA:43,0
DA:44,0
DA:47,0
DA:49,0
DA:50,0
DA:53,0
DA:56,0
DA:57,0
DA:58,0
DA:59,0
DA:60,0
DA:61,0
DA:62,0
DA:64,0
DA:65,0
DA:66,0
DA:67,0
DA:68,0
DA:69,0
DA:73,0
DA:76,0
DA:77,0
DA:78,0
DA:79,0
DA:80,0
DA:81,0
DA:82,0
DA:87,0
DA:90,0
DA:92,0
DA:93,0
DA:94,0
DA:95,0
DA:98,0
DA:99,0
DA:100,0
DA:103,0
DA:105,0
DA:106,0
DA:107,0
DA:108,0
DA:110,0
DA:111,0
DA:112,0
LF:64
LH:0
end_of_record
TN:
SF:/home/nn/redis/FalkorDB/deps/RediSearch/deps/VectorSimilarity/src/VecSim/spaces/L2/L2_SSE_FP32.cpp
FN:11,55,_Z23FP32_L2SqrSIMD16Ext_SSEPKvS0_m
FN:130,143,_Z31FP32_L2SqrSIMD4ExtResiduals_SSEPKvS0_m
FN:57,68,_Z32FP32_L2SqrSIMD16ExtResiduals_SSEPKvS0_m
FN:70,128,_Z22FP32_L2SqrSIMD4Ext_SSEPKvS0_m
FNDA:0,_Z23FP32_L2SqrSIMD16Ext_SSEPKvS0_m
FNDA:0,_Z31FP32_L2SqrSIMD4ExtResiduals_SSEPKvS0_m
FNDA:0,_Z32FP32_L2SqrSIMD16ExtResiduals_SSEPKvS0_m
FNDA:0,_Z22FP32_L2SqrSIMD4Ext_SSEPKvS0_m
FNF:4
FNH:0
DA:11,0
DA:12,0
DA:13,0
DA:15,0
DA:18,0
DA:21,0
DA:22,0
DA:23,0
DA:24,0
DA:25,0
DA:26,0
DA:27,0
DA:29,0
DA:30,0
DA:31,0
DA:32,0
DA:33,0
DA:34,0
DA:36,0
DA:37,0
DA:38,0
DA:39,0
DA:40,0
DA:41,0
DA:43,0
DA:44,0
DA:45,0
DA:46,0
DA:47,0
DA:48,0
DA:54,0
DA:57,0
DA:59,0
DA:60,0
DA:61,0
DA:62,0
DA:65,0
DA:66,0
DA:67,0
DA:70,0
DA:71,0
DA:72,0
DA:75,0
DA:76,0
DA:78,0
DA:81,0
DA:84,0
DA:85,0
DA:86,0
DA:87,0
DA:88,0
DA:89,0
DA:90,0
DA:92,0
DA:93,0
DA:94,0
DA:95,0
DA:96,0
DA:97,0
DA:99,0
DA:100,0
DA:101,0
DA:102,0
DA:103,0
DA:104,0
DA:106,0
DA:107,0
DA:108,0
DA:109,0
DA:110,0
DA:111,0
DA:115,0
DA:116,0
DA:117,0
DA:118,0
DA:119,0
DA:120,0
DA:121,0
DA:127,0
DA:130,0
DA:132,0
DA:134,0
DA:135,0
DA:136,0
DA:139,0
DA:140,0
DA:142,0
LF:87
LH:0
end_of_record
TN:
SF:/home/nn/redis/FalkorDB/deps/RediSearch/deps/VectorSimilarity/src/VecSim/spaces/L2/L2_SSE_FP64.cpp
FN:11,55,_Z22FP64_L2SqrSIMD8Ext_SSEPKvS0_m
FN:131,144,_Z31FP64_L2SqrSIMD2ExtResiduals_SSEPKvS0_m
FN:57,69,_Z31FP64_L2SqrSIMD8ExtResiduals_SSEPKvS0_m
FN:71,129,_Z22FP64_L2SqrSIMD2Ext_SSEPKvS0_m
FNDA:0,_Z22FP64_L2SqrSIMD8Ext_SSEPKvS0_m
FNDA:0,_Z31FP64_L2SqrSIMD2ExtResiduals_SSEPKvS0_m
FNDA:0,_Z31FP64_L2SqrSIMD8ExtResiduals_SSEPKvS0_m
FNDA:0,_Z22FP64_L2SqrSIMD2Ext_SSEPKvS0_m
FNF:4
FNH:0
DA:11,0
DA:12,0
DA:13,0
DA:15,0
DA:18,0
DA:21,0
DA:22,0
DA:23,0
DA:24,0
DA:25,0
DA:26,0
DA:27,0
DA:29,0
DA:30,0
DA:31,0
DA:32,0
DA:33,0
DA:34,0
DA:36,0
DA:37,0
DA:38,0
DA:39,0
DA:40,0
DA:41,0
DA:43,0
DA:44,0
DA:45,0
DA:46,0
DA:47,0
DA:48,0
DA:54,0
DA:57,0
DA:59,0
DA:60,0
DA:61,0
DA:62,0
DA:65,0
DA:66,0
DA:68,0
DA:71,0
DA:72,0
DA:73,0
DA:76,0
DA:77,0
DA:79,0
DA:82,0
DA:85,0
DA:86,0
DA:87,0
DA:88,0
DA:89,0
DA:90,0
DA:91,0
DA:93,0
DA:94,0
DA:95,0
DA:96,0
DA:97,0
DA:98,0
DA:100,0
DA:101,0
DA:102,0
DA:103,0
DA:104,0
DA:105,0
DA:107,0
DA:108,0
DA:109,0
DA:110,0
DA:111,0
DA:112,0
DA:116,0
DA:117,0
DA:118,0
DA:119,0
DA:120,0
DA:121,0
DA:122,0
DA:128,0
DA:131,0
DA:133,0
DA:134,0
DA:136,0
DA:137,0
DA:140,0
DA:141,0
DA:143,0
LF:87
LH:0
end_of_record
TN:
SF:/home/nn/redis/FalkorDB/deps/RediSearch/deps/VectorSimilarity/src/VecSim/spaces/L2_space.cpp
FN:17,63,_ZN6spaces19L2_FP32_GetDistFuncEm
FN:65,125,_ZN6spaces19L2_FP64_GetDistFuncEm
FNDA:0,_ZN6spaces19L2_FP32_GetDistFuncEm
FNDA:0,_ZN6spaces19L2_FP64_GetDistFuncEm
FNF:2
FNH:0
DA:17,0
DA:19,0
DA:23,0
DA:24,0
DA:25,0
DA:26,0
DA:27,0
DA:35,0
DA:36,0
DA:38,0
DA:45,0
DA:46,0
DA:49,0
DA:56,0
DA:57,0
DA:62,0
DA:65,0
DA:67,0
DA:71,0
DA:72,0
DA:73,0
DA:74,0
DA:75,0
DA:82,0
DA:83,0
DA:85,0
DA:97,0
DA:98,0
DA:100,0
DA:107,0
DA:108,0
DA:111,0
DA:118,0
DA:119,0
DA:124,0
LF:35
LH:0
end_of_record
TN:
SF:/home/nn/redis/FalkorDB/deps/RediSearch/deps/VectorSimilarity/src/VecSim/spaces/space_aux.cpp
FN:18,37,_Z27getArchitectureOptimizationv
FNDA:6,_Z27getArchitectureOptimizationv
FNF:1
FNH:1
DA:18,6
DA:22,6
DA:23,6
DA:24,0
DA:26,6
DA:27,0
DA:28,6
DA:29,0
DA:30,6
DA:31,0
DA:32,6
DA:36,0
LF:12
LH:7
end_of_record
TN:
SF:/home/nn/redis/FalkorDB/deps/RediSearch/deps/VectorSimilarity/src/VecSim/spaces/spaces.cpp
FN:22,36,_ZN6spaces28FP32_GetCalculationGuidelineEm
FN:38,52,_ZN6spaces28FP64_GetCalculationGuidelineEm
FN:54,64,_ZN6spaces11SetDistFuncE12VecSimMetricmPPFfPKvS2_mE
FN:66,76,_ZN6spaces11SetDistFuncE12VecSimMetricmPPFdPKvS2_mE
FNDA:0,_ZN6spaces28FP32_GetCalculationGuidelineEm
FNDA:0,_ZN6spaces28FP64_GetCalculationGuidelineEm
FNDA:0,_ZN6spaces11SetDistFuncE12VecSimMetricmPPFfPKvS2_mE
FNDA:0,_ZN6spaces11SetDistFuncE12VecSimMetricmPPFdPKvS2_mE
FNF:4
FNH:0
DA:22,0
DA:24,0
DA:26,0
DA:27,0
DA:28,0
DA:29,0
DA:30,0
DA:31,0
DA:32,0
DA:33,0
DA:35,0
DA:38,0
DA:40,0
DA:42,0
DA:43,0
DA:44,0
DA:45,0
DA:46,0
DA:47,0
DA:48,0
DA:49,0
DA:51,0
DA:54,0
DA:56,0
DA:58,0
DA:60,0
DA:62,0
DA:64,0
DA:66,0
DA:68,0
DA:70,0
DA:72,0
DA:74,0
DA:76,0
LF:34
LH:0
end_of_record
TN:
SF:/home/nn/redis/FalkorDB/deps/RediSearch/deps/VectorSimilarity/src/VecSim/spaces/spaces.h
FNF:0
FNH:0
LF:0
LH:0
end_of_record
TN:
SF:/home/nn/redis/FalkorDB/deps/RediSearch/deps/VectorSimilarity/src/VecSim/utils/arr_cpp.h
FN:21,23,_Z9array_hdrI16VecSim_InfoFieldEP11array_hdr_tIT_EPS2_
FN:21,23,_Z9array_hdrI17VecSimQueryResultEP11array_hdr_tIT_EPS2_
FN:26,31,_Z12array_new_szI16VecSim_InfoFieldEPT_im
FN:26,31,_Z12array_new_szI17VecSimQueryResultEPT_im
FN:34,36,_Z9array_newI16VecSim_InfoFieldEPT_m
FN:34,36,_Z9array_newI17VecSimQueryResultEPT_m
FN:39,41,_Z13array_new_lenI17VecSimQueryResultEPT_mm
FN:44,51,_Z16array_ensure_capI16VecSim_InfoFieldEPT_S2_m
FN:44,51,_Z16array_ensure_capI17VecSimQueryResultEPT_S2_m
FN:54,56,_Z10array_growI16VecSim_InfoFieldEPT_S2_
FN:54,56,_Z10array_growI17VecSimQueryResultEPT_S2_
FN:59,63,_Z12array_appendI16VecSim_InfoFieldEPT_S2_S1_
FN:59,63,_Z12array_appendI17VecSimQueryResultEPT_S2_S1_
FN:66,68,_Z9array_lenI16VecSim_InfoFieldEmPT_
FN:66,68,_Z9array_lenI17VecSimQueryResultEmPT_
FN:71,74,_Z10array_freeI16VecSim_InfoFieldEvPT_
FN:71,74,_Z10array_freeI17VecSimQueryResultEvPT_
FNDA:0,_Z9array_hdrI16VecSim_InfoFieldEP11array_hdr_tIT_EPS2_
FNDA:0,_Z9array_hdrI17VecSimQueryResultEP11array_hdr_tIT_EPS2_
FNDA:0,_Z12array_new_szI16VecSim_InfoFieldEPT_im
FNDA:0,_Z12array_new_szI17VecSimQueryResultEPT_im
FNDA:0,_Z9array_newI16VecSim_InfoFieldEPT_m
FNDA:0,_Z9array_newI17VecSimQueryResultEPT_m
FNDA:0,_Z13array_new_lenI17VecSimQueryResultEPT_mm
FNDA:0,_Z16array_ensure_capI16VecSim_InfoFieldEPT_S2_m
FNDA:0,_Z16array_ensure_capI17VecSimQueryResultEPT_S2_m
FNDA:0,_Z10array_growI16VecSim_InfoFieldEPT_S2_
FNDA:0,_Z10array_growI17VecSimQueryResultEPT_S2_
FNDA:0,_Z12array_appendI16VecSim_InfoFieldEPT_S2_S1_
FNDA:0,_Z12array_appendI17VecSimQueryResultEPT_S2_S1_
FNDA:0,_Z9array_lenI16VecSim_InfoFieldEmPT_
FNDA:0,_Z9array_lenI17VecSimQueryResultEmPT_
FNDA:0,_Z10array_freeI16VecSim_InfoFieldEvPT_
FNDA:0,_Z10array_freeI17VecSimQueryResultEvPT_
FNF:17
FNH:0
DA:21,0
DA:22,0
DA:26,0
DA:27,0
DA:28,0
DA:29,0
DA:30,0
DA:34,0
DA:35,0
DA:39,0
DA:40,0
DA:44,0
DA:45,0
DA:46,0
DA:47,0
DA:48,0
DA:50,0
DA:54,0
DA:55,0
DA:59,0
DA:60,0
DA:61,0
DA:62,0
DA:66,0
DA:67,0
DA:71,0
DA:72,0
DA:73,0
DA:74,0
LF:29
LH:0
end_of_record
TN:
SF:/home/nn/redis/FalkorDB/deps/RediSearch/deps/VectorSimilarity/src/VecSim/utils/updatable_heap.h
FN:48,51,_ZN10vecsim_stl18updatable_max_heapIdmEC2ERKSt10shared_ptrI15VecSimAllocatorE
FN:48,51,_ZN10vecsim_stl18updatable_max_heapIfmEC2ERKSt10shared_ptrI15VecSimAllocatorE
FN:54,54,_ZN10vecsim_stl18updatable_max_heapIdmED0Ev
FN:54,54,_ZN10vecsim_stl18updatable_max_heapIdmED2Ev
FN:54,54,_ZN10vecsim_stl18updatable_max_heapIfmED0Ev
FN:54,54,_ZN10vecsim_stl18updatable_max_heapIfmED2Ev
FN:57,59,_ZNK10vecsim_stl18updatable_max_heapIdmE4sizeEv
FN:57,59,_ZNK10vecsim_stl18updatable_max_heapIfmE4sizeEv
FN:62,64,_ZNK10vecsim_stl18updatable_max_heapIdmE5emptyEv
FN:62,64,_ZNK10vecsim_stl18updatable_max_heapIfmE5emptyEv
FN:67,71,_ZNK10vecsim_stl18updatable_max_heapIdmE3topEv
FN:67,71,_ZNK10vecsim_stl18updatable_max_heapIfmE3topEv
FN:74,78,_ZN10vecsim_stl18updatable_max_heapIdmE3popEv
FN:74,78,_ZN10vecsim_stl18updatable_max_heapIfmE3popEv
FN:81,106,_ZN10vecsim_stl18updatable_max_heapIdmE7emplaceEdm
FN:81,106,_ZN10vecsim_stl18updatable_max_heapIfmE7emplaceEfm
FNDA:0,_ZN10vecsim_stl18updatable_max_heapIdmEC2ERKSt10shared_ptrI15VecSimAllocatorE
FNDA:0,_ZN10vecsim_stl18updatable_max_heapIfmEC2ERKSt10shared_ptrI15VecSimAllocatorE
FNDA:0,_ZN10vecsim_stl18updatable_max_heapIdmED0Ev
FNDA:0,_ZN10vecsim_stl18updatable_max_heapIdmED2Ev
FNDA:0,_ZN10vecsim_stl18updatable_max_heapIfmED0Ev
FNDA:0,_ZN10vecsim_stl18updatable_max_heapIfmED2Ev
FNDA:0,_ZNK10vecsim_stl18updatable_max_heapIdmE4sizeEv
FNDA:0,_ZNK10vecsim_stl18updatable_max_heapIfmE4sizeEv
FNDA:0,_ZNK10vecsim_stl18updatable_max_heapIdmE5emptyEv
FNDA:0,_ZNK10vecsim_stl18updatable_max_heapIfmE5emptyEv
FNDA:0,_ZNK10vecsim_stl18updatable_max_heapIdmE3topEv
FNDA:0,_ZNK10vecsim_stl18updatable_max_heapIfmE3topEv
FNDA:0,_ZN10vecsim_stl18updatable_max_heapIdmE3popEv
FNDA:0,_ZN10vecsim_stl18updatable_max_heapIfmE3popEv
FNDA:0,_ZN10vecsim_stl18updatable_max_heapIdmE7emplaceEdm
FNDA:0,_ZN10vecsim_stl18updatable_max_heapIfmE7emplaceEfm
FNF:16
FNH:0
DA:48,0
DA:50,0
DA:51,0
DA:54,0
DA:57,0
DA:58,0
DA:62,0
DA:63,0
DA:67,0
DA:69,0
DA:70,0
DA:74,0
DA:75,0
DA:76,0
DA:77,0
DA:78,0
DA:81,0
DA:84,0
DA:85,0
DA:87,0
DA:88,0
DA:89,0
DA:95,0
DA:98,0
DA:99,0
DA:100,0
DA:102,0
DA:103,0
DA:104,0
DA:106,0
LF:30
LH:0
end_of_record
TN:
SF:/home/nn/redis/FalkorDB/deps/RediSearch/deps/VectorSimilarity/src/VecSim/utils/vec_utils.cpp
FN:100,109,_Z19VecSimAlgo_ToString10VecSimAlgo
FN:111,124,_Z19VecSimType_ToString10VecSimType
FN:126,137,_Z21VecSimMetric_ToString12VecSimMetric
FN:139,156,_Z25VecSimSearchMode_ToString13VecSearchMode
FN:158,170,_Z17VecSimType_sizeof10VecSimType
FN:53,55,_Z24cmpVecSimQueryResultByIdPK17VecSimQueryResultS1_
FN:57,62,_Z27cmpVecSimQueryResultByScorePK17VecSimQueryResultS1_
FN:64,67,_Z18sort_results_by_id22VecSimQueryResult_List
FN:69,72,_Z21sort_results_by_score22VecSimQueryResult_List
FN:74,85,_Z31validate_positive_integer_param14VecSimRawParamPx
FN:87,98,_Z30validate_positive_double_param14VecSimRawParamPd
FNDA:0,_Z19VecSimAlgo_ToString10VecSimAlgo
FNDA:0,_Z19VecSimType_ToString10VecSimType
FNDA:0,_Z21VecSimMetric_ToString12VecSimMetric
FNDA:0,_Z25VecSimSearchMode_ToString13VecSearchMode
FNDA:0,_Z17VecSimType_sizeof10VecSimType
FNDA:0,_Z24cmpVecSimQueryResultByIdPK17VecSimQueryResultS1_
FNDA:0,_Z27cmpVecSimQueryResultByScorePK17VecSimQueryResultS1_
FNDA:0,_Z18sort_results_by_id22VecSimQueryResult_List
FNDA:0,_Z21sort_results_by_score22VecSimQueryResult_List
FNDA:0,_Z31validate_positive_integer_param14VecSimRawParamPx
FNDA:0,_Z30validate_positive_double_param14VecSimRawParamPd
FNF:11
FNH:0
DA:53,0
DA:54,0
DA:57,0
DA:58,0
DA:61,0
DA:64,0
DA:65,0
DA:67,0
DA:69,0
DA:70,0
DA:72,0
DA:74,0
DA:76,0
DA:77,0
DA:81,0
DA:82,0
DA:84,0
DA:87,0
DA:89,0
DA:90,0
DA:94,0
DA:95,0
DA:97,0
DA:100,0
DA:101,0
DA:102,0
DA:103,0
DA:104,0
DA:105,0
DA:106,0
DA:107,0
DA:111,0
DA:112,0
DA:113,0
DA:114,0
DA:115,0
DA:116,0
DA:117,0
DA:118,0
DA:119,0
DA:120,0
DA:121,0
DA:122,0
DA:126,0
DA:127,0
DA:128,0
DA:129,0
DA:130,0
DA:131,0
DA:132,0
DA:133,0
DA:134,0
DA:135,0
DA:139,0
DA:140,0
DA:141,0
DA:142,0
DA:143,0
DA:144,0
DA:145,0
DA:146,0
DA:147,0
DA:148,0
DA:149,0
DA:150,0
DA:151,0
DA:152,0
DA:153,0
DA:154,0
DA:158,0
DA:159,0
DA:160,0
DA:161,0
DA:162,0
DA:163,0
DA:164,0
DA:165,0
DA:166,0
DA:167,0
DA:169,0
LF:80
LH:0
end_of_record
TN:
SF:/home/nn/redis/FalkorDB/deps/RediSearch/deps/VectorSimilarity/src/VecSim/utils/vec_utils.h
FN:78,91,_Z15normalizeVectorIdEvPT_m
FN:78,91,_Z15normalizeVectorIfEvPT_m
FNDA:0,_Z15normalizeVectorIdEvPT_m
FNDA:0,_Z15normalizeVectorIfEvPT_m
FNF:2
FNH:0
DA:78,0
DA:81,0
DA:83,0
DA:84,0
DA:86,0
DA:88,0
DA:89,0
DA:91,0
LF:8
LH:0
end_of_record
TN:
SF:/home/nn/redis/FalkorDB/deps/RediSearch/deps/VectorSimilarity/src/VecSim/utils/vecsim_results_container.h
FN:18,19,_ZN10vecsim_stl26abstract_results_containerC2ERKSt10shared_ptrI15VecSimAllocatorE
FN:20,20,_ZN10vecsim_stl26abstract_results_containerD0Ev
FN:20,20,_ZN10vecsim_stl26abstract_results_containerD2Ev
FN:39,40,_ZN10vecsim_stl24unique_results_containerC2EmRKSt10shared_ptrI15VecSimAllocatorE
FN:42,49,_ZN10vecsim_stl24unique_results_container7emplaceEmd
FN:51,51,_ZNK10vecsim_stl24unique_results_container4sizeEv
FN:53,62,_ZN10vecsim_stl24unique_results_container11get_resultsEv
FN:74,76,_ZN10vecsim_stl25default_results_containerC2EmRKSt10shared_ptrI15VecSimAllocatorE
FN:78,81,_ZN10vecsim_stl25default_results_containerD0Ev
FN:78,81,_ZN10vecsim_stl25default_results_containerD2Ev
FN:83,86,_ZN10vecsim_stl25default_results_container7emplaceEmd
FN:87,87,_ZNK10vecsim_stl25default_results_container4sizeEv
FN:88,91,_ZN10vecsim_stl25default_results_container11get_resultsEv
FNDA:0,_ZN10vecsim_stl26abstract_results_containerC2ERKSt10shared_ptrI15VecSimAllocatorE
FNDA:0,_ZN10vecsim_stl26abstract_results_containerD0Ev
FNDA:0,_ZN10vecsim_stl26abstract_results_containerD2Ev
FNDA:0,_ZN10vecsim_stl24unique_results_containerC2EmRKSt10shared_ptrI15VecSimAllocatorE
FNDA:0,_ZN10vecsim_stl24unique_results_container7emplaceEmd
FNDA:0,_ZNK10vecsim_stl24unique_results_container4sizeEv
FNDA:0,_ZN10vecsim_stl24unique_results_container11get_resultsEv
FNDA:0,_ZN10vecsim_stl25default_results_containerC2EmRKSt10shared_ptrI15VecSimAllocatorE
FNDA:0,_ZN10vecsim_stl25default_results_containerD0Ev
FNDA:0,_ZN10vecsim_stl25default_results_containerD2Ev
FNDA:0,_ZN10vecsim_stl25default_results_container7emplaceEmd
FNDA:0,_ZNK10vecsim_stl25default_results_container4sizeEv
FNDA:0,_ZN10vecsim_stl25default_results_container11get_resultsEv
FNF:13
FNH:0
DA:18,0
DA:19,0
DA:20,0
DA:39,0
DA:40,0
DA:42,0
DA:43,0
DA:44,0
DA:45,0
DA:46,0
DA:47,0
DA:49,0
DA:51,0
DA:53,0
DA:54,0
DA:55,0
DA:56,0
DA:57,0
DA:58,0
DA:59,0
DA:61,0
DA:74,0
DA:75,0
DA:76,0
DA:78,0
DA:79,0
DA:80,0
DA:81,0
DA:83,0
DA:84,0
DA:85,0
DA:86,0
DA:87,0
DA:88,0
DA:89,0
DA:90,0
LF:36
LH:0
end_of_record
TN:
SF:/home/nn/redis/FalkorDB/deps/RediSearch/deps/VectorSimilarity/src/VecSim/utils/vecsim_stl.h
FN:25,26,_ZN10vecsim_stl6vectorIP11VectorBlockEC2ERKSt10shared_ptrI15VecSimAllocatorE
FN:25,26,_ZN10vecsim_stl6vectorISt4pairIdjEEC2ERKSt10shared_ptrI15VecSimAllocatorE
FN:25,26,_ZN10vecsim_stl6vectorISt4pairIdmEEC2ERKSt10shared_ptrI15VecSimAllocatorE
FN:25,26,_ZN10vecsim_stl6vectorISt4pairIfjEEC2ERKSt10shared_ptrI15VecSimAllocatorE
FN:25,26,_ZN10vecsim_stl6vectorISt4pairIfmEEC2ERKSt10shared_ptrI15VecSimAllocatorE
FN:25,26,_ZN10vecsim_stl6vectorIbEC2ERKSt10shared_ptrI15VecSimAllocatorE
FN:25,26,_ZN10vecsim_stl6vectorIjEC2ERKSt10shared_ptrI15VecSimAllocatorE
FN:25,26,_ZN10vecsim_stl6vectorImEC2ERKSt10shared_ptrI15VecSimAllocatorE
FN:27,28,_ZN10vecsim_stl6vectorIdEC2EmRKSt10shared_ptrI15VecSimAllocatorE
FN:27,28,_ZN10vecsim_stl6vectorIfEC2EmRKSt10shared_ptrI15VecSimAllocatorE
FN:27,28,_ZN10vecsim_stl6vectorImEC2EmRKSt10shared_ptrI15VecSimAllocatorE
FN:29,30,_ZN10vecsim_stl6vectorIbEC2EmbRKSt10shared_ptrI15VecSimAllocatorE
FN:29,30,_ZN10vecsim_stl6vectorIjEC2EmjRKSt10shared_ptrI15VecSimAllocatorE
FN:36,37,_ZN10vecsim_stl23abstract_priority_queueIdjEC2ERKSt10shared_ptrI15VecSimAllocatorE
FN:36,37,_ZN10vecsim_stl23abstract_priority_queueIdmEC2ERKSt10shared_ptrI15VecSimAllocatorE
FN:36,37,_ZN10vecsim_stl23abstract_priority_queueIfjEC2ERKSt10shared_ptrI15VecSimAllocatorE
FN:36,37,_ZN10vecsim_stl23abstract_priority_queueIfmEC2ERKSt10shared_ptrI15VecSimAllocatorE
FN:38,38,_ZN10vecsim_stl23abstract_priority_queueIdjED0Ev
FN:38,38,_ZN10vecsim_stl23abstract_priority_queueIdjED2Ev
FN:38,38,_ZN10vecsim_stl23abstract_priority_queueIdmED0Ev
FN:38,38,_ZN10vecsim_stl23abstract_priority_queueIdmED2Ev
FN:38,38,_ZN10vecsim_stl23abstract_priority_queueIfjED0Ev
FN:38,38,_ZN10vecsim_stl23abstract_priority_queueIfjED2Ev
FN:38,38,_ZN10vecsim_stl23abstract_priority_queueIfmED0Ev
FN:38,38,_ZN10vecsim_stl23abstract_priority_queueIfmED2Ev
FN:56,57,_ZN10vecsim_stl18max_priority_queueIdjEC2ERKSt10shared_ptrI15VecSimAllocatorE
FN:56,57,_ZN10vecsim_stl18max_priority_queueIdmEC2ERKSt10shared_ptrI15VecSimAllocatorE
FN:56,57,_ZN10vecsim_stl18max_priority_queueIfjEC2ERKSt10shared_ptrI15VecSimAllocatorE
FN:56,57,_ZN10vecsim_stl18max_priority_queueIfmEC2ERKSt10shared_ptrI15VecSimAllocatorE
FN:58,58,_ZN10vecsim_stl18max_priority_queueIdjED0Ev
FN:58,58,_ZN10vecsim_stl18max_priority_queueIdjED2Ev
FN:58,58,_ZN10vecsim_stl18max_priority_queueIdmED0Ev
FN:58,58,_ZN10vecsim_stl18max_priority_queueIdmED2Ev
FN:58,58,_ZN10vecsim_stl18max_priority_queueIfjED0Ev
FN:58,58,_ZN10vecsim_stl18max_priority_queueIfjED2Ev
FN:58,58,_ZN10vecsim_stl18max_priority_queueIfmED0Ev
FN:58,58,_ZN10vecsim_stl18max_priority_queueIfmED2Ev
FN:60,60,_ZN10vecsim_stl18max_priority_queueIdjE7emplaceEdj
FN:60,60,_ZN10vecsim_stl18max_priority_queueIdmE7emplaceEdm
FN:60,60,_ZN10vecsim_stl18max_priority_queueIfjE7emplaceEfj
FN:60,60,_ZN10vecsim_stl18max_priority_queueIfmE7emplaceEfm
FN:61,61,_ZNK10vecsim_stl18max_priority_queueIdjE5emptyEv
FN:61,61,_ZNK10vecsim_stl18max_priority_queueIdmE5emptyEv
FN:61,61,_ZNK10vecsim_stl18max_priority_queueIfjE5emptyEv
FN:61,61,_ZNK10vecsim_stl18max_priority_queueIfmE5emptyEv
FN:62,62,_ZN10vecsim_stl18max_priority_queueIdjE3popEv
FN:62,62,_ZN10vecsim_stl18max_priority_queueIdmE3popEv
FN:62,62,_ZN10vecsim_stl18max_priority_queueIfjE3popEv
FN:62,62,_ZN10vecsim_stl18max_priority_queueIfmE3popEv
FN:63,63,_ZNK10vecsim_stl18max_priority_queueIdjE3topEv
FN:63,63,_ZNK10vecsim_stl18max_priority_queueIdmE3topEv
FN:63,63,_ZNK10vecsim_stl18max_priority_queueIfjE3topEv
FN:63,63,_ZNK10vecsim_stl18max_priority_queueIfmE3topEv
FN:64,64,_ZNK10vecsim_stl18max_priority_queueIdjE4sizeEv
FN:64,64,_ZNK10vecsim_stl18max_priority_queueIdmE4sizeEv
FN:64,64,_ZNK10vecsim_stl18max_priority_queueIfjE4sizeEv
FN:64,64,_ZNK10vecsim_stl18max_priority_queueIfmE4sizeEv
FN:76,77,_ZN10vecsim_stl3setImEC2ERKSt10shared_ptrI15VecSimAllocatorE
FN:88,91,_ZN10vecsim_stl13unordered_setImEC2EmRKSt10shared_ptrI15VecSimAllocatorE
FNDA:0,_ZN10vecsim_stl6vectorIP11VectorBlockEC2ERKSt10shared_ptrI15VecSimAllocatorE
FNDA:0,_ZN10vecsim_stl6vectorISt4pairIdjEEC2ERKSt10shared_ptrI15VecSimAllocatorE
FNDA:0,_ZN10vecsim_stl6vectorISt4pairIdmEEC2ERKSt10shared_ptrI15VecSimAllocatorE
FNDA:0,_ZN10vecsim_stl6vectorISt4pairIfjEEC2ERKSt10shared_ptrI15VecSimAllocatorE
FNDA:0,_ZN10vecsim_stl6vectorISt4pairIfmEEC2ERKSt10shared_ptrI15VecSimAllocatorE
FNDA:0,_ZN10vecsim_stl6vectorIbEC2ERKSt10shared_ptrI15VecSimAllocatorE
FNDA:0,_ZN10vecsim_stl6vectorIjEC2ERKSt10shared_ptrI15VecSimAllocatorE
FNDA:0,_ZN10vecsim_stl6vectorImEC2ERKSt10shared_ptrI15VecSimAllocatorE
FNDA:0,_ZN10vecsim_stl6vectorIdEC2EmRKSt10shared_ptrI15VecSimAllocatorE
FNDA:0,_ZN10vecsim_stl6vectorIfEC2EmRKSt10shared_ptrI15VecSimAllocatorE
FNDA:0,_ZN10vecsim_stl6vectorImEC2EmRKSt10shared_ptrI15VecSimAllocatorE
FNDA:0,_ZN10vecsim_stl6vectorIbEC2EmbRKSt10shared_ptrI15VecSimAllocatorE
FNDA:0,_ZN10vecsim_stl6vectorIjEC2EmjRKSt10shared_ptrI15VecSimAllocatorE
FNDA:0,_ZN10vecsim_stl23abstract_priority_queueIdjEC2ERKSt10shared_ptrI15VecSimAllocatorE
FNDA:0,_ZN10vecsim_stl23abstract_priority_queueIdmEC2ERKSt10shared_ptrI15VecSimAllocatorE
FNDA:0,_ZN10vecsim_stl23abstract_priority_queueIfjEC2ERKSt10shared_ptrI15VecSimAllocatorE
FNDA:0,_ZN10vecsim_stl23abstract_priority_queueIfmEC2ERKSt10shared_ptrI15VecSimAllocatorE
FNDA:0,_ZN10vecsim_stl23abstract_priority_queueIdjED0Ev
FNDA:0,_ZN10vecsim_stl23abstract_priority_queueIdjED2Ev
FNDA:0,_ZN10vecsim_stl23abstract_priority_queueIdmED0Ev
FNDA:0,_ZN10vecsim_stl23abstract_priority_queueIdmED2Ev
FNDA:0,_ZN10vecsim_stl23abstract_priority_queueIfjED0Ev
FNDA:0,_ZN10vecsim_stl23abstract_priority_queueIfjED2Ev
FNDA:0,_ZN10vecsim_stl23abstract_priority_queueIfmED0Ev
FNDA:0,_ZN10vecsim_stl23abstract_priority_queueIfmED2Ev
FNDA:0,_ZN10vecsim_stl18max_priority_queueIdjEC2ERKSt10shared_ptrI15VecSimAllocatorE
FNDA:0,_ZN10vecsim_stl18max_priority_queueIdmEC2ERKSt10shared_ptrI15VecSimAllocatorE
FNDA:0,_ZN10vecsim_stl18max_priority_queueIfjEC2ERKSt10shared_ptrI15VecSimAllocatorE
FNDA:0,_ZN10vecsim_stl18max_priority_queueIfmEC2ERKSt10shared_ptrI15VecSimAllocatorE
FNDA:0,_ZN10vecsim_stl18max_priority_queueIdjED0Ev
FNDA:0,_ZN10vecsim_stl18max_priority_queueIdjED2Ev
FNDA:0,_ZN10vecsim_stl18max_priority_queueIdmED0Ev
FNDA:0,_ZN10vecsim_stl18max_priority_queueIdmED2Ev
FNDA:0,_ZN10vecsim_stl18max_priority_queueIfjED0Ev
FNDA:0,_ZN10vecsim_stl18max_priority_queueIfjED2Ev
FNDA:0,_ZN10vecsim_stl18max_priority_queueIfmED0Ev
FNDA:0,_ZN10vecsim_stl18max_priority_queueIfmED2Ev
FNDA:0,_ZN10vecsim_stl18max_priority_queueIdjE7emplaceEdj
FNDA:0,_ZN10vecsim_stl18max_priority_queueIdmE7emplaceEdm
FNDA:0,_ZN10vecsim_stl18max_priority_queueIfjE7emplaceEfj
FNDA:0,_ZN10vecsim_stl18max_priority_queueIfmE7emplaceEfm
FNDA:0,_ZNK10vecsim_stl18max_priority_queueIdjE5emptyEv
FNDA:0,_ZNK10vecsim_stl18max_priority_queueIdmE5emptyEv
FNDA:0,_ZNK10vecsim_stl18max_priority_queueIfjE5emptyEv
FNDA:0,_ZNK10vecsim_stl18max_priority_queueIfmE5emptyEv
FNDA:0,_ZN10vecsim_stl18max_priority_queueIdjE3popEv
FNDA:0,_ZN10vecsim_stl18max_priority_queueIdmE3popEv
FNDA:0,_ZN10vecsim_stl18max_priority_queueIfjE3popEv
FNDA:0,_ZN10vecsim_stl18max_priority_queueIfmE3popEv
FNDA:0,_ZNK10vecsim_stl18max_priority_queueIdjE3topEv
FNDA:0,_ZNK10vecsim_stl18max_priority_queueIdmE3topEv
FNDA:0,_ZNK10vecsim_stl18max_priority_queueIfjE3topEv
FNDA:0,_ZNK10vecsim_stl18max_priority_queueIfmE3topEv
FNDA:0,_ZNK10vecsim_stl18max_priority_queueIdjE4sizeEv
FNDA:0,_ZNK10vecsim_stl18max_priority_queueIdmE4sizeEv
FNDA:0,_ZNK10vecsim_stl18max_priority_queueIfjE4sizeEv
FNDA:0,_ZNK10vecsim_stl18max_priority_queueIfmE4sizeEv
FNDA:0,_ZN10vecsim_stl3setImEC2ERKSt10shared_ptrI15VecSimAllocatorE
FNDA:0,_ZN10vecsim_stl13unordered_setImEC2EmRKSt10shared_ptrI15VecSimAllocatorE
FNF:59
FNH:0
DA:25,0
DA:26,0
DA:27,0
DA:28,0
DA:29,0
DA:30,0
DA:36,0
DA:37,0
DA:38,0
DA:56,0
DA:57,0
DA:58,0
DA:60,0
DA:61,0
DA:62,0
DA:63,0
DA:64,0
DA:76,0
DA:77,0
DA:88,0
DA:91,0
LF:21
LH:0
end_of_record
TN:
SF:/home/nn/redis/FalkorDB/deps/RediSearch/deps/VectorSimilarity/src/VecSim/vec_sim.cpp
FN:102,120,VecSimIndex_New
FN:122,130,VecSimIndex_EstimateInitialSize
FN:132,137,VecSimIndex_AddVector
FN:139,144,VecSimIndex_DeleteVector
FN:146,148,VecSimIndex_GetDistanceFrom
FN:150,158,VecSimIndex_EstimateElementSize
FN:160,166,VecSim_Normalize
FN:168,168,VecSimIndex_IndexSize
FN:170,219,VecSimIndex_ResolveParams
FN:19,21,VecSim_SetTimeoutCallbackFunction
FN:221,233,VecSimIndex_TopKQuery
FN:23,44,_ZL24_ResolveParams_EFRuntime10VecSimAlgo14VecSimRawParamP17VecSimQueryParams15VecsimQueryType
FN:235,253,VecSimIndex_RangeQuery
FN:255,259,VecSimIndex_Free
FN:261,261,VecSimIndex_Info
FN:263,265,VecSimIndex_InfoIterator
FN:267,270,VecSimBatchIterator_New
FN:272,274,VecSim_SetMemoryFunctions
FN:276,279,VecSimIndex_PreferAdHocSearch
FN:46,60,_ZL24_ResolveParams_BatchSize14VecSimRawParamP17VecSimQueryParams15VecsimQueryType
FN:62,81,_ZL22_ResolveParams_Epsilon10VecSimAlgo14VecSimRawParamP17VecSimQueryParams15VecsimQueryType
FN:83,100,_ZL27_ResolveParams_HybridPolicy14VecSimRawParamP17VecSimQueryParams15VecsimQueryType
FNDA:0,VecSimIndex_New
FNDA:0,VecSimIndex_EstimateInitialSize
FNDA:0,VecSimIndex_AddVector
FNDA:0,VecSimIndex_DeleteVector
FNDA:0,VecSimIndex_GetDistanceFrom
FNDA:0,VecSimIndex_EstimateElementSize
FNDA:0,VecSim_Normalize
FNDA:0,VecSimIndex_IndexSize
FNDA:0,VecSimIndex_ResolveParams
FNDA:1,VecSim_SetTimeoutCallbackFunction
FNDA:0,VecSimIndex_TopKQuery
FNDA:0,_ZL24_ResolveParams_EFRuntime10VecSimAlgo14VecSimRawParamP17VecSimQueryParams15VecsimQueryType
FNDA:0,VecSimIndex_RangeQuery
FNDA:0,VecSimIndex_Free
FNDA:0,VecSimIndex_Info
FNDA:0,VecSimIndex_InfoIterator
FNDA:0,VecSimBatchIterator_New
FNDA:1,VecSim_SetMemoryFunctions
FNDA:0,VecSimIndex_PreferAdHocSearch
FNDA:0,_ZL24_ResolveParams_BatchSize14VecSimRawParamP17VecSimQueryParams15VecsimQueryType
FNDA:0,_ZL22_ResolveParams_Epsilon10VecSimAlgo14VecSimRawParamP17VecSimQueryParams15VecsimQueryType
FNDA:0,_ZL27_ResolveParams_HybridPolicy14VecSimRawParamP17VecSimQueryParams15VecsimQueryType
FNF:22
FNH:2
DA:19,1
DA:20,1
DA:21,1
DA:23,0
DA:28,0
DA:29,0
DA:32,0
DA:33,0
DA:35,0
DA:36,0
DA:38,0
DA:39,0
DA:42,0
DA:43,0
DA:46,0
DA:49,0
DA:50,0
DA:52,0
DA:53,0
DA:55,0
DA:56,0
DA:58,0
DA:59,0
DA:62,0
DA:67,0
DA:68,0
DA:70,0
DA:71,0
DA:73,0
DA:74,0
DA:76,0
DA:77,0
DA:79,0
DA:80,0
DA:83,0
DA:86,0
DA:87,0
DA:89,0
DA:90,0
DA:92,0
DA:93,0
DA:94,0
DA:95,0
DA:97,0
DA:99,0
DA:102,0
DA:103,0
DA:104,0
DA:106,0
DA:107,0
DA:108,0
DA:109,0
DA:110,0
DA:111,0
DA:112,0
DA:113,0
DA:114,0
DA:116,0
DA:118,0
DA:119,0
DA:120,0
DA:122,0
DA:123,0
DA:124,0
DA:125,0
DA:126,0
DA:127,0
DA:129,0
DA:132,0
DA:133,0
DA:134,0
DA:135,0
DA:136,0
DA:139,0
DA:140,0
DA:141,0
DA:142,0
DA:143,0
DA:146,0
DA:147,0
DA:150,0
DA:151,0
DA:152,0
DA:153,0
DA:154,0
DA:155,0
DA:157,0
DA:160,0
DA:161,0
DA:162,0
DA:163,0
DA:164,0
DA:166,0
DA:168,0
DA:170,0
DA:174,0
DA:175,0
DA:177,0
DA:178,0
DA:179,0
DA:180,0
DA:181,0
DA:182,0
DA:184,0
DA:186,0
DA:187,0
DA:189,0
DA:191,0
DA:192,0
DA:194,0
DA:196,0
DA:197,0
DA:199,0
DA:202,0
DA:206,0
DA:207,0
DA:211,0
DA:212,0
DA:213,0
DA:215,0
DA:216,0
DA:218,0
DA:221,0
DA:224,0
DA:227,0
DA:229,0
DA:230,0
DA:232,0
DA:235,0
DA:239,0
DA:240,0
DA:242,0
DA:243,0
DA:245,0
DA:247,0
DA:248,0
DA:250,0
DA:252,0
DA:255,0
DA:257,0
DA:258,0
DA:259,0
DA:261,0
DA:263,0
DA:264,0
DA:267,0
DA:269,0
DA:272,1
DA:273,1
DA:274,1
DA:276,0
DA:278,0
LF:152
LH:6
end_of_record
TN:
SF:/home/nn/redis/FalkorDB/deps/RediSearch/deps/VectorSimilarity/src/VecSim/vec_sim_index.h
FN:42,49,_ZN19VecSimIndexAbstractIdEC2ESt10shared_ptrI15VecSimAllocatorEm10VecSimType12VecSimMetricmb
FN:42,49,_ZN19VecSimIndexAbstractIfEC2ESt10shared_ptrI15VecSimAllocatorEm10VecSimType12VecSimMetricmb
FN:55,55,_ZN19VecSimIndexAbstractIdED0Ev
FN:55,55,_ZN19VecSimIndexAbstractIdED2Ev
FN:55,55,_ZN19VecSimIndexAbstractIfED0Ev
FN:55,55,_ZN19VecSimIndexAbstractIfED2Ev
FN:57,57,_ZNK19VecSimIndexAbstractIdE11GetDistFuncEv
FN:57,57,_ZNK19VecSimIndexAbstractIfE11GetDistFuncEv
FN:58,58,_ZNK19VecSimIndexAbstractIdE6GetDimEv
FN:58,58,_ZNK19VecSimIndexAbstractIfE6GetDimEv
FN:59,59,_ZN19VecSimIndexAbstractIdE17setLastSearchModeE13VecSearchMode
FN:59,59,_ZN19VecSimIndexAbstractIfE17setLastSearchModeE13VecSearchMode
FNDA:0,_ZN19VecSimIndexAbstractIdEC2ESt10shared_ptrI15VecSimAllocatorEm10VecSimType12VecSimMetricmb
FNDA:0,_ZN19VecSimIndexAbstractIfEC2ESt10shared_ptrI15VecSimAllocatorEm10VecSimType12VecSimMetricmb
FNDA:0,_ZN19VecSimIndexAbstractIdED0Ev
FNDA:0,_ZN19VecSimIndexAbstractIdED2Ev
FNDA:0,_ZN19VecSimIndexAbstractIfED0Ev
FNDA:0,_ZN19VecSimIndexAbstractIfED2Ev
FNDA:0,_ZNK19VecSimIndexAbstractIdE11GetDistFuncEv
FNDA:0,_ZNK19VecSimIndexAbstractIfE11GetDistFuncEv
FNDA:0,_ZNK19VecSimIndexAbstractIdE6GetDimEv
FNDA:0,_ZNK19VecSimIndexAbstractIfE6GetDimEv
FNDA:0,_ZN19VecSimIndexAbstractIdE17setLastSearchModeE13VecSearchMode
FNDA:0,_ZN19VecSimIndexAbstractIfE17setLastSearchModeE13VecSearchMode
FNF:12
FNH:0
DA:42,0
DA:44,0
DA:45,0
DA:46,0
DA:47,0
DA:48,0
DA:49,0
DA:55,0
DA:57,0
DA:58,0
DA:59,0
LF:11
LH:0
end_of_record
TN:
SF:/home/nn/redis/FalkorDB/deps/RediSearch/deps/VectorSimilarity/src/VecSim/vec_sim_interface.cpp
FN:9,9,_ZNK20VecSimIndexInterfaceUlPvE_clES0_
FNDA:0,_ZNK20VecSimIndexInterfaceUlPvE_clES0_
FNF:1
FNH:0
DA:9,0
LF:1
LH:0
end_of_record
TN:
SF:/home/nn/redis/FalkorDB/deps/RediSearch/deps/VectorSimilarity/src/VecSim/vec_sim_interface.h
FN:160,162,_ZN20VecSimIndexInterface26setTimeoutCallbackFunctionEPFiPvE
FN:25,26,_ZN20VecSimIndexInterfaceC2ESt10shared_ptrI15VecSimAllocatorE
FN:32,32,_ZN20VecSimIndexInterfaceD0Ev
FN:32,32,_ZN20VecSimIndexInterfaceD2Ev
FNDA:1,_ZN20VecSimIndexInterface26setTimeoutCallbackFunctionEPFiPvE
FNDA:0,_ZN20VecSimIndexInterfaceC2ESt10shared_ptrI15VecSimAllocatorE
FNDA:0,_ZN20VecSimIndexInterfaceD0Ev
FNDA:0,_ZN20VecSimIndexInterfaceD2Ev
FNF:4
FNH:1
DA:25,0
DA:26,0
DA:32,0
DA:160,1
DA:161,1
DA:162,1
LF:6
LH:3
end_of_record
TN:
SF:/home/nn/redis/FalkorDB/deps/RediSearch/deps/cndict/cndict_data.c
FN:18800,18814,ChineseDictConfigure
FNDA:0,ChineseDictConfigure
FNF:1
FNH:0
DA:18800,0
DA:18801,0
DA:18802,0
DA:18803,0
DA:18804,0
DA:18805,0
DA:18806,0
DA:18807,0
DA:18808,0
DA:18809,0
DA:18810,0
DA:18811,0
DA:18812,0
DA:18813,0
DA:18814,0
LF:15
LH:0
end_of_record
TN:
SF:/home/nn/redis/FalkorDB/deps/RediSearch/deps/friso/friso.c
FN:1117,1135,token_sphinx_output
FN:1145,1161,token_normal_output
FN:1173,1243,en_second_seg
FN:1268,1584,next_mmseg_token
FN:1593,1703,next_detect_token
FN:196,202,friso_free
FN:20,30,friso_new
FN:208,224,friso_set_mode
FN:229,239,friso_new_config
FN:243,261,friso_init_config
FN:266,284,friso_new_task
FN:288,305,friso_free_task
FN:309,324,friso_new_token
FN:332,338,friso_set_text
FN:347,361,readNextWord
FN:366,406,next_simple_cjk
FN:37,190,friso_init_from_ifile
FN:450,676,next_basic_latin
FN:688,729,get_next_match
FN:744,757,new_chunk
FN:761,763,free_chunk
FN:769,772,count_chunk_avl
FN:778,792,count_chunk_var
FN:798,816,count_chunk_mdf
FN:840,979,mmseg_core_invoke
FN:989,1094,next_complex_cjk
FNDA:0,token_sphinx_output
FNDA:0,token_normal_output
FNDA:0,en_second_seg
FNDA:0,next_mmseg_token
FNDA:0,next_detect_token
FNDA:0,friso_free
FNDA:0,friso_new
FNDA:0,friso_set_mode
FNDA:0,friso_new_config
FNDA:0,friso_init_config
FNDA:0,friso_new_task
FNDA:0,friso_free_task
FNDA:0,friso_new_token
FNDA:0,friso_set_text
FNDA:0,readNextWord
FNDA:0,next_simple_cjk
FNDA:0,friso_init_from_ifile
FNDA:0,next_basic_latin
FNDA:0,get_next_match
FNDA:0,new_chunk
FNDA:0,free_chunk
FNDA:0,count_chunk_avl
FNDA:0,count_chunk_var
FNDA:0,count_chunk_mdf
FNDA:0,mmseg_core_invoke
FNDA:0,next_complex_cjk
FNF:26
FNH:0
DA:20,0
DA:21,0
DA:22,0
DA:23,0
DA:26,0
DA:27,0
DA:29,0
DA:37,0
DA:41,0
DA:43,0
DA:44,0
DA:47,0
DA:48,0
DA:52,0
DA:54,0
DA:56,0
DA:57,0
DA:58,0
DA:60,0
DA:61,0
DA:62,0
DA:65,0
DA:67,0
DA:70,0
DA:71,0
DA:72,0
DA:73,0
DA:79,0
DA:81,0
DA:82,0
DA:85,0
DA:87,0
DA:90,0
DA:97,0
DA:98,0
DA:99,0
DA:100,0
DA:102,0
DA:104,0
DA:105,0
DA:106,0
DA:107,0
DA:108,0
DA:109,0
DA:110,0
DA:111,0
DA:112,0
DA:113,0
DA:114,0
DA:115,0
DA:116,0
DA:117,0
DA:118,0
DA:119,0
DA:120,0
DA:121,0
DA:122,0
DA:124,0
DA:125,0
DA:126,0
DA:127,0
DA:128,0
DA:129,0
DA:130,0
DA:131,0
DA:133,0
DA:143,0
DA:152,0
DA:154,0
DA:155,0
DA:156,0
DA:158,0
DA:161,0
DA:162,0
DA:164,0
DA:165,0
DA:166,0
DA:168,0
DA:169,0
DA:170,0
DA:171,0
DA:172,0
DA:176,0
DA:178,0
DA:179,0
DA:181,0
DA:182,0
DA:185,0
DA:186,0
DA:189,0
DA:196,0
DA:198,0
DA:199,0
DA:201,0
DA:202,0
DA:208,0
DA:209,0
DA:211,0
DA:212,0
DA:213,0
DA:214,0
DA:215,0
DA:216,0
DA:217,0
DA:218,0
DA:219,0
DA:220,0
DA:221,0
DA:222,0
DA:224,0
DA:229,0
DA:230,0
DA:231,0
DA:232,0
DA:236,0
DA:238,0
DA:243,0
DA:244,0
DA:245,0
DA:246,0
DA:247,0
DA:248,0
DA:249,0
DA:250,0
DA:251,0
DA:252,0
DA:253,0
DA:254,0
DA:255,0
DA:257,0
DA:260,0
DA:261,0
DA:266,0
DA:267,0
DA:268,0
DA:269,0
DA:273,0
DA:274,0
DA:275,0
DA:276,0
DA:277,0
DA:278,0
DA:279,0
DA:280,0
DA:281,0
DA:283,0
DA:288,0
DA:290,0
DA:291,0
DA:295,0
DA:296,0
DA:300,0
DA:301,0
DA:304,0
DA:305,0
DA:309,0
DA:310,0
DA:311,0
DA:312,0
DA:316,0
DA:317,0
DA:318,0
DA:319,0
DA:320,0
DA:321,0
DA:323,0
DA:332,0
DA:333,0
DA:334,0
DA:335,0
DA:336,0
DA:337,0
DA:338,0
DA:347,0
DA:352,0
DA:355,0
DA:356,0
DA:357,0
DA:360,0
DA:366,0
DA:367,0
DA:368,0
DA:369,0
DA:376,0
DA:378,0
DA:379,0
DA:380,0
DA:381,0
DA:382,0
DA:384,0
DA:387,0
DA:388,0
DA:393,0
DA:394,0
DA:401,0
DA:402,0
DA:405,0
DA:450,0
DA:452,0
DA:453,0
DA:459,0
DA:460,0
DA:461,0
DA:462,0
DA:465,0
DA:466,0
DA:469,0
DA:471,0
DA:474,0
DA:475,0
DA:476,0
DA:479,0
DA:480,0
DA:483,0
DA:485,0
DA:486,0
DA:488,0
DA:489,0
DA:490,0
DA:493,0
DA:495,0
DA:496,0
DA:502,0
DA:503,0
DA:504,0
DA:508,0
DA:509,0
DA:513,0
DA:514,0
DA:517,0
DA:518,0
DA:519,0
DA:526,0
DA:527,0
DA:528,0
DA:541,0
DA:542,0
DA:543,0
DA:545,0
DA:546,0
DA:547,0
DA:548,0
DA:552,0
DA:553,0
DA:554,0
DA:557,0
DA:558,0
DA:559,0
DA:564,0
DA:569,0
DA:570,0
DA:571,0
DA:572,0
DA:574,0
DA:575,0
DA:578,0
DA:585,0
DA:586,0
DA:587,0
DA:588,0
DA:590,0
DA:591,0
DA:592,0
DA:593,0
DA:594,0
DA:600,0
DA:601,0
DA:605,0
DA:606,0
DA:607,0
DA:609,0
DA:613,0
DA:614,0
DA:615,0
DA:616,0
DA:617,0
DA:626,0
DA:627,0
DA:630,0
DA:633,0
DA:634,0
DA:638,0
DA:644,0
DA:645,0
DA:646,0
DA:647,0
DA:651,0
DA:652,0
DA:653,0
DA:654,0
DA:656,0
DA:657,0
DA:658,0
DA:659,0
DA:660,0
DA:666,0
DA:667,0
DA:671,0
DA:672,0
DA:673,0
DA:675,0
DA:688,0
DA:691,0
DA:694,0
DA:695,0
DA:697,0
DA:698,0
DA:699,0
DA:700,0
DA:701,0
DA:704,0
DA:707,0
DA:720,0
DA:725,0
DA:728,0
DA:744,0
DA:745,0
DA:746,0
DA:747,0
DA:750,0
DA:751,0
DA:752,0
DA:753,0
DA:754,0
DA:756,0
DA:761,0
DA:762,0
DA:763,0
DA:769,0
DA:770,0
DA:771,0
DA:778,0
DA:779,0
DA:783,0
DA:784,0
DA:785,0
DA:786,0
DA:789,0
DA:791,0
DA:798,0
DA:799,0
DA:803,0
DA:804,0
DA:809,0
DA:810,0
DA:813,0
DA:815,0
DA:840,0
DA:845,0
DA:849,0
DA:850,0
DA:851,0
DA:852,0
DA:855,0
DA:856,0
DA:857,0
DA:858,0
DA:860,0
DA:861,0
DA:865,0
DA:866,0
DA:867,0
DA:868,0
DA:869,0
DA:871,0
DA:872,0
DA:873,0
DA:878,0
DA:879,0
DA:880,0
DA:881,0
DA:882,0
DA:886,0
DA:887,0
DA:888,0
DA:889,0
DA:891,0
DA:892,0
DA:896,0
DA:897,0
DA:898,0
DA:899,0
DA:900,0
DA:902,0
DA:903,0
DA:904,0
DA:909,0
DA:910,0
DA:911,0
DA:912,0
DA:913,0
DA:917,0
DA:918,0
DA:919,0
DA:920,0
DA:922,0
DA:923,0
DA:927,0
DA:928,0
DA:929,0
DA:930,0
DA:931,0
DA:933,0
DA:934,0
DA:935,0
DA:940,0
DA:941,0
DA:942,0
DA:943,0
DA:944,0
DA:948,0
DA:949,0
DA:950,0
DA:951,0
DA:953,0
DA:954,0
DA:968,0
DA:969,0
DA:970,0
DA:971,0
DA:974,0
DA:975,0
DA:976,0
DA:978,0
DA:989,0
DA:992,0
DA:996,0
DA:1003,0
DA:1004,0
DA:1005,0
DA:1011,0
DA:1012,0
DA:1015,0
DA:1018,0
DA:1019,0
DA:1021,0
DA:1023,0
DA:1024,0
DA:1025,0
DA:1027,0
DA:1028,0
DA:1030,0
DA:1031,0
DA:1033,0
DA:1034,0
DA:1035,0
DA:1037,0
DA:1038,0
DA:1040,0
DA:1041,0
DA:1042,0
DA:1043,0
DA:1044,0
DA:1045,0
DA:1046,0
DA:1047,0
DA:1050,0
DA:1052,0
DA:1053,0
DA:1054,0
DA:1056,0
DA:1060,0
DA:1062,0
DA:1063,0
DA:1064,0
DA:1068,0
DA:1077,0
DA:1078,0
DA:1080,0
DA:1083,0
DA:1084,0
DA:1085,0
DA:1086,0
DA:1089,0
DA:1090,0
DA:1093,0
DA:1117,0
DA:1120,0
DA:1123,0
DA:1124,0
DA:1125,0
DA:1126,0
DA:1127,0
DA:1128,0
DA:1129,0
DA:1130,0
DA:1134,0
DA:1135,0
DA:1145,0
DA:1150,0
DA:1151,0
DA:1152,0
DA:1153,0
DA:1155,0
DA:1156,0
DA:1158,0
DA:1161,0
DA:1173,0
DA:1177,0
DA:1178,0
DA:1180,0
DA:1182,0
DA:1183,0
DA:1184,0
DA:1186,0
DA:1188,0
DA:1189,0
DA:1190,0
DA:1191,0
DA:1192,0
DA:1195,0
DA:1196,0
DA:1198,0
DA:1204,0
DA:1205,0
DA:1206,0
DA:1211,0
DA:1213,0
DA:1214,0
DA:1215,0
DA:1217,0
DA:1221,0
DA:1222,0
DA:1223,0
DA:1224,0
DA:1229,0
DA:1230,0
DA:1231,0
DA:1232,0
DA:1234,0
DA:1235,0
DA:1236,0
DA:1238,0
DA:1242,0
DA:1268,0
DA:1269,0
DA:1270,0
DA:1271,0
DA:1274,0
DA:1280,0
DA:1281,0
DA:1282,0
DA:1283,0
DA:1284,0
DA:1285,0
DA:1286,0
DA:1298,0
DA:1299,0
DA:1300,0
DA:1317,0
DA:1318,0
DA:1319,0
DA:1320,0
DA:1321,0
DA:1322,0
DA:1323,0
DA:1324,0
DA:1327,0
DA:1331,0
DA:1333,0
DA:1334,0
DA:1337,0
DA:1340,0
DA:1344,0
DA:1345,0
DA:1346,0
DA:1347,0
DA:1348,0
DA:1349,0
DA:1350,0
DA:1351,0
DA:1358,0
DA:1360,0
DA:1361,0
DA:1381,0
DA:1382,0
DA:1384,0
DA:1387,0
DA:1388,0
DA:1389,0
DA:1390,0
DA:1391,0
DA:1394,0
DA:1395,0
DA:1396,0
DA:1397,0
DA:1398,0
DA:1399,0
DA:1400,0
DA:1401,0
DA:1412,0
DA:1413,0
DA:1414,0
DA:1415,0
DA:1416,0
DA:1417,0
DA:1418,0
DA:1421,0
DA:1422,0
DA:1423,0
DA:1425,0
DA:1438,0
DA:1440,0
DA:1441,0
DA:1444,0
DA:1445,0
DA:1448,0
DA:1449,0
DA:1454,0
DA:1459,0
DA:1460,0
DA:1475,0
DA:1476,0
DA:1477,0
DA:1481,0
DA:1482,0
DA:1483,0
DA:1484,0
DA:1485,0
DA:1486,0
DA:1487,0
DA:1493,0
DA:1494,0
DA:1500,0
DA:1501,0
DA:1502,0
DA:1506,0
DA:1508,0
DA:1509,0
DA:1510,0
DA:1511,0
DA:1512,0
DA:1513,0
DA:1520,0
DA:1526,0
DA:1527,0
DA:1528,0
DA:1529,0
DA:1530,0
DA:1531,0
DA:1536,0
DA:1537,0
DA:1541,0
DA:1543,0
DA:1549,0
DA:1550,0
DA:1551,0
DA:1555,0
DA:1556,0
DA:1557,0
DA:1558,0
DA:1559,0
DA:1560,0
DA:1572,0
DA:1573,0
DA:1574,0
DA:1575,0
DA:1576,0
DA:1577,0
DA:1578,0
DA:1583,0
DA:1593,0
DA:1594,0
DA:1595,0
DA:1598,0
DA:1604,0
DA:1605,0
DA:1606,0
DA:1607,0
DA:1608,0
DA:1609,0
DA:1610,0
DA:1619,0
DA:1620,0
DA:1623,0
DA:1627,0
DA:1628,0
DA:1631,0
DA:1632,0
DA:1635,0
DA:1639,0
DA:1640,0
DA:1641,0
DA:1642,0
DA:1643,0
DA:1645,0
DA:1646,0
DA:1647,0
DA:1648,0
DA:1649,0
DA:1652,0
DA:1653,0
DA:1654,0
DA:1658,0
DA:1659,0
DA:1660,0
DA:1661,0
DA:1662,0
DA:1664,0
DA:1665,0
DA:1666,0
DA:1674,0
DA:1675,0
DA:1676,0
DA:1681,0
DA:1683,0
DA:1684,0
DA:1685,0
DA:1686,0
DA:1687,0
DA:1688,0
DA:1691,0
DA:1692,0
DA:1693,0
DA:1695,0
DA:1699,0
DA:1702,0
LF:717
LH:0
end_of_record
TN:
SF:/home/nn/redis/FalkorDB/deps/RediSearch/deps/friso/friso_GBK.c
FN:103,112,gbk_lowercase_letter
FN:116,125,gbk_numeric_letter
FN:131,149,gbk_numeric_string
FN:151,178,gbk_decimal_string
FN:17,38,gbk_next_word
FN:182,196,gbk_en_letter
FN:200,209,gbk_whitespace
FN:213,220,gbk_letter_number
FN:225,230,gbk_other_number
FN:233,240,gbk_en_punctuation
FN:243,259,gbk_cn_punctuation
FN:48,63,gbk_cn_string
FN:67,71,gbk_halfwidth_en_char
FN:78,86,gbk_fullwidth_en_char
FN:90,99,gbk_uppercase_letter
FNDA:0,gbk_lowercase_letter
FNDA:0,gbk_numeric_letter
FNDA:0,gbk_numeric_string
FNDA:0,gbk_decimal_string
FNDA:0,gbk_next_word
FNDA:0,gbk_en_letter
FNDA:0,gbk_whitespace
FNDA:0,gbk_letter_number
FNDA:0,gbk_other_number
FNDA:0,gbk_en_punctuation
FNDA:0,gbk_cn_punctuation
FNDA:0,gbk_cn_string
FNDA:0,gbk_halfwidth_en_char
FNDA:0,gbk_fullwidth_en_char
FNDA:0,gbk_uppercase_letter
FNF:15
FNH:0
DA:17,0
DA:23,0
DA:25,0
DA:26,0
DA:27,0
DA:29,0
DA:33,0
DA:34,0
DA:35,0
DA:37,0
DA:48,0
DA:50,0
DA:51,0
DA:53,0
DA:54,0
DA:56,0
DA:57,0
DA:58,0
DA:60,0
DA:61,0
DA:62,0
DA:67,0
DA:69,0
DA:70,0
DA:78,0
DA:80,0
DA:81,0
DA:83,0
DA:84,0
DA:85,0
DA:90,0
DA:92,0
DA:93,0
DA:94,0
DA:95,0
DA:97,0
DA:103,0
DA:105,0
DA:106,0
DA:107,0
DA:108,0
DA:110,0
DA:116,0
DA:118,0
DA:119,0
DA:120,0
DA:121,0
DA:123,0
DA:131,0
DA:133,0
DA:134,0
DA:135,0
DA:137,0
DA:138,0
DA:139,0
DA:140,0
DA:142,0
DA:143,0
DA:144,0
DA:148,0
DA:151,0
DA:153,0
DA:154,0
DA:155,0
DA:158,0
DA:160,0
DA:161,0
DA:163,0
DA:164,0
DA:165,0
DA:168,0
DA:169,0
DA:171,0
DA:172,0
DA:173,0
DA:177,0
DA:182,0
DA:184,0
DA:185,0
DA:186,0
DA:187,0
DA:188,0
DA:191,0
DA:192,0
DA:200,0
DA:202,0
DA:203,0
DA:204,0
DA:205,0
DA:207,0
DA:213,0
DA:215,0
DA:216,0
DA:218,0
DA:219,0
DA:225,0
DA:227,0
DA:228,0
DA:229,0
DA:233,0
DA:235,0
DA:236,0
DA:237,0
DA:238,0
DA:239,0
DA:243,0
DA:245,0
DA:246,0
DA:248,0
DA:249,0
DA:250,0
DA:251,0
DA:253,0
DA:254,0
DA:256,0
DA:258,0
LF:116
LH:0
end_of_record
TN:
SF:/home/nn/redis/FalkorDB/deps/RediSearch/deps/friso/friso_UTF8.c
FN:119,169,unicode_to_utf8
FN:18,40,utf8_next_word
FN:205,231,utf8_cjk_string
FN:240,243,utf8_halfwidth_en_char
FN:253,258,utf8_fullwidth_en_char
FN:262,266,utf8_uppercase_letter
FN:270,274,utf8_lowercase_letter
FN:278,282,utf8_numeric_letter
FN:286,291,utf8_en_letter
FN:310,335,utf8_numeric_string
FN:337,363,utf8_decimal_string
FN:371,377,utf8_whitespace
FN:386,393,utf8_en_punctuation
FN:402,411,utf8_cn_punctuation
FN:419,422,utf8_letter_number
FN:430,433,utf8_other_number
FN:47,59,print_char_binary
FN:68,79,get_utf8_bytes
FN:87,116,get_utf8_unicode
FNDA:0,unicode_to_utf8
FNDA:0,utf8_next_word
FNDA:0,utf8_cjk_string
FNDA:0,utf8_halfwidth_en_char
FNDA:0,utf8_fullwidth_en_char
FNDA:0,utf8_uppercase_letter
FNDA:0,utf8_lowercase_letter
FNDA:0,utf8_numeric_letter
FNDA:0,utf8_en_letter
FNDA:0,utf8_numeric_string
FNDA:0,utf8_decimal_string
FNDA:0,utf8_whitespace
FNDA:0,utf8_en_punctuation
FNDA:0,utf8_cn_punctuation
FNDA:0,utf8_letter_number
FNDA:0,utf8_other_number
FNDA:0,print_char_binary
FNDA:0,get_utf8_bytes
FNDA:0,get_utf8_unicode
FNF:19
FNH:0
DA:18,0
DA:23,0
DA:26,0
DA:27,0
DA:28,0
DA:29,0
DA:30,0
DA:35,0
DA:36,0
DA:37,0
DA:39,0
DA:47,0
DA:51,0
DA:52,0
DA:53,0
DA:55,0
DA:57,0
DA:59,0
DA:68,0
DA:70,0
DA:73,0
DA:74,0
DA:75,0
DA:78,0
DA:87,0
DA:89,0
DA:90,0
DA:93,0
DA:94,0
DA:95,0
DA:96,0
DA:97,0
DA:98,0
DA:99,0
DA:101,0
DA:102,0
DA:103,0
DA:104,0
DA:105,0
DA:106,0
DA:107,0
DA:109,0
DA:110,0
DA:111,0
DA:115,0
DA:119,0
DA:121,0
DA:124,0
DA:125,0
DA:126,0
DA:129,0
DA:130,0
DA:131,0
DA:132,0
DA:135,0
DA:136,0
DA:137,0
DA:138,0
DA:139,0
DA:142,0
DA:143,0
DA:144,0
DA:145,0
DA:146,0
DA:147,0
DA:150,0
DA:151,0
DA:152,0
DA:153,0
DA:154,0
DA:155,0
DA:156,0
DA:159,0
DA:160,0
DA:161,0
DA:162,0
DA:163,0
DA:164,0
DA:165,0
DA:168,0
DA:205,0
DA:207,0
DA:210,0
DA:211,0
DA:212,0
DA:213,0
DA:214,0
DA:215,0
DA:230,0
DA:240,0
DA:242,0
DA:253,0
DA:255,0
DA:256,0
DA:257,0
DA:262,0
DA:264,0
DA:265,0
DA:270,0
DA:272,0
DA:273,0
DA:278,0
DA:280,0
DA:281,0
DA:286,0
DA:288,0
DA:289,0
DA:290,0
DA:310,0
DA:312,0
DA:315,0
DA:322,0
DA:323,0
DA:324,0
DA:325,0
DA:326,0
DA:327,0
DA:328,0
DA:331,0
DA:334,0
DA:337,0
DA:339,0
DA:340,0
DA:342,0
DA:344,0
DA:346,0
DA:347,0
DA:348,0
DA:349,0
DA:350,0
DA:352,0
DA:353,0
DA:354,0
DA:355,0
DA:356,0
DA:359,0
DA:362,0
DA:371,0
DA:373,0
DA:374,0
DA:376,0
DA:386,0
DA:389,0
DA:390,0
DA:391,0
DA:392,0
DA:402,0
DA:404,0
DA:405,0
DA:406,0
DA:407,0
DA:410,0
DA:419,0
DA:421,0
DA:430,0
DA:432,0
LF:156
LH:0
end_of_record
TN:
SF:/home/nn/redis/FalkorDB/deps/RediSearch/deps/friso/friso_array.c
FN:107,131,array_list_insert
FN:134,140,array_list_get
FN:144,155,array_list_set
FN:15,29,create_array_entries
FN:159,176,array_list_remove
FN:179,185,array_list_trim
FN:193,206,array_list_clear
FN:32,48,resize_array_list
FN:60,74,new_array_list_with_opacity
FN:80,94,free_array_list
FN:97,104,array_list_add
FNDA:0,array_list_insert
FNDA:0,array_list_get
FNDA:0,array_list_set
FNDA:0,create_array_entries
FNDA:0,array_list_remove
FNDA:0,array_list_trim
FNDA:0,array_list_clear
FNDA:0,resize_array_list
FNDA:0,new_array_list_with_opacity
FNDA:0,free_array_list
FNDA:0,array_list_add
FNF:11
FNH:0
DA:15,0
DA:18,0
DA:19,0
DA:20,0
DA:24,0
DA:25,0
DA:28,0
DA:32,0
DA:37,0
DA:39,0
DA:40,0
DA:43,0
DA:44,0
DA:45,0
DA:47,0
DA:60,0
DA:63,0
DA:64,0
DA:65,0
DA:69,0
DA:70,0
DA:71,0
DA:73,0
DA:80,0
DA:92,0
DA:93,0
DA:94,0
DA:97,0
DA:100,0
DA:101,0
DA:103,0
DA:104,0
DA:107,0
DA:114,0
DA:116,0
DA:117,0
DA:124,0
DA:125,0
DA:128,0
DA:129,0
DA:131,0
DA:134,0
DA:136,0
DA:137,0
DA:139,0
DA:144,0
DA:149,0
DA:150,0
DA:151,0
DA:152,0
DA:154,0
DA:159,0
DA:163,0
DA:165,0
DA:166,0
DA:168,0
DA:169,0
DA:171,0
DA:172,0
DA:175,0
DA:179,0
DA:181,0
DA:182,0
DA:184,0
DA:193,0
DA:197,0
DA:200,0
DA:203,0
DA:205,0
LF:69
LH:0
end_of_record
TN:
SF:/home/nn/redis/FalkorDB/deps/RediSearch/deps/friso/friso_ctype.c
FN:104,115,friso_en_punctuation
FN:118,129,friso_cn_punctuation
FN:131,136,friso_letter_number
FN:138,143,friso_other_number
FN:160,170,is_en_punctuation
FN:173,184,friso_numeric_string
FN:18,29,friso_cn_string
FN:187,197,friso_decimal_string
FN:201,212,friso_uppercase_letter
FN:218,241,friso_enchar_type
FN:247,259,get_enchar_type
FN:32,43,friso_whitespace
FN:46,57,friso_numeric_letter
FN:60,71,friso_en_letter
FN:75,86,friso_halfwidth_en_char
FN:90,101,friso_fullwidth_en_char
FNDA:0,friso_en_punctuation
FNDA:0,friso_cn_punctuation
FNDA:0,friso_letter_number
FNDA:0,friso_other_number
FNDA:0,is_en_punctuation
FNDA:0,friso_numeric_string
FNDA:0,friso_cn_string
FNDA:0,friso_decimal_string
FNDA:0,friso_uppercase_letter
FNDA:0,friso_enchar_type
FNDA:0,get_enchar_type
FNDA:0,friso_whitespace
FNDA:0,friso_numeric_letter
FNDA:0,friso_en_letter
FNDA:0,friso_halfwidth_en_char
FNDA:0,friso_fullwidth_en_char
FNF:16
FNH:0
DA:18,0
DA:22,0
DA:23,0
DA:24,0
DA:25,0
DA:28,0
DA:32,0
DA:36,0
DA:37,0
DA:38,0
DA:39,0
DA:42,0
DA:46,0
DA:50,0
DA:51,0
DA:52,0
DA:53,0
DA:56,0
DA:60,0
DA:64,0
DA:65,0
DA:66,0
DA:67,0
DA:70,0
DA:75,0
DA:79,0
DA:80,0
DA:81,0
DA:82,0
DA:85,0
DA:90,0
DA:94,0
DA:95,0
DA:96,0
DA:97,0
DA:100,0
DA:104,0
DA:108,0
DA:109,0
DA:110,0
DA:111,0
DA:114,0
DA:118,0
DA:122,0
DA:123,0
DA:124,0
DA:125,0
DA:128,0
DA:131,0
DA:135,0
DA:138,0
DA:142,0
DA:160,0
DA:163,0
DA:164,0
DA:165,0
DA:166,0
DA:169,0
DA:173,0
DA:177,0
DA:178,0
DA:179,0
DA:180,0
DA:183,0
DA:187,0
DA:190,0
DA:191,0
DA:192,0
DA:193,0
DA:196,0
DA:201,0
DA:205,0
DA:206,0
DA:207,0
DA:208,0
DA:211,0
DA:218,0
DA:223,0
DA:225,0
DA:226,0
DA:228,0
DA:229,0
DA:234,0
DA:235,0
DA:236,0
DA:237,0
DA:238,0
DA:240,0
DA:247,0
DA:249,0
DA:252,0
DA:253,0
DA:254,0
DA:255,0
DA:256,0
DA:258,0
LF:96
LH:0
end_of_record
TN:
SF:/home/nn/redis/FalkorDB/deps/RediSearch/deps/friso/friso_hash.c
FN:116,145,rebuild_hash
FN:152,167,new_hash_table
FN:169,189,free_hash_table
FN:19,29,hash
FN:194,225,hash_put_mapping
FN:228,244,hash_exist_mapping
FN:247,262,hash_get_value
FN:265,292,hash_remove_mapping
FN:32,50,is_prime
FN:53,59,next_prime
FN:79,96,new_hash_entry
FN:99,113,create_hash_entries
FNDA:0,rebuild_hash
FNDA:0,new_hash_table
FNDA:0,free_hash_table
FNDA:0,hash
FNDA:0,hash_put_mapping
FNDA:0,hash_exist_mapping
FNDA:0,hash_get_value
FNDA:0,hash_remove_mapping
FNDA:0,is_prime
FNDA:0,next_prime
FNDA:0,new_hash_entry
FNDA:0,create_hash_entries
FNF:12
FNH:0
DA:19,0
DA:22,0
DA:24,0
DA:25,0
DA:28,0
DA:32,0
DA:35,0
DA:36,0
DA:39,0
DA:40,0
DA:43,0
DA:44,0
DA:45,0
DA:49,0
DA:53,0
DA:55,0
DA:56,0
DA:58,0
DA:79,0
DA:85,0
DA:86,0
DA:87,0
DA:91,0
DA:92,0
DA:93,0
DA:95,0
DA:99,0
DA:103,0
DA:104,0
DA:105,0
DA:108,0
DA:109,0
DA:112,0
DA:116,0
DA:120,0
DA:121,0
DA:122,0
DA:126,0
DA:127,0
DA:128,0
DA:130,0
DA:131,0
DA:132,0
DA:133,0
DA:134,0
DA:135,0
DA:139,0
DA:140,0
DA:141,0
DA:144,0
DA:145,0
DA:152,0
DA:154,0
DA:155,0
DA:156,0
DA:160,0
DA:161,0
DA:162,0
DA:163,0
DA:164,0
DA:166,0
DA:169,0
DA:176,0
DA:177,0
DA:178,0
DA:179,0
DA:180,0
DA:181,0
DA:182,0
DA:187,0
DA:188,0
DA:189,0
DA:194,0
DA:199,0
DA:200,0
DA:201,0
DA:204,0
DA:205,0
DA:206,0
DA:207,0
DA:208,0
DA:209,0
DA:210,0
DA:211,0
DA:216,0
DA:217,0
DA:220,0
DA:221,0
DA:224,0
DA:228,0
DA:231,0
DA:234,0
DA:235,0
DA:236,0
DA:237,0
DA:238,0
DA:239,0
DA:243,0
DA:247,0
DA:249,0
DA:252,0
DA:253,0
DA:254,0
DA:255,0
DA:256,0
DA:257,0
DA:261,0
DA:265,0
DA:268,0
DA:269,0
DA:272,0
DA:273,0
DA:274,0
DA:275,0
DA:276,0
DA:277,0
DA:279,0
DA:280,0
DA:282,0
DA:285,0
DA:287,0
DA:291,0
LF:122
LH:0
end_of_record
TN:
SF:/home/nn/redis/FalkorDB/deps/RediSearch/deps/friso/friso_lexicon.c
FN:109,128,free_lex_entry_full
FN:130,138,free_lex_entry
FN:142,158,friso_dic_add
FN:160,176,friso_dic_add_with_fre
FN:17,31,friso_dic_new
FN:184,197,file_get_line
FN:203,219,string_copy
FN:229,246,string_copy_heap
FN:275,377,friso_dic_load
FN:388,417,get_lexicon_type_with_constant
FN:39,58,default_fdic_callback
FN:428,510,friso_dic_load_from_ifile
FN:513,522,friso_dic_match
FN:525,534,friso_dic_get
FN:537,545,friso_spec_dic_size
FN:548,558,friso_all_dic_size
FN:60,69,friso_dic_free
FN:73,99,new_lex_entry
FNDA:0,free_lex_entry_full
FNDA:0,free_lex_entry
FNDA:0,friso_dic_add
FNDA:0,friso_dic_add_with_fre
FNDA:0,friso_dic_new
FNDA:0,file_get_line
FNDA:0,string_copy
FNDA:0,string_copy_heap
FNDA:0,friso_dic_load
FNDA:0,get_lexicon_type_with_constant
FNDA:0,default_fdic_callback
FNDA:0,friso_dic_load_from_ifile
FNDA:0,friso_dic_match
FNDA:0,friso_dic_get
FNDA:0,friso_spec_dic_size
FNDA:0,friso_all_dic_size
FNDA:0,friso_dic_free
FNDA:0,new_lex_entry
FNF:18
FNH:0
DA:17,0
DA:20,0
DA:22,0
DA:23,0
DA:26,0
DA:27,0
DA:30,0
DA:39,0
DA:43,0
DA:45,0
DA:47,0
DA:48,0
DA:49,0
DA:50,0
DA:52,0
DA:57,0
DA:58,0
DA:60,0
DA:63,0
DA:65,0
DA:68,0
DA:69,0
DA:73,0
DA:81,0
DA:82,0
DA:83,0
DA:87,0
DA:88,0
DA:89,0
DA:91,0
DA:92,0
DA:93,0
DA:94,0
DA:95,0
DA:96,0
DA:98,0
DA:109,0
DA:115,0
DA:117,0
DA:118,0
DA:119,0
DA:120,0
DA:122,0
DA:127,0
DA:128,0
DA:130,0
DA:137,0
DA:138,0
DA:142,0
DA:148,0
DA:149,0
DA:151,0
DA:152,0
DA:153,0
DA:154,0
DA:155,0
DA:158,0
DA:160,0
DA:167,0
DA:168,0
DA:169,0
DA:170,0
DA:171,0
DA:172,0
DA:173,0
DA:176,0
DA:184,0
DA:189,0
DA:190,0
DA:191,0
DA:192,0
DA:194,0
DA:196,0
DA:203,0
DA:209,0
DA:212,0
DA:213,0
DA:214,0
DA:216,0
DA:218,0
DA:229,0
DA:234,0
DA:235,0
DA:236,0
DA:239,0
DA:241,0
DA:244,0
DA:245,0
DA:275,0
DA:294,0
DA:295,0
DA:299,0
DA:302,0
DA:304,0
DA:305,0
DA:306,0
DA:307,0
DA:311,0
DA:312,0
DA:313,0
DA:317,0
DA:319,0
DA:322,0
DA:323,0
DA:332,0
DA:333,0
DA:334,0
DA:335,0
DA:339,0
DA:340,0
DA:341,0
DA:345,0
DA:346,0
DA:347,0
DA:355,0
DA:356,0
DA:357,0
DA:358,0
DA:359,0
DA:360,0
DA:361,0
DA:362,0
DA:364,0
DA:368,0
DA:372,0
DA:374,0
DA:375,0
DA:377,0
DA:388,0
DA:390,0
DA:391,0
DA:392,0
DA:393,0
DA:394,0
DA:395,0
DA:396,0
DA:397,0
DA:398,0
DA:399,0
DA:400,0
DA:401,0
DA:402,0
DA:403,0
DA:404,0
DA:405,0
DA:406,0
DA:407,0
DA:408,0
DA:409,0
DA:410,0
DA:411,0
DA:412,0
DA:413,0
DA:416,0
DA:428,0
DA:443,0
DA:445,0
DA:446,0
DA:449,0
DA:450,0
DA:451,0
DA:453,0
DA:454,0
DA:456,0
DA:458,0
DA:460,0
DA:461,0
DA:462,0
DA:463,0
DA:464,0
DA:465,0
DA:467,0
DA:470,0
DA:471,0
DA:474,0
DA:476,0
DA:477,0
DA:479,0
DA:480,0
DA:482,0
DA:483,0
DA:484,0
DA:485,0
DA:486,0
DA:487,0
DA:489,0
DA:492,0
DA:493,0
DA:494,0
DA:496,0
DA:503,0
DA:505,0
DA:506,0
DA:509,0
DA:510,0
DA:513,0
DA:518,0
DA:519,0
DA:521,0
DA:525,0
DA:530,0
DA:531,0
DA:533,0
DA:537,0
DA:541,0
DA:542,0
DA:544,0
DA:548,0
DA:551,0
DA:553,0
DA:554,0
DA:557,0
LF:212
LH:0
end_of_record
TN:
SF:/home/nn/redis/FalkorDB/deps/RediSearch/deps/friso/friso_link.c
FN:13,29,new_node_entry
FN:150,162,remove_node
FN:166,170,link_list_add
FN:173,180,link_list_insert_before
FN:187,195,link_list_get
FN:204,217,link_list_set
FN:225,236,link_list_remove
FN:244,249,link_list_remove_node
FN:252,259,link_list_remove_first
FN:262,269,link_list_remove_last
FN:272,277,link_list_add_last
FN:280,284,link_list_add_first
FN:32,47,new_link_list
FN:50,60,free_link_list
FN:63,80,link_list_clear
FN:97,117,get_node
FNDA:0,new_node_entry
FNDA:0,remove_node
FNDA:0,link_list_add
FNDA:0,link_list_insert_before
FNDA:0,link_list_get
FNDA:0,link_list_set
FNDA:0,link_list_remove
FNDA:0,link_list_remove_node
FNDA:0,link_list_remove_first
FNDA:0,link_list_remove_last
FNDA:0,link_list_add_last
FNDA:0,link_list_add_first
FNDA:0,new_link_list
FNDA:0,free_link_list
FNDA:0,link_list_clear
FNDA:0,get_node
FNF:16
FNH:0
DA:13,0
DA:19,0
DA:20,0
DA:21,0
DA:24,0
DA:25,0
DA:26,0
DA:28,0
DA:32,0
DA:35,0
DA:36,0
DA:37,0
DA:41,0
DA:42,0
DA:43,0
DA:44,0
DA:46,0
DA:50,0
DA:53,0
DA:54,0
DA:55,0
DA:56,0
DA:59,0
DA:60,0
DA:63,0
DA:68,0
DA:70,0
DA:71,0
DA:72,0
DA:75,0
DA:76,0
DA:77,0
DA:79,0
DA:97,0
DA:100,0
DA:103,0
DA:105,0
DA:106,0
DA:107,0
DA:108,0
DA:110,0
DA:111,0
DA:112,0
DA:116,0
DA:150,0
DA:153,0
DA:155,0
DA:156,0
DA:157,0
DA:159,0
DA:161,0
DA:166,0
DA:169,0
DA:170,0
DA:173,0
DA:176,0
DA:177,0
DA:178,0
DA:180,0
DA:187,0
DA:190,0
DA:191,0
DA:192,0
DA:194,0
DA:204,0
DA:208,0
DA:209,0
DA:211,0
DA:212,0
DA:213,0
DA:216,0
DA:225,0
DA:228,0
DA:230,0
DA:232,0
DA:235,0
DA:244,0
DA:248,0
DA:252,0
DA:255,0
DA:256,0
DA:258,0
DA:262,0
DA:265,0
DA:266,0
DA:268,0
DA:272,0
DA:276,0
DA:277,0
DA:280,0
DA:283,0
DA:284,0
LF:92
LH:0
end_of_record
TN:
SF:/home/nn/redis/FalkorDB/deps/RediSearch/deps/friso/friso_string.c
FN:105,122,string_buffer_append
FN:124,133,string_buffer_append_char
FN:135,140,string_buffer_insert
FN:148,170,string_buffer_remove
FN:176,183,string_buffer_trim
FN:191,196,string_buffer_devote
FN:202,206,string_buffer_clear
FN:209,213,free_string_buffer
FN:222,239,new_string_split
FN:241,251,string_split_reset
FN:25,35,create_buffer
FN:253,259,string_split_set_source
FN:261,267,string_split_set_delimiter
FN:269,272,free_string_split
FN:283,317,string_split_next
FN:38,56,resize_buffer
FN:65,78,new_string_buffer_with_opacity
FN:81,103,new_string_buffer_with_string
FNDA:0,string_buffer_append
FNDA:0,string_buffer_append_char
FNDA:0,string_buffer_insert
FNDA:0,string_buffer_remove
FNDA:0,string_buffer_trim
FNDA:0,string_buffer_devote
FNDA:0,string_buffer_clear
FNDA:0,free_string_buffer
FNDA:0,new_string_split
FNDA:0,string_split_reset
FNDA:0,create_buffer
FNDA:0,string_split_set_source
FNDA:0,string_split_set_delimiter
FNDA:0,free_string_split
FNDA:0,string_split_next
FNDA:0,resize_buffer
FNDA:0,new_string_buffer_with_opacity
FNDA:0,new_string_buffer_with_string
FNF:18
FNH:0
DA:25,0
DA:27,0
DA:28,0
DA:29,0
DA:32,0
DA:34,0
DA:38,0
DA:43,0
DA:49,0
DA:50,0
DA:52,0
DA:53,0
DA:55,0
DA:65,0
DA:68,0
DA:69,0
DA:70,0
DA:73,0
DA:74,0
DA:75,0
DA:77,0
DA:81,0
DA:85,0
DA:86,0
DA:87,0
DA:91,0
DA:92,0
DA:93,0
DA:100,0
DA:102,0
DA:105,0
DA:108,0
DA:111,0
DA:112,0
DA:120,0
DA:121,0
DA:122,0
DA:124,0
DA:128,0
DA:129,0
DA:132,0
DA:133,0
DA:135,0
DA:140,0
DA:148,0
DA:155,0
DA:156,0
DA:158,0
DA:163,0
DA:164,0
DA:165,0
DA:167,0
DA:169,0
DA:176,0
DA:179,0
DA:180,0
DA:182,0
DA:191,0
DA:193,0
DA:194,0
DA:195,0
DA:202,0
DA:204,0
DA:205,0
DA:206,0
DA:209,0
DA:211,0
DA:212,0
DA:213,0
DA:222,0
DA:227,0
DA:228,0
DA:229,0
DA:232,0
DA:233,0
DA:234,0
DA:235,0
DA:236,0
DA:238,0
DA:241,0
DA:246,0
DA:247,0
DA:248,0
DA:249,0
DA:250,0
DA:251,0
DA:253,0
DA:256,0
DA:257,0
DA:258,0
DA:259,0
DA:261,0
DA:264,0
DA:265,0
DA:266,0
DA:267,0
DA:269,0
DA:271,0
DA:272,0
DA:283,0
DA:287,0
DA:290,0
DA:293,0
DA:294,0
DA:295,0
DA:296,0
DA:297,0
DA:298,0
DA:304,0
DA:305,0
DA:306,0
DA:310,0
DA:312,0
DA:315,0
DA:316,0
LF:115
LH:0
end_of_record
TN:
SF:/home/nn/redis/FalkorDB/deps/RediSearch/deps/geohash/geohash.c
FN:112,119,geohashGetCoordRange
FN:121,151,geohashEncode
FN:153,157,geohashEncodeType
FN:159,162,geohashEncodeWGS84
FN:164,194,geohashDecode
FN:196,200,geohashDecodeType
FN:202,204,geohashDecodeWGS84
FN:206,215,geohashDecodeAreaToLongLat
FN:217,222,geohashDecodeToLongLatType
FN:224,226,geohashDecodeToLongLatWGS84
FN:228,246,geohash_move_x
FN:248,264,geohash_move_y
FN:266,299,geohashNeighbors
FN:52,77,interleave64
FN:82,110,deinterleave64
FNDA:0,geohashGetCoordRange
FNDA:0,geohashEncode
FNDA:0,geohashEncodeType
FNDA:0,geohashEncodeWGS84
FNDA:0,geohashDecode
FNDA:0,geohashDecodeType
FNDA:0,geohashDecodeWGS84
FNDA:0,geohashDecodeAreaToLongLat
FNDA:0,geohashDecodeToLongLatType
FNDA:0,geohashDecodeToLongLatWGS84
FNDA:0,geohash_move_x
FNDA:0,geohash_move_y
FNDA:0,geohashNeighbors
FNDA:0,interleave64
FNDA:0,deinterleave64
FNF:15
FNH:0
DA:52,0
DA:58,0
DA:59,0
DA:61,0
DA:62,0
DA:64,0
DA:65,0
DA:67,0
DA:68,0
DA:70,0
DA:71,0
DA:73,0
DA:74,0
DA:76,0
DA:82,0
DA:88,0
DA:89,0
DA:91,0
DA:92,0
DA:94,0
DA:95,0
DA:97,0
DA:98,0
DA:100,0
DA:101,0
DA:103,0
DA:104,0
DA:106,0
DA:107,0
DA:109,0
DA:112,0
DA:115,0
DA:116,0
DA:117,0
DA:118,0
DA:119,0
DA:121,0
DA:125,0
DA:126,0
DA:130,0
DA:131,0
DA:133,0
DA:134,0
DA:136,0
DA:137,0
DA:138,0
DA:141,0
DA:142,0
DA:143,0
DA:144,0
DA:147,0
DA:148,0
DA:149,0
DA:150,0
DA:153,0
DA:154,0
DA:155,0
DA:156,0
DA:159,0
DA:161,0
DA:164,0
DA:166,0
DA:167,0
DA:168,0
DA:171,0
DA:172,0
DA:173,0
DA:175,0
DA:176,0
DA:178,0
DA:179,0
DA:184,0
DA:185,0
DA:186,0
DA:187,0
DA:188,0
DA:189,0
DA:190,0
DA:191,0
DA:193,0
DA:196,0
DA:197,0
DA:198,0
DA:199,0
DA:202,0
DA:203,0
DA:206,0
DA:207,0
DA:208,0
DA:209,0
DA:210,0
DA:211,0
DA:212,0
DA:213,0
DA:214,0
DA:217,0
DA:218,0
DA:219,0
DA:220,0
DA:221,0
DA:224,0
DA:225,0
DA:228,0
DA:229,0
DA:230,0
DA:232,0
DA:233,0
DA:235,0
DA:237,0
DA:238,0
DA:240,0
DA:241,0
DA:244,0
DA:245,0
DA:248,0
DA:249,0
DA:250,0
DA:252,0
DA:253,0
DA:255,0
DA:256,0
DA:257,0
DA:259,0
DA:260,0
DA:262,0
DA:263,0
DA:266,0
DA:267,0
DA:268,0
DA:269,0
DA:270,0
DA:271,0
DA:272,0
DA:273,0
DA:274,0
DA:276,0
DA:277,0
DA:279,0
DA:280,0
DA:282,0
DA:283,0
DA:285,0
DA:286,0
DA:288,0
DA:289,0
DA:291,0
DA:292,0
DA:294,0
DA:295,0
DA:297,0
DA:298,0
DA:299,0
LF:152
LH:0
end_of_record
TN:
SF:/home/nn/redis/FalkorDB/deps/RediSearch/deps/geohash/geohash_helper.c
FN:101,110,geohashBoundingBox
FN:114,195,geohashGetAreasByRadius
FN:197,200,geohashGetAreasByRadiusWGS84
FN:202,206,geohashAlign52Bits
FN:209,219,geohashGetDistance
FN:221,227,geohashGetDistanceIfInRadius
FN:229,233,geohashGetDistanceIfInRadiusWGS84
FN:55,55,deg_rad
FN:56,56,rad_deg
FN:60,81,geohashEstimateStepsByRadius
FNDA:0,geohashBoundingBox
FNDA:0,geohashGetAreasByRadius
FNDA:0,geohashGetAreasByRadiusWGS84
FNDA:0,geohashAlign52Bits
FNDA:0,geohashGetDistance
FNDA:0,geohashGetDistanceIfInRadius
FNDA:0,geohashGetDistanceIfInRadiusWGS84
FNDA:0,deg_rad
FNDA:0,rad_deg
FNDA:0,geohashEstimateStepsByRadius
FNF:10
FNH:0
DA:55,0
DA:56,0
DA:60,0
DA:61,0
DA:62,0
DA:63,0
DA:64,0
DA:65,0
DA:67,0
DA:72,0
DA:73,0
DA:74,0
DA:78,0
DA:79,0
DA:80,0
DA:101,0
DA:103,0
DA:105,0
DA:106,0
DA:107,0
DA:108,0
DA:109,0
DA:114,0
DA:124,0
DA:125,0
DA:126,0
DA:127,0
DA:128,0
DA:130,0
DA:132,0
DA:133,0
DA:134,0
DA:135,0
DA:142,0
DA:146,0
DA:147,0
DA:148,0
DA:149,0
DA:151,0
DA:152,0
DA:153,0
DA:154,0
DA:155,0
DA:156,0
DA:157,0
DA:158,0
DA:161,0
DA:162,0
DA:163,0
DA:164,0
DA:165,0
DA:169,0
DA:170,0
DA:171,0
DA:172,0
DA:173,0
DA:175,0
DA:176,0
DA:177,0
DA:178,0
DA:180,0
DA:181,0
DA:182,0
DA:183,0
DA:185,0
DA:186,0
DA:187,0
DA:188,0
DA:191,0
DA:192,0
DA:193,0
DA:194,0
DA:197,0
DA:199,0
DA:202,0
DA:203,0
DA:204,0
DA:205,0
DA:209,0
DA:211,0
DA:212,0
DA:213,0
DA:214,0
DA:215,0
DA:216,0
DA:217,0
DA:218,0
DA:221,0
DA:224,0
DA:225,0
DA:226,0
DA:229,0
DA:232,0
LF:93
LH:0
end_of_record
TN:
SF:/home/nn/redis/FalkorDB/deps/RediSearch/deps/libnu/casemap_internal.h
FN:14,19,_nu_to_something
FNDA:0,_nu_to_something
FNF:1
FNH:0
DA:14,0
DA:18,0
LF:2
LH:0
end_of_record
TN:
SF:/home/nn/redis/FalkorDB/deps/RediSearch/deps/libnu/extra.c
FN:136,138,nu_readstr
FN:140,142,nu_writestr
FN:144,147,nu_transformstr
FN:149,153,nu_strtransformlen
FN:155,160,_nu_strtransformlen
FN:166,169,nu_readnstr
FN:171,174,nu_writenstr
FN:176,179,nu_transformnstr
FN:181,185,nu_strtransformnlen
FN:187,192,_nu_strtransformnlen
FN:24,39,_nu_writestr
FN:41,57,_nu_transformstr
FN:59,93,_nu_strtransformnlen_unconditional
FN:7,22,_nu_readstr
FN:95,130,_nu_strtransformnlen_internal
FNDA:0,nu_readstr
FNDA:0,nu_writestr
FNDA:0,nu_transformstr
FNDA:0,nu_strtransformlen
FNDA:0,_nu_strtransformlen
FNDA:0,nu_readnstr
FNDA:0,nu_writenstr
FNDA:0,nu_transformnstr
FNDA:0,nu_strtransformnlen
FNDA:0,_nu_strtransformnlen
FNDA:0,_nu_writestr
FNDA:0,_nu_transformstr
FNDA:0,_nu_strtransformnlen_unconditional
FNDA:0,_nu_readstr
FNDA:0,_nu_strtransformnlen_internal
FNF:15
FNH:0
DA:7,0
DA:8,0
DA:9,0
DA:11,0
DA:12,0
DA:14,0
DA:15,0
DA:18,0
DA:21,0
DA:24,0
DA:25,0
DA:26,0
DA:28,0
DA:29,0
DA:31,0
DA:32,0
DA:35,0
DA:38,0
DA:41,0
DA:42,0
DA:43,0
DA:45,0
DA:46,0
DA:48,0
DA:49,0
DA:51,0
DA:52,0
DA:56,0
DA:59,0
DA:62,0
DA:63,0
DA:65,0
DA:67,0
DA:69,0
DA:70,0
DA:73,0
DA:75,0
DA:76,0
DA:77,0
DA:80,0
DA:82,0
DA:84,0
DA:85,0
DA:88,0
DA:92,0
DA:95,0
DA:99,0
DA:100,0
DA:102,0
DA:103,0
DA:104,0
DA:106,0
DA:108,0
DA:109,0
DA:112,0
DA:113,0
DA:114,0
DA:117,0
DA:119,0
DA:121,0
DA:122,0
DA:125,0
DA:129,0
DA:136,0
DA:137,0
DA:140,0
DA:141,0
DA:144,0
DA:146,0
DA:149,0
DA:151,0
DA:155,0
DA:158,0
DA:166,0
DA:168,0
DA:171,0
DA:173,0
DA:176,0
DA:178,0
DA:181,0
DA:183,0
DA:187,0
DA:190,0
LF:83
LH:0
end_of_record
TN:
SF:/home/nn/redis/FalkorDB/deps/RediSearch/deps/libnu/mph.h
FN:26,32,_nu_hash
FN:37,46,nu_mph_hash
FN:51,63,nu_mph_lookup
FNDA:0,_nu_hash
FNDA:0,nu_mph_hash
FNDA:0,nu_mph_lookup
FNF:3
FNH:0
DA:26,0
DA:27,0
DA:28,0
DA:31,0
DA:37,0
DA:40,0
DA:41,0
DA:42,0
DA:43,0
DA:45,0
DA:51,0
DA:54,0
DA:55,0
DA:62,0
LF:14
LH:0
end_of_record
TN:
SF:/home/nn/redis/FalkorDB/deps/RediSearch/deps/libnu/strings.c
FN:24,42,_nu_bytelen
FN:44,59,_nu_strbytelen
FN:6,22,_nu_strlen
FN:65,67,nu_strlen
FN:69,71,nu_bytelen
FN:73,75,nu_strbytelen
FN:81,83,nu_strnlen
FN:85,87,nu_bytenlen
FNDA:0,_nu_bytelen
FNDA:0,_nu_strbytelen
FNDA:0,_nu_strlen
FNDA:0,nu_strlen
FNDA:0,nu_bytelen
FNDA:0,nu_strbytelen
FNDA:0,nu_strnlen
FNDA:0,nu_bytenlen
FNF:8
FNH:0
DA:6,0
DA:7,0
DA:9,0
DA:10,0
DA:11,0
DA:12,0
DA:14,0
DA:15,0
DA:18,0
DA:21,0
DA:24,0
DA:25,0
DA:27,0
DA:28,0
DA:29,0
DA:30,0
DA:35,0
DA:36,0
DA:38,0
DA:41,0
DA:44,0
DA:45,0
DA:46,0
DA:48,0
DA:49,0
DA:51,0
DA:52,0
DA:55,0
DA:58,0
DA:65,0
DA:66,0
DA:69,0
DA:70,0
DA:73,0
DA:74,0
DA:81,0
DA:82,0
DA:85,0
DA:86,0
LF:39
LH:0
end_of_record
TN:
SF:/home/nn/redis/FalkorDB/deps/RediSearch/deps/libnu/tofold.c
FN:13,30,_nu_tofold
FN:8,11,nu_tofold
FNDA:0,_nu_tofold
FNDA:0,nu_tofold
FNF:2
FNH:0
DA:8,0
DA:9,0
DA:13,0
DA:20,0
DA:21,0
DA:23,0
DA:25,0
DA:26,0
DA:29,0
LF:9
LH:0
end_of_record
TN:
SF:/home/nn/redis/FalkorDB/deps/RediSearch/deps/libnu/udb.h
FN:36,44,nu_udb_lookup_value
FN:61,73,nu_udb_lookup
FNDA:0,nu_udb_lookup_value
FNDA:0,nu_udb_lookup
FNF:2
FNH:0
DA:36,0
DA:40,0
DA:41,0
DA:43,0
DA:61,0
DA:65,0
DA:68,0
DA:69,0
DA:72,0
LF:9
LH:0
end_of_record
TN:
SF:/home/nn/redis/FalkorDB/deps/RediSearch/deps/libnu/utf8.c
FN:6,75,nu_utf8_validread
FN:82,95,nu_utf8_write
FNDA:0,nu_utf8_validread
FNDA:0,nu_utf8_write
FNF:2
FNH:0
DA:6,0
DA:7,0
DA:9,0
DA:10,0
DA:16,0
DA:20,0
DA:21,0
DA:23,0
DA:24,0
DA:29,0
DA:32,0
DA:33,0
DA:38,0
DA:40,0
DA:41,0
DA:43,0
DA:44,0
DA:50,0
DA:53,0
DA:54,0
DA:56,0
DA:57,0
DA:60,0
DA:62,0
DA:63,0
DA:69,0
DA:74,0
DA:82,0
DA:83,0
DA:85,0
DA:86,0
DA:87,0
DA:88,0
DA:89,0
DA:90,0
DA:94,0
LF:36
LH:0
end_of_record
TN:
SF:/home/nn/redis/FalkorDB/deps/RediSearch/deps/libnu/utf8.h
FN:34,62,nu_utf8_read
FNDA:0,nu_utf8_read
FNF:1
FNH:0
DA:34,0
DA:35,0
DA:37,0
DA:38,0
DA:39,0
DA:40,0
DA:42,0
DA:44,0
DA:45,0
DA:46,0
DA:48,0
DA:51,0
DA:52,0
DA:54,0
DA:57,0
DA:58,0
DA:61,0
LF:17
LH:0
end_of_record
TN:
SF:/home/nn/redis/FalkorDB/deps/RediSearch/deps/libnu/utf8_internal.h
FN:116,135,b4_utf8
FN:138,166,utf8_validread_basic
FN:19,31,utf8_2b
FN:34,48,utf8_3b
FN:51,69,utf8_4b
FN:7,16,utf8_char_length
FN:72,78,utf8_codepoint_length
FN:81,94,b2_utf8
FN:97,113,b3_utf8
FNDA:0,b4_utf8
FNDA:0,utf8_validread_basic
FNDA:0,utf8_2b
FNDA:0,utf8_3b
FNDA:0,utf8_4b
FNDA:0,utf8_char_length
FNDA:0,utf8_codepoint_length
FNDA:0,b2_utf8
FNDA:0,b3_utf8
FNF:9
FNH:0
DA:7,0
DA:8,0
DA:10,0
DA:11,0
DA:12,0
DA:13,0
DA:15,0
DA:19,0
DA:20,0
DA:29,0
DA:30,0
DA:31,0
DA:34,0
DA:35,0
DA:45,0
DA:46,0
DA:47,0
DA:48,0
DA:51,0
DA:52,0
DA:65,0
DA:66,0
DA:67,0
DA:68,0
DA:69,0
DA:72,0
DA:73,0
DA:74,0
DA:75,0
DA:77,0
DA:81,0
DA:82,0
DA:92,0
DA:93,0
DA:94,0
DA:97,0
DA:98,0
DA:110,0
DA:111,0
DA:112,0
DA:113,0
DA:116,0
DA:117,0
DA:131,0
DA:132,0
DA:133,0
DA:134,0
DA:135,0
DA:138,0
DA:139,0
DA:144,0
DA:150,0
DA:151,0
DA:154,0
DA:155,0
DA:156,0
DA:157,0
DA:158,0
DA:160,0
DA:161,0
DA:162,0
DA:165,0
LF:62
LH:0
end_of_record
TN:
SF:/home/nn/redis/FalkorDB/deps/RediSearch/deps/miniz/miniz.c
FN:1030,1050,tdefl_start_static_block
FN:1055,1147,tdefl_compress_lz_codes
FN:1197,1204,tdefl_compress_block
FN:1206,1339,tdefl_flush_block
FN:1458,1625,tdefl_compress_fast
FN:155,158,mz_free
FN:160,164,miniz_def_alloc_func
FN:165,169,miniz_def_free_func
FN:1671,1814,tdefl_compress_normal
FN:170,174,miniz_def_realloc_func
FN:176,179,mz_version
FN:1816,1835,tdefl_flush_output_buffer
FN:183,186,mz_deflateInit
FN:1837,1903,tdefl_compress
FN:188,222,mz_deflateInit2
FN:1905,1909,tdefl_compress_buffer
FN:1911,1944,tdefl_init
FN:1946,1949,tdefl_get_prev_return_status
FN:1951,1954,tdefl_get_adler32
FN:1956,1969,tdefl_compress_mem_to_output
FN:1978,2001,tdefl_output_buffer_putter
FN:2003,2016,tdefl_compress_mem_to_heap
FN:2018,2029,tdefl_compress_mem_to_mem
FN:2034,2052,tdefl_create_comp_flags_from_zip_params
FN:2062,2139,tdefl_write_image_to_png_file_in_memory_ex
FN:2140,2144,tdefl_write_image_to_png_file_in_memory
FN:2149,2152,tdefl_compressor_alloc
FN:2154,2157,tdefl_compressor_free
FN:224,231,mz_deflateReset
FN:233,289,mz_deflate
FN:2339,2804,tinfl_decompress
FN:2807,2843,tinfl_decompress_mem_to_heap
FN:2845,2852,tinfl_decompress_mem_to_mem
FN:2854,2881,tinfl_decompress_mem_to_callback
FN:2883,2889,tinfl_decompressor_alloc
FN:2891,2894,tinfl_decompressor_free
FN:291,301,mz_deflateEnd
FN:303,308,mz_deflateBound
FN:310,338,mz_compress2
FN:3201,3219,mz_zip_array_ensure_capacity
FN:3257,3269,mz_zip_dos_to_time_t
FN:3272,3290,mz_zip_time_t_to_dos_time
FN:3295,3306,mz_zip_get_file_modified_time
FN:3309,3318,mz_zip_set_file_times
FN:3329,3361,mz_zip_reader_init_internal
FN:3392,3442,mz_zip_reader_sort_central_dir_offsets_by_filename
FN:340,343,mz_compress
FN:3444,3488,mz_zip_reader_locate_header_sig
FN:345,348,mz_compressBound
FN:3490,3712,mz_zip_reader_read_central_dir
FN:359,393,mz_inflateInit2
FN:3714,3718,mz_zip_zero_struct
FN:3720,3765,mz_zip_reader_end_internal
FN:3767,3770,mz_zip_reader_end
FN:3771,3789,mz_zip_reader_init
FN:3791,3797,mz_zip_mem_read_func
FN:3799,3831,mz_zip_reader_init_mem
FN:3834,3845,mz_zip_file_read_func
FN:3847,3850,mz_zip_reader_init_file
FN:3852,3904,mz_zip_reader_init_file_v2
FN:39,65,mz_adler32
FN:3906,3944,mz_zip_reader_init_cfile
FN:395,398,mz_inflateInit
FN:3955,3967,mz_zip_reader_is_file_encrypted
FN:3969,4003,mz_zip_reader_is_file_supported
FN:400,510,mz_inflate
FN:4005,4035,mz_zip_reader_is_file_a_directory
FN:4037,4155,mz_zip_file_stat_internal
FN:4185,4223,mz_zip_locate_file_binary_search
FN:4225,4232,mz_zip_reader_locate_file
FN:4234,4297,mz_zip_reader_locate_file_v2
FN:4299,4440,mz_zip_reader_extract_to_mem_no_alloc
FN:4442,4448,mz_zip_reader_extract_file_to_mem_no_alloc
FN:4450,4453,mz_zip_reader_extract_to_mem
FN:4455,4458,mz_zip_reader_extract_file_to_mem
FN:4460,4500,mz_zip_reader_extract_to_heap
FN:4502,4512,mz_zip_reader_extract_file_to_heap
FN:4514,4710,mz_zip_reader_extract_to_callback
FN:4712,4719,mz_zip_reader_extract_file_to_callback
FN:4721,4847,mz_zip_reader_extract_iter_new
FN:4849,4859,mz_zip_reader_extract_file_iter_new
FN:4861,4976,mz_zip_reader_extract_iter_read
FN:4978,5017,mz_zip_reader_extract_iter_free
FN:5020,5025,mz_zip_file_write_callback
FN:5027,5059,mz_zip_reader_extract_to_file
FN:5061,5068,mz_zip_reader_extract_file_to_file
FN:5070,5081,mz_zip_reader_extract_to_cfile
FN:5083,5090,mz_zip_reader_extract_file_to_cfile
FN:5093,5099,mz_zip_compute_crc32_callback
FN:5101,5305,mz_zip_validate_file
FN:512,522,mz_inflateEnd
FN:524,552,mz_uncompress
FN:5307,5358,mz_zip_validate_archive
FN:5360,5399,mz_zip_validate_mem_archive
FN:5402,5441,mz_zip_validate_file_archive
FN:5470,5506,mz_zip_heap_write_func
FN:5508,5552,mz_zip_writer_end_internal
FN:554,569,mz_error
FN:5554,5601,mz_zip_writer_init_v2
FN:5603,5606,mz_zip_writer_init
FN:5608,5634,mz_zip_writer_init_heap_v2
FN:5636,5639,mz_zip_writer_init_heap
FN:5642,5656,mz_zip_file_write_func
FN:5658,5661,mz_zip_writer_init_file
FN:5663,5708,mz_zip_writer_init_file_v2
FN:5710,5728,mz_zip_writer_init_cfile
FN:5731,5816,mz_zip_writer_init_from_reader_v2
FN:5818,5821,mz_zip_writer_init_from_reader
FN:5824,5827,mz_zip_writer_add_mem
FN:5836,5845,mz_zip_writer_add_put_buf_callback
FN:5849,5882,mz_zip_writer_create_zip64_extra_data
FN:5884,5900,mz_zip_writer_create_local_dir_header
FN:5902,5925,mz_zip_writer_create_central_dir_header
FN:5927,5965,mz_zip_writer_add_to_central_dir
FN:5967,5982,mz_zip_writer_validate_archive_name
FN:5984,5991,mz_zip_writer_compute_padding_needed_for_file_alignment
FN:5993,6007,mz_zip_writer_write_zeros
FN:6009,6013,mz_zip_writer_add_mem_ex
FN:6015,6298,mz_zip_writer_add_mem_ex_v2
FN:6301,6599,mz_zip_writer_add_cfile
FN:6601,6630,mz_zip_writer_add_file
FN:6633,6710,mz_zip_writer_update_zip64_extension_block
FN:6713,7073,mz_zip_writer_add_from_zip_reader
FN:706,737,tdefl_radix_sort_syms
FN:7075,7161,mz_zip_writer_finalize_archive
FN:7163,7186,mz_zip_writer_finalize_heap_archive
FN:7188,7191,mz_zip_writer_end
FN:7194,7197,mz_zip_add_mem_to_archive_file_in_place
FN:7199,7290,mz_zip_add_mem_to_archive_file_in_place_v2
FN:7292,7329,mz_zip_extract_archive_file_to_heap_v2
FN:7331,7334,mz_zip_extract_archive_file_to_heap
FN:7342,7345,mz_zip_get_mode
FN:7347,7350,mz_zip_get_type
FN:7352,7363,mz_zip_set_last_error
FN:7365,7371,mz_zip_peek_last_error
FN:7373,7376,mz_zip_clear_last_error
FN:7378,7389,mz_zip_get_last_error
FN:7391,7464,mz_zip_get_error_string
FN:740,793,tdefl_calculate_minimum_redundancy
FN:7467,7473,mz_zip_is_zip64
FN:7475,7481,mz_zip_get_central_dir_size
FN:7483,7486,mz_zip_reader_get_num_files
FN:7488,7493,mz_zip_get_archive_size
FN:7495,7500,mz_zip_get_archive_file_start_offset
FN:7502,7507,mz_zip_get_cfile
FN:7509,7515,mz_zip_read_archive_data
FN:7517,7536,mz_zip_reader_get_filename
FN:7538,7541,mz_zip_reader_file_stat
FN:7543,7556,mz_zip_end
FN:800,822,tdefl_huffman_enforce_max_code_size
FN:824,875,tdefl_optimize_huffman_table
FN:88,152,mz_crc32
FN:943,1028,tdefl_start_dynamic_block
FNDA:0,tdefl_start_static_block
FNDA:0,tdefl_compress_lz_codes
FNDA:0,tdefl_compress_block
FNDA:0,tdefl_flush_block
FNDA:0,tdefl_compress_fast
FNDA:0,mz_free
FNDA:0,miniz_def_alloc_func
FNDA:0,miniz_def_free_func
FNDA:0,tdefl_compress_normal
FNDA:0,miniz_def_realloc_func
FNDA:0,mz_version
FNDA:0,tdefl_flush_output_buffer
FNDA:0,mz_deflateInit
FNDA:0,tdefl_compress
FNDA:0,mz_deflateInit2
FNDA:0,tdefl_compress_buffer
FNDA:0,tdefl_init
FNDA:0,tdefl_get_prev_return_status
FNDA:0,tdefl_get_adler32
FNDA:0,tdefl_compress_mem_to_output
FNDA:0,tdefl_output_buffer_putter
FNDA:0,tdefl_compress_mem_to_heap
FNDA:0,tdefl_compress_mem_to_mem
FNDA:0,tdefl_create_comp_flags_from_zip_params
FNDA:0,tdefl_write_image_to_png_file_in_memory_ex
FNDA:0,tdefl_write_image_to_png_file_in_memory
FNDA:0,tdefl_compressor_alloc
FNDA:0,tdefl_compressor_free
FNDA:0,mz_deflateReset
FNDA:0,mz_deflate
FNDA:0,tinfl_decompress
FNDA:0,tinfl_decompress_mem_to_heap
FNDA:0,tinfl_decompress_mem_to_mem
FNDA:0,tinfl_decompress_mem_to_callback
FNDA:0,tinfl_decompressor_alloc
FNDA:0,tinfl_decompressor_free
FNDA:0,mz_deflateEnd
FNDA:0,mz_deflateBound
FNDA:0,mz_compress2
FNDA:0,mz_zip_array_ensure_capacity
FNDA:0,mz_zip_dos_to_time_t
FNDA:0,mz_zip_time_t_to_dos_time
FNDA:0,mz_zip_get_file_modified_time
FNDA:0,mz_zip_set_file_times
FNDA:0,mz_zip_reader_init_internal
FNDA:0,mz_zip_reader_sort_central_dir_offsets_by_filename
FNDA:0,mz_compress
FNDA:0,mz_zip_reader_locate_header_sig
FNDA:0,mz_compressBound
FNDA:0,mz_zip_reader_read_central_dir
FNDA:0,mz_inflateInit2
FNDA:0,mz_zip_zero_struct
FNDA:0,mz_zip_reader_end_internal
FNDA:0,mz_zip_reader_end
FNDA:0,mz_zip_reader_init
FNDA:0,mz_zip_mem_read_func
FNDA:0,mz_zip_reader_init_mem
FNDA:0,mz_zip_file_read_func
FNDA:0,mz_zip_reader_init_file
FNDA:0,mz_zip_reader_init_file_v2
FNDA:0,mz_adler32
FNDA:0,mz_zip_reader_init_cfile
FNDA:0,mz_inflateInit
FNDA:0,mz_zip_reader_is_file_encrypted
FNDA:0,mz_zip_reader_is_file_supported
FNDA:0,mz_inflate
FNDA:0,mz_zip_reader_is_file_a_directory
FNDA:0,mz_zip_file_stat_internal
FNDA:0,mz_zip_locate_file_binary_search
FNDA:0,mz_zip_reader_locate_file
FNDA:0,mz_zip_reader_locate_file_v2
FNDA:0,mz_zip_reader_extract_to_mem_no_alloc
FNDA:0,mz_zip_reader_extract_file_to_mem_no_alloc
FNDA:0,mz_zip_reader_extract_to_mem
FNDA:0,mz_zip_reader_extract_file_to_mem
FNDA:0,mz_zip_reader_extract_to_heap
FNDA:0,mz_zip_reader_extract_file_to_heap
FNDA:0,mz_zip_reader_extract_to_callback
FNDA:0,mz_zip_reader_extract_file_to_callback
FNDA:0,mz_zip_reader_extract_iter_new
FNDA:0,mz_zip_reader_extract_file_iter_new
FNDA:0,mz_zip_reader_extract_iter_read
FNDA:0,mz_zip_reader_extract_iter_free
FNDA:0,mz_zip_file_write_callback
FNDA:0,mz_zip_reader_extract_to_file
FNDA:0,mz_zip_reader_extract_file_to_file
FNDA:0,mz_zip_reader_extract_to_cfile
FNDA:0,mz_zip_reader_extract_file_to_cfile
FNDA:0,mz_zip_compute_crc32_callback
FNDA:0,mz_zip_validate_file
FNDA:0,mz_inflateEnd
FNDA:0,mz_uncompress
FNDA:0,mz_zip_validate_archive
FNDA:0,mz_zip_validate_mem_archive
FNDA:0,mz_zip_validate_file_archive
FNDA:0,mz_zip_heap_write_func
FNDA:0,mz_zip_writer_end_internal
FNDA:0,mz_error
FNDA:0,mz_zip_writer_init_v2
FNDA:0,mz_zip_writer_init
FNDA:0,mz_zip_writer_init_heap_v2
FNDA:0,mz_zip_writer_init_heap
FNDA:0,mz_zip_file_write_func
FNDA:0,mz_zip_writer_init_file
FNDA:0,mz_zip_writer_init_file_v2
FNDA:0,mz_zip_writer_init_cfile
FNDA:0,mz_zip_writer_init_from_reader_v2
FNDA:0,mz_zip_writer_init_from_reader
FNDA:0,mz_zip_writer_add_mem
FNDA:0,mz_zip_writer_add_put_buf_callback
FNDA:0,mz_zip_writer_create_zip64_extra_data
FNDA:0,mz_zip_writer_create_local_dir_header
FNDA:0,mz_zip_writer_create_central_dir_header
FNDA:0,mz_zip_writer_add_to_central_dir
FNDA:0,mz_zip_writer_validate_archive_name
FNDA:0,mz_zip_writer_compute_padding_needed_for_file_alignment
FNDA:0,mz_zip_writer_write_zeros
FNDA:0,mz_zip_writer_add_mem_ex
FNDA:0,mz_zip_writer_add_mem_ex_v2
FNDA:0,mz_zip_writer_add_cfile
FNDA:0,mz_zip_writer_add_file
FNDA:0,mz_zip_writer_update_zip64_extension_block
FNDA:0,mz_zip_writer_add_from_zip_reader
FNDA:0,tdefl_radix_sort_syms
FNDA:0,mz_zip_writer_finalize_archive
FNDA:0,mz_zip_writer_finalize_heap_archive
FNDA:0,mz_zip_writer_end
FNDA:0,mz_zip_add_mem_to_archive_file_in_place
FNDA:0,mz_zip_add_mem_to_archive_file_in_place_v2
FNDA:0,mz_zip_extract_archive_file_to_heap_v2
FNDA:0,mz_zip_extract_archive_file_to_heap
FNDA:0,mz_zip_get_mode
FNDA:0,mz_zip_get_type
FNDA:0,mz_zip_set_last_error
FNDA:0,mz_zip_peek_last_error
FNDA:0,mz_zip_clear_last_error
FNDA:0,mz_zip_get_last_error
FNDA:0,mz_zip_get_error_string
FNDA:0,tdefl_calculate_minimum_redundancy
FNDA:0,mz_zip_is_zip64
FNDA:0,mz_zip_get_central_dir_size
FNDA:0,mz_zip_reader_get_num_files
FNDA:0,mz_zip_get_archive_size
FNDA:0,mz_zip_get_archive_file_start_offset
FNDA:0,mz_zip_get_cfile
FNDA:0,mz_zip_read_archive_data
FNDA:0,mz_zip_reader_get_filename
FNDA:0,mz_zip_reader_file_stat
FNDA:0,mz_zip_end
FNDA:0,tdefl_huffman_enforce_max_code_size
FNDA:0,tdefl_optimize_huffman_table
FNDA:0,mz_crc32
FNDA:0,tdefl_start_dynamic_block
FNF:153
FNH:0
DA:39,0
DA:41,0
DA:42,0
DA:43,0
DA:44,0
DA:45,0
DA:47,0
DA:49,0
DA:50,0
DA:51,0
DA:52,0
DA:53,0
DA:54,0
DA:55,0
DA:56,0
DA:58,0
DA:59,0
DA:60,0
DA:61,0
DA:62,0
DA:64,0
DA:88,0
DA:131,0
DA:132,0
DA:134,0
DA:136,0
DA:137,0
DA:138,0
DA:139,0
DA:140,0
DA:141,0
DA:144,0
DA:146,0
DA:147,0
DA:148,0
DA:151,0
DA:155,0
DA:157,0
DA:158,0
DA:160,0
DA:163,0
DA:165,0
DA:168,0
DA:169,0
DA:170,0
DA:173,0
DA:176,0
DA:178,0
DA:183,0
DA:185,0
DA:188,0
DA:191,0
DA:193,0
DA:194,0
DA:195,0
DA:196,0
DA:198,0
DA:199,0
DA:200,0
DA:201,0
DA:202,0
DA:203,0
DA:204,0
DA:205,0
DA:206,0
DA:207,0
DA:209,0
DA:210,0
DA:211,0
DA:213,0
DA:215,0
DA:217,0
DA:218,0
DA:221,0
DA:224,0
DA:226,0
DA:227,0
DA:228,0
DA:229,0
DA:230,0
DA:233,0
DA:237,0
DA:239,0
DA:240,0
DA:241,0
DA:242,0
DA:244,0
DA:245,0
DA:247,0
DA:248,0
DA:250,0
DA:251,0
DA:253,0
DA:255,0
DA:256,0
DA:258,0
DA:259,0
DA:260,0
DA:261,0
DA:262,0
DA:264,0
DA:265,0
DA:266,0
DA:268,0
DA:270,0
DA:271,0
DA:273,0
DA:275,0
DA:276,0
DA:278,0
DA:279,0
DA:280,0
DA:282,0
DA:284,0
DA:288,0
DA:291,0
DA:293,0
DA:294,0
DA:295,0
DA:297,0
DA:298,0
DA:300,0
DA:303,0
DA:307,0
DA:310,0
DA:314,0
DA:317,0
DA:318,0
DA:320,0
DA:321,0
DA:322,0
DA:323,0
DA:325,0
DA:326,0
DA:327,0
DA:329,0
DA:330,0
DA:332,0
DA:333,0
DA:336,0
DA:337,0
DA:340,0
DA:342,0
DA:345,0
DA:347,0
DA:359,0
DA:362,0
DA:363,0
DA:364,0
DA:365,0
DA:367,0
DA:368,0
DA:369,0
DA:370,0
DA:371,0
DA:372,0
DA:373,0
DA:374,0
DA:375,0
DA:376,0
DA:378,0
DA:379,0
DA:380,0
DA:382,0
DA:384,0
DA:385,0
DA:386,0
DA:387,0
DA:388,0
DA:389,0
DA:390,0
DA:392,0
DA:395,0
DA:397,0
DA:400,0
DA:403,0
DA:407,0
DA:408,0
DA:409,0
DA:410,0
DA:411,0
DA:412,0
DA:414,0
DA:415,0
DA:416,0
DA:417,0
DA:419,0
DA:420,0
DA:421,0
DA:422,0
DA:424,0
DA:425,0
DA:426,0
DA:428,0
DA:431,0
DA:432,0
DA:433,0
DA:434,0
DA:435,0
DA:436,0
DA:437,0
DA:438,0
DA:439,0
DA:440,0
DA:441,0
DA:442,0
DA:444,0
DA:445,0
DA:446,0
DA:448,0
DA:449,0
DA:451,0
DA:454,0
DA:455,0
DA:457,0
DA:459,0
DA:460,0
DA:461,0
DA:462,0
DA:463,0
DA:464,0
DA:465,0
DA:466,0
DA:471,0
DA:472,0
DA:474,0
DA:475,0
DA:477,0
DA:478,0
DA:479,0
DA:480,0
DA:482,0
DA:484,0
DA:485,0
DA:486,0
DA:487,0
DA:488,0
DA:489,0
DA:490,0
DA:492,0
DA:493,0
DA:494,0
DA:495,0
DA:496,0
DA:499,0
DA:500,0
DA:502,0
DA:503,0
DA:505,0
DA:509,0
DA:512,0
DA:514,0
DA:515,0
DA:516,0
DA:518,0
DA:519,0
DA:521,0
DA:524,0
DA:528,0
DA:531,0
DA:532,0
DA:534,0
DA:535,0
DA:536,0
DA:537,0
DA:539,0
DA:540,0
DA:541,0
DA:543,0
DA:544,0
DA:546,0
DA:547,0
DA:549,0
DA:551,0
DA:554,0
DA:565,0
DA:566,0
DA:567,0
DA:568,0
DA:706,0
DA:708,0
DA:709,0
DA:710,0
DA:711,0
DA:713,0
DA:714,0
DA:715,0
DA:717,0
DA:718,0
DA:719,0
DA:721,0
DA:722,0
DA:723,0
DA:725,0
DA:726,0
DA:728,0
DA:729,0
DA:731,0
DA:732,0
DA:733,0
DA:736,0
DA:740,0
DA:743,0
DA:744,0
DA:745,0
DA:747,0
DA:748,0
DA:750,0
DA:751,0
DA:752,0
DA:753,0
DA:755,0
DA:757,0
DA:758,0
DA:761,0
DA:762,0
DA:764,0
DA:765,0
DA:768,0
DA:770,0
DA:771,0
DA:772,0
DA:773,0
DA:774,0
DA:775,0
DA:776,0
DA:777,0
DA:779,0
DA:781,0
DA:782,0
DA:784,0
DA:786,0
DA:787,0
DA:789,0
DA:790,0
DA:791,0
DA:800,0
DA:803,0
DA:804,0
DA:805,0
DA:806,0
DA:807,0
DA:808,0
DA:809,0
DA:810,0
DA:812,0
DA:813,0
DA:814,0
DA:816,0
DA:817,0
DA:818,0
DA:820,0
DA:824,0
DA:828,0
DA:829,0
DA:831,0
DA:832,0
DA:837,0
DA:838,0
DA:839,0
DA:840,0
DA:842,0
DA:843,0
DA:846,0
DA:847,0
DA:849,0
DA:850,0
DA:852,0
DA:854,0
DA:855,0
DA:856,0
DA:857,0
DA:858,0
DA:861,0
DA:862,0
DA:863,0
DA:865,0
DA:867,0
DA:868,0
DA:869,0
DA:870,0
DA:871,0
DA:872,0
DA:873,0
DA:875,0
DA:943,0
DA:947,0
DA:949,0
DA:951,0
DA:952,0
DA:954,0
DA:955,0
DA:956,0
DA:957,0
DA:958,0
DA:959,0
DA:961,0
DA:962,0
DA:963,0
DA:964,0
DA:965,0
DA:966,0
DA:968,0
DA:969,0
DA:971,0
DA:972,0
DA:974,0
DA:975,0
DA:977,0
DA:982,0
DA:983,0
DA:985,0
DA:986,0
DA:987,0
DA:989,0
DA:991,0
DA:994,0
DA:996,0
DA:998,0
DA:1002,0
DA:1005,0
DA:1007,0
DA:1009,0
DA:1010,0
DA:1012,0
DA:1013,0
DA:1014,0
DA:1015,0
DA:1016,0
DA:1017,0
DA:1018,0
DA:1020,0
DA:1022,0
DA:1023,0
DA:1024,0
DA:1025,0
DA:1026,0
DA:1028,0
DA:1030,0
DA:1033,0
DA:1035,0
DA:1036,0
DA:1037,0
DA:1038,0
DA:1039,0
DA:1040,0
DA:1041,0
DA:1042,0
DA:1044,0
DA:1046,0
DA:1047,0
DA:1049,0
DA:1050,0
DA:1055,0
DA:1059,0
DA:1060,0
DA:1061,0
DA:1062,0
DA:1070,0
DA:1071,0
DA:1073,0
DA:1074,0
DA:1076,0
DA:1079,0
DA:1080,0
DA:1082,0
DA:1083,0
DA:1084,0
DA:1087,0
DA:1088,0
DA:1089,0
DA:1090,0
DA:1091,0
DA:1092,0
DA:1094,0
DA:1095,0
DA:1096,0
DA:1100,0
DA:1101,0
DA:1102,0
DA:1104,0
DA:1106,0
DA:1107,0
DA:1108,0
DA:1109,0
DA:1111,0
DA:1113,0
DA:1114,0
DA:1115,0
DA:1116,0
DA:1121,0
DA:1122,0
DA:1124,0
DA:1125,0
DA:1126,0
DA:1127,0
DA:1132,0
DA:1133,0
DA:1134,0
DA:1136,0
DA:1138,0
DA:1139,0
DA:1140,0
DA:1141,0
DA:1144,0
DA:1146,0
DA:1197,0
DA:1199,0
DA:1200,0
DA:1202,0
DA:1203,0
DA:1206,0
DA:1210,0
DA:1211,0
DA:1212,0
DA:1214,0
DA:1215,0
DA:1217,0
DA:1218,0
DA:1219,0
DA:1221,0
DA:1222,0
DA:1224,0
DA:1226,0
DA:1227,0
DA:1230,0
DA:1232,0
DA:1233,0
DA:1234,0
DA:1236,0
DA:1237,0
DA:1240,0
DA:1241,0
DA:1242,0
DA:1244,0
DA:1245,0
DA:1246,0
DA:1247,0
DA:1249,0
DA:1251,0
DA:1253,0
DA:1255,0
DA:1257,0
DA:1261,0
DA:1263,0
DA:1264,0
DA:1265,0
DA:1268,0
DA:1270,0
DA:1272,0
DA:1274,0
DA:1276,0
DA:1278,0
DA:1279,0
DA:1281,0
DA:1282,0
DA:1288,0
DA:1289,0
DA:1290,0
DA:1292,0
DA:1294,0
DA:1296,0
DA:1301,0
DA:1303,0
DA:1304,0
DA:1306,0
DA:1307,0
DA:1308,0
DA:1309,0
DA:1310,0
DA:1311,0
DA:1313,0
DA:1315,0
DA:1317,0
DA:1318,0
DA:1319,0
DA:1321,0
DA:1323,0
DA:1324,0
DA:1325,0
DA:1326,0
DA:1328,0
DA:1329,0
DA:1334,0
DA:1338,0
DA:1361,0
DA:1362,0
DA:1363,0
DA:1364,0
DA:1365,0
DA:1366,0
DA:1367,0
DA:1368,0
DA:1372,0
DA:1373,0
DA:1381,0
DA:1382,0
DA:1383,0
DA:1385,0
DA:1386,0
DA:1387,0
DA:1388,0
DA:1389,0
DA:1390,0
DA:1391,0
DA:1394,0
DA:1395,0
DA:1396,0
DA:1398,0
DA:1399,0
DA:1400,0
DA:1402,0
DA:1404,0
DA:1405,0
DA:1406,0
DA:1407,0
DA:1458,0
DA:1461,0
DA:1462,0
DA:1463,0
DA:1465,0
DA:1467,0
DA:1468,0
DA:1469,0
DA:1470,0
DA:1471,0
DA:1473,0
DA:1475,0
DA:1476,0
DA:1477,0
DA:1478,0
DA:1479,0
DA:1480,0
DA:1481,0
DA:1484,0
DA:1485,0
DA:1486,0
DA:1488,0
DA:1490,0
DA:1491,0
DA:1492,0
DA:1493,0
DA:1494,0
DA:1495,0
DA:1497,0
DA:1498,0
DA:1499,0
DA:1500,0
DA:1501,0
DA:1504,0
DA:1505,0
DA:1506,0
DA:1507,0
DA:1508,0
DA:1510,0
DA:1512,0
DA:1513,0
DA:1514,0
DA:1515,0
DA:1520,0
DA:1522,0
DA:1524,0
DA:1526,0
DA:1527,0
DA:1528,0
DA:1529,0
DA:1531,0
DA:1532,0
DA:1533,0
DA:1535,0
DA:1540,0
DA:1541,0
DA:1542,0
DA:1545,0
DA:1547,0
DA:1548,0
DA:1551,0
DA:1552,0
DA:1553,0
DA:1554,0
DA:1555,0
DA:1556,0
DA:1558,0
DA:1561,0
DA:1562,0
DA:1563,0
DA:1564,0
DA:1565,0
DA:1566,0
DA:1567,0
DA:1568,0
DA:1569,0
DA:1570,0
DA:1571,0
DA:1572,0
DA:1573,0
DA:1577,0
DA:1579,0
DA:1581,0
DA:1582,0
DA:1583,0
DA:1584,0
DA:1586,0
DA:1587,0
DA:1590,0
DA:1592,0
DA:1593,0
DA:1594,0
DA:1595,0
DA:1597,0
DA:1600,0
DA:1601,0
DA:1602,0
DA:1603,0
DA:1604,0
DA:1605,0
DA:1606,0
DA:1607,0
DA:1608,0
DA:1609,0
DA:1610,0
DA:1611,0
DA:1612,0
DA:1617,0
DA:1618,0
DA:1619,0
DA:1620,0
DA:1621,0
DA:1622,0
DA:1623,0
DA:1624,0
DA:1630,0
DA:1631,0
DA:1632,0
DA:1633,0
DA:1635,0
DA:1636,0
DA:1638,0
DA:1639,0
DA:1645,0
DA:1647,0
DA:1649,0
DA:1651,0
DA:1652,0
DA:1653,0
DA:1654,0
DA:1656,0
DA:1657,0
DA:1659,0
DA:1660,0
DA:1663,0
DA:1664,0
DA:1665,0
DA:1667,0
DA:1668,0
DA:1669,0
DA:1671,0
DA:1673,0
DA:1674,0
DA:1675,0
DA:1677,0
DA:1681,0
DA:1683,0
DA:1684,0
DA:1685,0
DA:1686,0
DA:1687,0
DA:1688,0
DA:1689,0
DA:1691,0
DA:1692,0
DA:1693,0
DA:1694,0
DA:1695,0
DA:1696,0
DA:1697,0
DA:1698,0
DA:1699,0
DA:1704,0
DA:1706,0
DA:1707,0
DA:1708,0
DA:1709,0
DA:1710,0
DA:1711,0
DA:1712,0
DA:1714,0
DA:1715,0
DA:1716,0
DA:1717,0
DA:1721,0
DA:1722,0
DA:1723,0
DA:1726,0
DA:1727,0
DA:1728,0
DA:1729,0
DA:1730,0
DA:1732,0
DA:1734,0
DA:1735,0
DA:1736,0
DA:1738,0
DA:1739,0
DA:1740,0
DA:1742,0
DA:1743,0
DA:1745,0
DA:1750,0
DA:1752,0
DA:1754,0
DA:1756,0
DA:1758,0
DA:1760,0
DA:1761,0
DA:1763,0
DA:1764,0
DA:1765,0
DA:1769,0
DA:1770,0
DA:1771,0
DA:1776,0
DA:1777,0
DA:1778,0
DA:1781,0
DA:1782,0
DA:1783,0
DA:1785,0
DA:1786,0
DA:1790,0
DA:1791,0
DA:1792,0
DA:1795,0
DA:1796,0
DA:1797,0
DA:1798,0
DA:1800,0
DA:1801,0
DA:1804,0
DA:1805,0
DA:1806,0
DA:1807,0
DA:1811,0
DA:1812,0
DA:1813,0
DA:1816,0
DA:1818,0
DA:1820,0
DA:1823,0
DA:1825,0
DA:1826,0
DA:1827,0
DA:1828,0
DA:1829,0
DA:1831,0
DA:1834,0
DA:1837,0
DA:1839,0
DA:1841,0
DA:1842,0
DA:1843,0
DA:1844,0
DA:1845,0
DA:1848,0
DA:1849,0
DA:1850,0
DA:1851,0
DA:1852,0
DA:1853,0
DA:1854,0
DA:1855,0
DA:1857,0
DA:1858,0
DA:1860,0
DA:1861,0
DA:1862,0
DA:1863,0
DA:1864,0
DA:1866,0
DA:1868,0
DA:1869,0
DA:1872,0
DA:1873,0
DA:1874,0
DA:1876,0
DA:1877,0
DA:1882,0
DA:1883,0
DA:1886,0
DA:1887,0
DA:1889,0
DA:1891,0
DA:1892,0
DA:1893,0
DA:1894,0
DA:1896,0
DA:1897,0
DA:1898,0
DA:1902,0
DA:1905,0
DA:1907,0
DA:1908,0
DA:1911,0
DA:1913,0
DA:1914,0
DA:1915,0
DA:1916,0
DA:1917,0
DA:1918,0
DA:1919,0
DA:1920,0
DA:1921,0
DA:1922,0
DA:1923,0
DA:1924,0
DA:1925,0
DA:1926,0
DA:1927,0
DA:1928,0
DA:1929,0
DA:1930,0
DA:1931,0
DA:1932,0
DA:1933,0
DA:1934,0
DA:1935,0
DA:1936,0
DA:1937,0
DA:1938,0
DA:1939,0
DA:1940,0
DA:1941,0
DA:1942,0
DA:1943,0
DA:1946,0
DA:1948,0
DA:1951,0
DA:1953,0
DA:1956,0
DA:1960,0
DA:1961,0
DA:1962,0
DA:1963,0
DA:1964,0
DA:1965,0
DA:1966,0
DA:1967,0
DA:1968,0
DA:1978,0
DA:1980,0
DA:1981,0
DA:1982,0
DA:1984,0
DA:1986,0
DA:1987,0
DA:1990,0
DA:1991,0
DA:1992,0
DA:1993,0
DA:1994,0
DA:1995,0
DA:1996,0
DA:1998,0
DA:1999,0
DA:2000,0
DA:2003,0
DA:2006,0
DA:2007,0
DA:2008,0
DA:2010,0
DA:2011,0
DA:2012,0
DA:2013,0
DA:2014,0
DA:2015,0
DA:2018,0
DA:2021,0
DA:2022,0
DA:2023,0
DA:2024,0
DA:2025,0
DA:2026,0
DA:2027,0
DA:2028,0
DA:2034,0
DA:2036,0
DA:2037,0
DA:2038,0
DA:2040,0
DA:2041,0
DA:2042,0
DA:2043,0
DA:2044,0
DA:2045,0
DA:2046,0
DA:2047,0
DA:2048,0
DA:2049,0
DA:2051,0
DA:2062,0
DA:2066,0
DA:2068,0
DA:2070,0
DA:2071,0
DA:2072,0
DA:2073,0
DA:2074,0
DA:2075,0
DA:2076,0
DA:2078,0
DA:2079,0
DA:2082,0
DA:2083,0
DA:2085,0
DA:2086,0
DA:2088,0
DA:2089,0
DA:2091,0
DA:2093,0
DA:2094,0
DA:2095,0
DA:2098,0
DA:2101,0
DA:2110,0
DA:2111,0
DA:2112,0
DA:2113,0
DA:2114,0
DA:2115,0
DA:2116,0
DA:2117,0
DA:2118,0
DA:2119,0
DA:2120,0
DA:2121,0
DA:2122,0
DA:2125,0
DA:2127,0
DA:2128,0
DA:2129,0
DA:2130,0
DA:2132,0
DA:2133,0
DA:2134,0
DA:2136,0
DA:2137,0
DA:2138,0
DA:2140,0
DA:2143,0
DA:2149,0
DA:2151,0
DA:2154,0
DA:2156,0
DA:2157,0
DA:2339,0
DA:2348,0
DA:2351,0
DA:2352,0
DA:2353,0
DA:2356,0
DA:2358,0
DA:2359,0
DA:2362,0
DA:2363,0
DA:2364,0
DA:2365,0
DA:2366,0
DA:2367,0
DA:2368,0
DA:2370,0
DA:2371,0
DA:2372,0
DA:2374,0
DA:2375,0
DA:2376,0
DA:2377,0
DA:2378,0
DA:2379,0
DA:2381,0
DA:2387,0
DA:2388,0
DA:2389,0
DA:2391,0
DA:2392,0
DA:2394,0
DA:2395,0
DA:2397,0
DA:2399,0
DA:2401,0
DA:2403,0
DA:2405,0
DA:2406,0
DA:2408,0
DA:2410,0
DA:2411,0
DA:2413,0
DA:2416,0
DA:2418,0
DA:2420,0
DA:2422,0
DA:2424,0
DA:2425,0
DA:2426,0
DA:2427,0
DA:2428,0
DA:2431,0
DA:2433,0
DA:2437,0
DA:2439,0
DA:2441,0
DA:2442,0
DA:2443,0
DA:2444,0
DA:2445,0
DA:2446,0
DA:2447,0
DA:2448,0
DA:2449,0
DA:2450,0
DA:2451,0
DA:2455,0
DA:2457,0
DA:2458,0
DA:2460,0
DA:2461,0
DA:2464,0
DA:2465,0
DA:2467,0
DA:2469,0
DA:2474,0
DA:2475,0
DA:2476,0
DA:2477,0
DA:2478,0
DA:2479,0
DA:2480,0
DA:2481,0
DA:2482,0
DA:2484,0
DA:2485,0
DA:2487,0
DA:2489,0
DA:2491,0
DA:2493,0
DA:2494,0
DA:2495,0
DA:2496,0
DA:2497,0
DA:2498,0
DA:2499,0
DA:2500,0
DA:2501,0
DA:2502,0
DA:2504,0
DA:2505,0
DA:2507,0
DA:2509,0
DA:2511,0
DA:2512,0
DA:2513,0
DA:2515,0
DA:2516,0
DA:2518,0
DA:2519,0
DA:2521,0
DA:2522,0
DA:2523,0
DA:2526,0
DA:2528,0
DA:2529,0
DA:2531,0
DA:2533,0
DA:2536,0
DA:2537,0
DA:2539,0
DA:2540,0
DA:2542,0
DA:2544,0
DA:2546,0
DA:2547,0
DA:2548,0
DA:2549,0
DA:2550,0
DA:2552,0
DA:2554,0
DA:2556,0
DA:2557,0
DA:2561,0
DA:2565,0
DA:2567,0
DA:2568,0
DA:2569,0
DA:2570,0
DA:2572,0
DA:2574,0
DA:2581,0
DA:2583,0
DA:2584,0
DA:2585,0
DA:2595,0
DA:2596,0
DA:2599,0
DA:2602,0
DA:2603,0
DA:2605,0
DA:2606,0
DA:2607,0
DA:2608,0
DA:2609,0
DA:2619,0
DA:2620,0
DA:2623,0
DA:2626,0
DA:2627,0
DA:2629,0
DA:2630,0
DA:2632,0
DA:2633,0
DA:2635,0
DA:2636,0
DA:2637,0
DA:2639,0
DA:2640,0
DA:2643,0
DA:2644,0
DA:2646,0
DA:2647,0
DA:2648,0
DA:2651,0
DA:2652,0
DA:2655,0
DA:2656,0
DA:2657,0
DA:2658,0
DA:2661,0
DA:2662,0
DA:2665,0
DA:2666,0
DA:2668,0
DA:2671,0
DA:2673,0
DA:2675,0
DA:2677,0
DA:2679,0
DA:2681,0
DA:2683,0
DA:2686,0
DA:2688,0
DA:2691,0
DA:2692,0
DA:2693,0
DA:2694,0
DA:2695,0
DA:2697,0
DA:2699,0
DA:2700,0
DA:2701,0
DA:2702,0
DA:2704,0
DA:2710,0
DA:2711,0
DA:2712,0
DA:2713,0
DA:2714,0
DA:2715,0
DA:2716,0
DA:2718,0
DA:2719,0
DA:2720,0
DA:2721,0
DA:2725,0
DA:2729,0
DA:2730,0
DA:2732,0
DA:2733,0
DA:2735,0
DA:2736,0
DA:2738,0
DA:2740,0
DA:2743,0
DA:2744,0
DA:2746,0
DA:2747,0
DA:2750,0
DA:2754,0
DA:2758,0
DA:2760,0
DA:2762,0
DA:2763,0
DA:2766,0
DA:2767,0
DA:2768,0
DA:2769,0
DA:2770,0
DA:2771,0
DA:2772,0
DA:2773,0
DA:2774,0
DA:2776,0
DA:2777,0
DA:2778,0
DA:2779,0
DA:2780,0
DA:2782,0
DA:2784,0
DA:2785,0
DA:2786,0
DA:2787,0
DA:2788,0
DA:2789,0
DA:2790,0
DA:2791,0
DA:2793,0
DA:2794,0
DA:2795,0
DA:2796,0
DA:2797,0
DA:2799,0
DA:2800,0
DA:2801,0
DA:2803,0
DA:2807,0
DA:2810,0
DA:2811,0
DA:2812,0
DA:2813,0
DA:2815,0
DA:2816,0
DA:2817,0
DA:2818,0
DA:2819,0
DA:2821,0
DA:2822,0
DA:2823,0
DA:2825,0
DA:2826,0
DA:2827,0
DA:2828,0
DA:2829,0
DA:2830,0
DA:2831,0
DA:2832,0
DA:2833,0
DA:2835,0
DA:2836,0
DA:2837,0
DA:2839,0
DA:2840,0
DA:2842,0
DA:2845,0
DA:2849,0
DA:2850,0
DA:2851,0
DA:2854,0
DA:2856,0
DA:2858,0
DA:2859,0
DA:2860,0
DA:2861,0
DA:2862,0
DA:2864,0
DA:2865,0
DA:2866,0
DA:2867,0
DA:2868,0
DA:2869,0
DA:2870,0
DA:2871,0
DA:2873,0
DA:2874,0
DA:2876,0
DA:2878,0
DA:2879,0
DA:2880,0
DA:2883,0
DA:2885,0
DA:2886,0
DA:2887,0
DA:2888,0
DA:2891,0
DA:2893,0
DA:2894,0
DA:3191,0
DA:3192,0
DA:3193,0
DA:3197,0
DA:3198,0
DA:3199,0
DA:3201,0
DA:3204,0
DA:3205,0
DA:3206,0
DA:3207,0
DA:3208,0
DA:3210,0
DA:3211,0
DA:3212,0
DA:3214,0
DA:3215,0
DA:3216,0
DA:3217,0
DA:3218,0
DA:3223,0
DA:3225,0
DA:3226,0
DA:3228,0
DA:3233,0
DA:3235,0
DA:3236,0
DA:3238,0
DA:3239,0
DA:3244,0
DA:3249,0
DA:3250,0
DA:3251,0
DA:3252,0
DA:3253,0
DA:3257,0
DA:3260,0
DA:3261,0
DA:3262,0
DA:3263,0
DA:3264,0
DA:3265,0
DA:3266,0
DA:3267,0
DA:3268,0
DA:3272,0
DA:3285,0
DA:3288,0
DA:3289,0
DA:3290,0
DA:3295,0
DA:3300,0
DA:3301,0
DA:3303,0
DA:3305,0
DA:3309,0
DA:3313,0
DA:3314,0
DA:3315,0
DA:3317,0
DA:3324,0
DA:3325,0
DA:3326,0
DA:3329,0
DA:3332,0
DA:3333,0
DA:3335,0
DA:3336,0
DA:3337,0
DA:3338,0
DA:3339,0
DA:3340,0
DA:3342,0
DA:3343,0
DA:3344,0
DA:3345,0
DA:3347,0
DA:3348,0
DA:3350,0
DA:3351,0
DA:3352,0
DA:3353,0
DA:3354,0
DA:3355,0
DA:3356,0
DA:3358,0
DA:3360,0
DA:3365,0
DA:3366,0
DA:3367,0
DA:3368,0
DA:3369,0
DA:3370,0
DA:3371,0
DA:3372,0
DA:3374,0
DA:3375,0
DA:3376,0
DA:3377,0
DA:3379,0
DA:3392,0
DA:3394,0
DA:3395,0
DA:3396,0
DA:3399,0
DA:3401,0
DA:3402,0
DA:3404,0
DA:3406,0
DA:3408,0
DA:3409,0
DA:3412,0
DA:3413,0
DA:3414,0
DA:3415,0
DA:3416,0
DA:3417,0
DA:3418,0
DA:3420,0
DA:3421,0
DA:3422,0
DA:3425,0
DA:3426,0
DA:3428,0
DA:3429,0
DA:3432,0
DA:3433,0
DA:3434,0
DA:3435,0
DA:3436,0
DA:3437,0
DA:3438,0
DA:3440,0
DA:3444,0
DA:3448,0
DA:3451,0
DA:3452,0
DA:3455,0
DA:3457,0
DA:3458,0
DA:3460,0
DA:3461,0
DA:3463,0
DA:3465,0
DA:3466,0
DA:3468,0
DA:3469,0
DA:3473,0
DA:3475,0
DA:3476,0
DA:3480,0
DA:3481,0
DA:3483,0
DA:3486,0
DA:3487,0
DA:3490,0
DA:3492,0
DA:3493,0
DA:3494,0
DA:3498,0
DA:3499,0
DA:3501,0
DA:3504,0
DA:3506,0
DA:3509,0
DA:3510,0
DA:3512,0
DA:3513,0
DA:3516,0
DA:3517,0
DA:3519,0
DA:3520,0
DA:3522,0
DA:3524,0
DA:3526,0
DA:3528,0
DA:3529,0
DA:3530,0
DA:3532,0
DA:3534,0
DA:3536,0
DA:3543,0
DA:3544,0
DA:3545,0
DA:3546,0
DA:3547,0
DA:3548,0
DA:3550,0
DA:3552,0
DA:3553,0
DA:3554,0
DA:3555,0
DA:3556,0
DA:3558,0
DA:3559,0
DA:3561,0
DA:3562,0
DA:3565,0
DA:3566,0
DA:3568,0
DA:3570,0
DA:3571,0
DA:3573,0
DA:3576,0
DA:3577,0
DA:3579,0
DA:3581,0
DA:3583,0
DA:3585,0
DA:3588,0
DA:3589,0
DA:3591,0
DA:3592,0
DA:3594,0
DA:3595,0
DA:3597,0
DA:3598,0
DA:3600,0
DA:3602,0
DA:3606,0
DA:3607,0
DA:3608,0
DA:3610,0
DA:3612,0
DA:3613,0
DA:3616,0
DA:3617,0
DA:3620,0
DA:3621,0
DA:3626,0
DA:3627,0
DA:3629,0
DA:3631,0
DA:3632,0
DA:3634,0
DA:3635,0
DA:3636,0
DA:3637,0
DA:3638,0
DA:3640,0
DA:3641,0
DA:3642,0
DA:3645,0
DA:3647,0
DA:3649,0
DA:3656,0
DA:3657,0
DA:3659,0
DA:3660,0
DA:3662,0
DA:3663,0
DA:3665,0
DA:3668,0
DA:3669,0
DA:3670,0
DA:3673,0
DA:3674,0
DA:3675,0
DA:3680,0
DA:3682,0
DA:3683,0
DA:3686,0
DA:3687,0
DA:3688,0
DA:3690,0
DA:3692,0
DA:3693,0
DA:3696,0
DA:3697,0
DA:3698,0
DA:3700,0
DA:3701,0
DA:3703,0
DA:3704,0
DA:3708,0
DA:3709,0
DA:3711,0
DA:3714,0
DA:3716,0
DA:3717,0
DA:3718,0
DA:3720,0
DA:3722,0
DA:3724,0
DA:3725,0
DA:3727,0
DA:3729,0
DA:3730,0
DA:3732,0
DA:3735,0
DA:3737,0
DA:3738,0
DA:3740,0
DA:3741,0
DA:3742,0
DA:3745,0
DA:3747,0
DA:3749,0
DA:3751,0
DA:3752,0
DA:3753,0
DA:3756,0
DA:3760,0
DA:3762,0
DA:3764,0
DA:3767,0
DA:3769,0
DA:3771,0
DA:3773,0
DA:3774,0
DA:3776,0
DA:3777,0
DA:3779,0
DA:3780,0
DA:3782,0
DA:3784,0
DA:3785,0
DA:3788,0
DA:3791,0
DA:3793,0
DA:3794,0
DA:3795,0
DA:3796,0
DA:3799,0
DA:3801,0
DA:3802,0
DA:3804,0
DA:3805,0
DA:3807,0
DA:3808,0
DA:3810,0
DA:3811,0
DA:3812,0
DA:3813,0
DA:3814,0
DA:3819,0
DA:3822,0
DA:3824,0
DA:3826,0
DA:3827,0
DA:3830,0
DA:3834,0
DA:3836,0
DA:3837,0
DA:3839,0
DA:3841,0
DA:3842,0
DA:3844,0
DA:3847,0
DA:3849,0
DA:3852,0
DA:3857,0
DA:3858,0
DA:3860,0
DA:3861,0
DA:3862,0
DA:3864,0
DA:3865,0
DA:3867,0
DA:3869,0
DA:3870,0
DA:3873,0
DA:3878,0
DA:3880,0
DA:3881,0
DA:3884,0
DA:3886,0
DA:3887,0
DA:3890,0
DA:3891,0
DA:3892,0
DA:3893,0
DA:3894,0
DA:3895,0
DA:3897,0
DA:3899,0
DA:3900,0
DA:3903,0
DA:3906,0
DA:3910,0
DA:3911,0
DA:3913,0
DA:3915,0
DA:3917,0
DA:3918,0
DA:3920,0
DA:3922,0
DA:3923,0
DA:3926,0
DA:3927,0
DA:3929,0
DA:3930,0
DA:3932,0
DA:3933,0
DA:3934,0
DA:3935,0
DA:3937,0
DA:3939,0
DA:3940,0
DA:3943,0
DA:3950,0
DA:3951,0
DA:3952,0
DA:3955,0
DA:3958,0
DA:3959,0
DA:3962,0
DA:3965,0
DA:3966,0
DA:3969,0
DA:3974,0
DA:3975,0
DA:3978,0
DA:3981,0
DA:3982,0
DA:3984,0
DA:3987,0
DA:3990,0
DA:3993,0
DA:3996,0
DA:3999,0
DA:4002,0
DA:4005,0
DA:4008,0
DA:4009,0
DA:4012,0
DA:4015,0
DA:4016,0
DA:4018,0
DA:4019,0
DA:4025,0
DA:4028,0
DA:4029,0
DA:4031,0
DA:4034,0
DA:4037,0
DA:4040,0
DA:4042,0
DA:4043,0
DA:4045,0
DA:4046,0
DA:4049,0
DA:4050,0
DA:4051,0
DA:4052,0
DA:4053,0
DA:4054,0
DA:4056,0
DA:4058,0
DA:4059,0
DA:4060,0
DA:4061,0
DA:4062,0
DA:4063,0
DA:4066,0
DA:4067,0
DA:4068,0
DA:4069,0
DA:4071,0
DA:4072,0
DA:4073,0
DA:4074,0
DA:4075,0
DA:4078,0
DA:4079,0
DA:4080,0
DA:4084,0
DA:4087,0
DA:4089,0
DA:4091,0
DA:4098,0
DA:4099,0
DA:4101,0
DA:4102,0
DA:4104,0
DA:4105,0
DA:4107,0
DA:4109,0
DA:4110,0
DA:4112,0
DA:4113,0
DA:4115,0
DA:4117,0
DA:4118,0
DA:4120,0
DA:4121,0
DA:4122,0
DA:4125,0
DA:4127,0
DA:4128,0
DA:4130,0
DA:4131,0
DA:4132,0
DA:4135,0
DA:4137,0
DA:4138,0
DA:4140,0
DA:4141,0
DA:4142,0
DA:4145,0
DA:4148,0
DA:4149,0
DA:4150,0
DA:4154,0
DA:4160,0
DA:4161,0
DA:4162,0
DA:4163,0
DA:4164,0
DA:4165,0
DA:4170,0
DA:4171,0
DA:4172,0
DA:4173,0
DA:4174,0
DA:4175,0
DA:4177,0
DA:4178,0
DA:4179,0
DA:4180,0
DA:4182,0
DA:4185,0
DA:4187,0
DA:4188,0
DA:4189,0
DA:4190,0
DA:4191,0
DA:4192,0
DA:4194,0
DA:4195,0
DA:4197,0
DA:4201,0
DA:4203,0
DA:4205,0
DA:4206,0
DA:4208,0
DA:4209,0
DA:4211,0
DA:4212,0
DA:4213,0
DA:4215,0
DA:4216,0
DA:4218,0
DA:4222,0
DA:4225,0
DA:4228,0
DA:4229,0
DA:4231,0
DA:4234,0
DA:4239,0
DA:4240,0
DA:4242,0
DA:4243,0
DA:4246,0
DA:4247,0
DA:4248,0
DA:4250,0
DA:4254,0
DA:4255,0
DA:4256,0
DA:4258,0
DA:4259,0
DA:4260,0
DA:4262,0
DA:4264,0
DA:4265,0
DA:4266,0
DA:4267,0
DA:4268,0
DA:4269,0
DA:4271,0
DA:4272,0
DA:4273,0
DA:4274,0
DA:4276,0
DA:4278,0
DA:4281,0
DA:4283,0
DA:4284,0
DA:4285,0
DA:4286,0
DA:4288,0
DA:4290,0
DA:4291,0
DA:4292,0
DA:4296,0
DA:4299,0
DA:4301,0
DA:4302,0
DA:4306,0
DA:4309,0
DA:4310,0
DA:4312,0
DA:4313,0
DA:4316,0
DA:4317,0
DA:4320,0
DA:4321,0
DA:4324,0
DA:4325,0
DA:4328,0
DA:4329,0
DA:4330,0
DA:4333,0
DA:4334,0
DA:4335,0
DA:4337,0
DA:4338,0
DA:4340,0
DA:4341,0
DA:4342,0
DA:4344,0
DA:4347,0
DA:4348,0
DA:4351,0
DA:4353,0
DA:4354,0
DA:4358,0
DA:4362,0
DA:4364,0
DA:4367,0
DA:4368,0
DA:4369,0
DA:4371,0
DA:4374,0
DA:4375,0
DA:4376,0
DA:4377,0
DA:4378,0
DA:4379,0
DA:4384,0
DA:4388,0
DA:4389,0
DA:4391,0
DA:4392,0
DA:4398,0
DA:4399,0
DA:4401,0
DA:4402,0
DA:4404,0
DA:4406,0
DA:4408,0
DA:4409,0
DA:4410,0
DA:4412,0
DA:4413,0
DA:4414,0
DA:4415,0
DA:4416,0
DA:4417,0
DA:4419,0
DA:4422,0
DA:4425,0
DA:4428,0
DA:4431,0
DA:4436,0
DA:4437,0
DA:4439,0
DA:4442,0
DA:4445,0
DA:4446,0
DA:4447,0
DA:4450,0
DA:4452,0
DA:4455,0
DA:4457,0
DA:4460,0
DA:4463,0
DA:4466,0
DA:4467,0
DA:4469,0
DA:4472,0
DA:4475,0
DA:4476,0
DA:4478,0
DA:4485,0
DA:4488,0
DA:4491,0
DA:4493,0
DA:4494,0
DA:4497,0
DA:4498,0
DA:4499,0
DA:4502,0
DA:4505,0
DA:4507,0
DA:4508,0
DA:4509,0
DA:4511,0
DA:4514,0
DA:4516,0
DA:4517,0
DA:4518,0
DA:4520,0
DA:4521,0
DA:4523,0
DA:4525,0
DA:4526,0
DA:4528,0
DA:4529,0
DA:4532,0
DA:4533,0
DA:4536,0
DA:4537,0
DA:4540,0
DA:4541,0
DA:4544,0
DA:4545,0
DA:4546,0
DA:4548,0
DA:4549,0
DA:4551,0
DA:4552,0
DA:4553,0
DA:4556,0
DA:4558,0
DA:4559,0
DA:4560,0
DA:4564,0
DA:4565,0
DA:4566,0
DA:4568,0
DA:4569,0
DA:4572,0
DA:4575,0
DA:4580,0
DA:4583,0
DA:4585,0
DA:4588,0
DA:4592,0
DA:4593,0
DA:4594,0
DA:4598,0
DA:4600,0
DA:4601,0
DA:4604,0
DA:4605,0
DA:4609,0
DA:4611,0
DA:4615,0
DA:4618,0
DA:4619,0
DA:4622,0
DA:4623,0
DA:4624,0
DA:4631,0
DA:4633,0
DA:4636,0
DA:4642,0
DA:4643,0
DA:4644,0
DA:4646,0
DA:4647,0
DA:4650,0
DA:4651,0
DA:4653,0
DA:4654,0
DA:4655,0
DA:4658,0
DA:4659,0
DA:4660,0
DA:4661,0
DA:4663,0
DA:4665,0
DA:4668,0
DA:4669,0
DA:4673,0
DA:4675,0
DA:4678,0
DA:4679,0
DA:4682,0
DA:4686,0
DA:4689,0
DA:4692,0
DA:4695,0
DA:4698,0
DA:4703,0
DA:4704,0
DA:4706,0
DA:4707,0
DA:4709,0
DA:4712,0
DA:4715,0
DA:4716,0
DA:4718,0
DA:4721,0
DA:4725,0
DA:4728,0
DA:4729,0
DA:4732,0
DA:4733,0
DA:4736,0
DA:4740,0
DA:4742,0
DA:4743,0
DA:4747,0
DA:4750,0
DA:4751,0
DA:4755,0
DA:4758,0
DA:4759,0
DA:4763,0
DA:4764,0
DA:4767,0
DA:4769,0
DA:4771,0
DA:4772,0
DA:4773,0
DA:4774,0
DA:4775,0
DA:4778,0
DA:4779,0
DA:4782,0
DA:4783,0
DA:4786,0
DA:4789,0
DA:4790,0
DA:4793,0
DA:4794,0
DA:4797,0
DA:4798,0
DA:4802,0
DA:4804,0
DA:4805,0
DA:4806,0
DA:4810,0
DA:4813,0
DA:4814,0
DA:4817,0
DA:4818,0
DA:4824,0
DA:4826,0
DA:4827,0
DA:4830,0
DA:4833,0
DA:4836,0
DA:4839,0
DA:4840,0
DA:4841,0
DA:4842,0
DA:4846,0
DA:4849,0
DA:4854,0
DA:4855,0
DA:4858,0
DA:4861,0
DA:4863,0
DA:4866,0
DA:4867,0
DA:4869,0
DA:4872,0
DA:4875,0
DA:4878,0
DA:4879,0
DA:4884,0
DA:4887,0
DA:4888,0
DA:4889,0
DA:4895,0
DA:4896,0
DA:4900,0
DA:4901,0
DA:4902,0
DA:4909,0
DA:4912,0
DA:4914,0
DA:4917,0
DA:4920,0
DA:4921,0
DA:4923,0
DA:4924,0
DA:4925,0
DA:4929,0
DA:4930,0
DA:4931,0
DA:4935,0
DA:4936,0
DA:4937,0
DA:4938,0
DA:4941,0
DA:4944,0
DA:4947,0
DA:4950,0
DA:4954,0
DA:4958,0
DA:4961,0
DA:4963,0
DA:4964,0
DA:4965,0
DA:4969,0
DA:4971,0
DA:4975,0
DA:4978,0
DA:4983,0
DA:4984,0
DA:4987,0
DA:4990,0
DA:4992,0
DA:4993,0
DA:4996,0
DA:4998,0
DA:4999,0
DA:5005,0
DA:5006,0
DA:5007,0
DA:5008,0
DA:5011,0
DA:5014,0
DA:5016,0
DA:5020,0
DA:5024,0
DA:5027,0
DA:5033,0
DA:5034,0
DA:5036,0
DA:5037,0
DA:5039,0
DA:5040,0
DA:5041,0
DA:5043,0
DA:5045,0
DA:5047,0
DA:5050,0
DA:5054,0
DA:5055,0
DA:5058,0
DA:5061,0
DA:5064,0
DA:5065,0
DA:5067,0
DA:5070,0
DA:5074,0
DA:5075,0
DA:5077,0
DA:5078,0
DA:5080,0
DA:5083,0
DA:5086,0
DA:5087,0
DA:5089,0
DA:5093,0
DA:5095,0
DA:5097,0
DA:5098,0
DA:5101,0
DA:5106,0
DA:5107,0
DA:5109,0
DA:5110,0
DA:5113,0
DA:5120,0
DA:5121,0
DA:5123,0
DA:5124,0
DA:5126,0
DA:5128,0
DA:5130,0
DA:5131,0
DA:5134,0
DA:5135,0
DA:5138,0
DA:5139,0
DA:5142,0
DA:5143,0
DA:5145,0
DA:5146,0
DA:5149,0
DA:5150,0
DA:5151,0
DA:5153,0
DA:5154,0
DA:5156,0
DA:5157,0
DA:5158,0
DA:5159,0
DA:5160,0
DA:5161,0
DA:5162,0
DA:5164,0
DA:5165,0
DA:5167,0
DA:5168,0
DA:5170,0
DA:5171,0
DA:5173,0
DA:5175,0
DA:5178,0
DA:5182,0
DA:5185,0
DA:5189,0
DA:5191,0
DA:5192,0
DA:5194,0
DA:5197,0
DA:5204,0
DA:5205,0
DA:5207,0
DA:5208,0
DA:5209,0
DA:5211,0
DA:5212,0
DA:5214,0
DA:5216,0
DA:5218,0
DA:5221,0
DA:5224,0
DA:5225,0
DA:5227,0
DA:5228,0
DA:5231,0
DA:5232,0
DA:5233,0
DA:5238,0
DA:5239,0
DA:5244,0
DA:5246,0
DA:5248,0
DA:5251,0
DA:5254,0
DA:5255,0
DA:5257,0
DA:5259,0
DA:5261,0
DA:5262,0
DA:5266,0
DA:5267,0
DA:5270,0
DA:5273,0
DA:5278,0
DA:5281,0
DA:5287,0
DA:5289,0
DA:5290,0
DA:5293,0
DA:5296,0
DA:5300,0
DA:5302,0
DA:5304,0
DA:5307,0
DA:5312,0
DA:5313,0
DA:5315,0
DA:5318,0
DA:5320,0
DA:5321,0
DA:5323,0
DA:5324,0
DA:5328,0
DA:5329,0
DA:5331,0
DA:5332,0
DA:5335,0
DA:5337,0
DA:5342,0
DA:5343,0
DA:5345,0
DA:5346,0
DA:5349,0
DA:5350,0
DA:5353,0
DA:5354,0
DA:5357,0
DA:5360,0
DA:5362,0
DA:5364,0
DA:5366,0
DA:5368,0
DA:5369,0
DA:5370,0
DA:5373,0
DA:5375,0
DA:5377,0
DA:5378,0
DA:5379,0
DA:5382,0
DA:5384,0
DA:5385,0
DA:5388,0
DA:5390,0
DA:5391,0
DA:5392,0
DA:5395,0
DA:5396,0
DA:5398,0
DA:5402,0
DA:5404,0
DA:5406,0
DA:5408,0
DA:5410,0
DA:5411,0
DA:5412,0
DA:5415,0
DA:5417,0
DA:5419,0
DA:5420,0
DA:5421,0
DA:5424,0
DA:5426,0
DA:5427,0
DA:5430,0
DA:5432,0
DA:5433,0
DA:5434,0
DA:5437,0
DA:5438,0
DA:5440,0
DA:5450,0
DA:5451,0
DA:5452,0
DA:5455,0
DA:5456,0
DA:5457,0
DA:5458,0
DA:5459,0
DA:5462,0
DA:5463,0
DA:5464,0
DA:5470,0
DA:5472,0
DA:5473,0
DA:5474,0
DA:5476,0
DA:5477,0
DA:5486,0
DA:5489,0
DA:5491,0
DA:5492,0
DA:5494,0
DA:5497,0
DA:5500,0
DA:5501,0
DA:5503,0
DA:5504,0
DA:5505,0
DA:5508,0
DA:5511,0
DA:5513,0
DA:5515,0
DA:5517,0
DA:5520,0
DA:5521,0
DA:5522,0
DA:5523,0
DA:5524,0
DA:5527,0
DA:5529,0
DA:5531,0
DA:5533,0
DA:5535,0
DA:5539,0
DA:5543,0
DA:5545,0
DA:5546,0
DA:5549,0
DA:5550,0
DA:5551,0
DA:5554,0
DA:5556,0
DA:5558,0
DA:5559,0
DA:5561,0
DA:5563,0
DA:5564,0
DA:5567,0
DA:5570,0
DA:5571,0
DA:5574,0
DA:5575,0
DA:5576,0
DA:5577,0
DA:5578,0
DA:5579,0
DA:5581,0
DA:5582,0
DA:5583,0
DA:5585,0
DA:5586,0
DA:5588,0
DA:5590,0
DA:5591,0
DA:5592,0
DA:5594,0
DA:5595,0
DA:5597,0
DA:5598,0
DA:5600,0
DA:5603,0
DA:5605,0
DA:5608,0
DA:5610,0
DA:5611,0
DA:5613,0
DA:5614,0
DA:5616,0
DA:5618,0
DA:5619,0
DA:5621,0
DA:5623,0
DA:5625,0
DA:5627,0
DA:5628,0
DA:5630,0
DA:5633,0
DA:5636,0
DA:5638,0
DA:5642,0
DA:5644,0
DA:5645,0
DA:5647,0
DA:5649,0
DA:5652,0
DA:5655,0
DA:5658,0
DA:5660,0
DA:5663,0
DA:5667,0
DA:5668,0
DA:5670,0
DA:5671,0
DA:5673,0
DA:5675,0
DA:5676,0
DA:5678,0
DA:5680,0
DA:5681,0
DA:5684,0
DA:5685,0
DA:5687,0
DA:5689,0
DA:5692,0
DA:5696,0
DA:5697,0
DA:5699,0
DA:5700,0
DA:5702,0
DA:5703,0
DA:5704,0
DA:5707,0
DA:5710,0
DA:5712,0
DA:5713,0
DA:5715,0
DA:5716,0
DA:5718,0
DA:5720,0
DA:5721,0
DA:5723,0
DA:5724,0
DA:5725,0
DA:5727,0
DA:5731,0
DA:5735,0
DA:5736,0
DA:5738,0
DA:5741,0
DA:5742,0
DA:5746,0
DA:5748,0
DA:5749,0
DA:5753,0
DA:5754,0
DA:5756,0
DA:5757,0
DA:5760,0
DA:5762,0
DA:5768,0
DA:5769,0
DA:5771,0
DA:5773,0
DA:5774,0
DA:5777,0
DA:5780,0
DA:5781,0
DA:5785,0
DA:5786,0
DA:5789,0
DA:5792,0
DA:5793,0
DA:5795,0
DA:5796,0
DA:5797,0
DA:5800,0
DA:5801,0
DA:5805,0
DA:5806,0
DA:5811,0
DA:5813,0
DA:5815,0
DA:5818,0
DA:5820,0
DA:5824,0
DA:5826,0
DA:5836,0
DA:5838,0
DA:5839,0
DA:5840,0
DA:5842,0
DA:5843,0
DA:5844,0
DA:5849,0
DA:5851,0
DA:5852,0
DA:5855,0
DA:5856,0
DA:5858,0
DA:5860,0
DA:5861,0
DA:5862,0
DA:5865,0
DA:5867,0
DA:5868,0
DA:5869,0
DA:5872,0
DA:5874,0
DA:5875,0
DA:5876,0
DA:5879,0
DA:5881,0
DA:5884,0
DA:5887,0
DA:5889,0
DA:5890,0
DA:5891,0
DA:5892,0
DA:5893,0
DA:5894,0
DA:5895,0
DA:5896,0
DA:5897,0
DA:5898,0
DA:5899,0
DA:5902,0
DA:5909,0
DA:5911,0
DA:5912,0
DA:5913,0
DA:5914,0
DA:5915,0
DA:5916,0
DA:5917,0
DA:5918,0
DA:5919,0
DA:5920,0
DA:5921,0
DA:5922,0
DA:5923,0
DA:5924,0
DA:5927,0
DA:5934,0
DA:5935,0
DA:5936,0
DA:5939,0
DA:5941,0
DA:5942,0
DA:5946,0
DA:5947,0
DA:5949,0
DA:5950,0
DA:5952,0
DA:5953,0
DA:5954,0
DA:5955,0
DA:5956,0
DA:5957,0
DA:5960,0
DA:5961,0
DA:5964,0
DA:5967,0
DA:5970,0
DA:5971,0
DA:5973,0
DA:5975,0
DA:5976,0
DA:5978,0
DA:5981,0
DA:5984,0
DA:5987,0
DA:5988,0
DA:5989,0
DA:5990,0
DA:5993,0
DA:5996,0
DA:5997,0
DA:5999,0
DA:6000,0
DA:6001,0
DA:6003,0
DA:6004,0
DA:6006,0
DA:6009,0
DA:6012,0
DA:6015,0
DA:6019,0
DA:6020,0
DA:6021,0
DA:6024,0
DA:6027,0
DA:6028,0
DA:6030,0
DA:6032,0
DA:6033,0
DA:6035,0
DA:6036,0
DA:6038,0
DA:6039,0
DA:6040,0
DA:6041,0
DA:6043,0
DA:6044,0
DA:6046,0
DA:6048,0
DA:6050,0
DA:6051,0
DA:6055,0
DA:6057,0
DA:6060,0
DA:6062,0
DA:6067,0
DA:6068,0
DA:6070,0
DA:6071,0
DA:6074,0
DA:6076,0
DA:6081,0
DA:6082,0
DA:6086,0
DA:6087,0
DA:6088,0
DA:6090,0
DA:6093,0
DA:6094,0
DA:6096,0
DA:6099,0
DA:6100,0
DA:6101,0
DA:6102,0
DA:6104,0
DA:6109,0
DA:6112,0
DA:6115,0
DA:6116,0
DA:6120,0
DA:6121,0
DA:6123,0
DA:6125,0
DA:6126,0
DA:6129,0
DA:6131,0
DA:6132,0
DA:6135,0
DA:6136,0
DA:6138,0
DA:6140,0
DA:6142,0
DA:6144,0
DA:6146,0
DA:6149,0
DA:6151,0
DA:6153,0
DA:6154,0
DA:6155,0
DA:6158,0
DA:6159,0
DA:6161,0
DA:6162,0
DA:6164,0
DA:6166,0
DA:6168,0
DA:6169,0
DA:6171,0
DA:6173,0
DA:6175,0
DA:6176,0
DA:6178,0
DA:6183,0
DA:6184,0
DA:6185,0
DA:6186,0
DA:6188,0
DA:6189,0
DA:6191,0
DA:6193,0
DA:6195,0
DA:6196,0
DA:6198,0
DA:6201,0
DA:6203,0
DA:6204,0
DA:6206,0
DA:6209,0
DA:6211,0
DA:6212,0
DA:6213,0
DA:6215,0
DA:6216,0
DA:6220,0
DA:6222,0
DA:6224,0
DA:6225,0
DA:6228,0
DA:6229,0
DA:6231,0
DA:6235,0
DA:6236,0
DA:6237,0
DA:6239,0
DA:6240,0
DA:6242,0
DA:6243,0
DA:6246,0
DA:6247,0
DA:6250,0
DA:6251,0
DA:6253,0
DA:6256,0
DA:6258,0
DA:6261,0
DA:6262,0
DA:6264,0
DA:6265,0
DA:6267,0
DA:6268,0
DA:6272,0
DA:6273,0
DA:6274,0
DA:6277,0
DA:6278,0
DA:6280,0
DA:6283,0
DA:6285,0
DA:6286,0
DA:6289,0
DA:6292,0
DA:6294,0
DA:6295,0
DA:6297,0
DA:6301,0
DA:6304,0
DA:6305,0
DA:6306,0
DA:6307,0
DA:6310,0
DA:6311,0
DA:6315,0
DA:6316,0
DA:6318,0
DA:6319,0
DA:6320,0
DA:6323,0
DA:6324,0
DA:6326,0
DA:6328,0
DA:6332,0
DA:6336,0
DA:6337,0
DA:6339,0
DA:6340,0
DA:6342,0
DA:6344,0
DA:6345,0
DA:6349,0
DA:6351,0
DA:6356,0
DA:6357,0
DA:6358,0
DA:6360,0
DA:6363,0
DA:6364,0
DA:6366,0
DA:6369,0
DA:6370,0
DA:6371,0
DA:6373,0
DA:6379,0
DA:6381,0
DA:6385,0
DA:6386,0
DA:6388,0
DA:6390,0
DA:6393,0
DA:6394,0
DA:6396,0
DA:6398,0
DA:6401,0
DA:6403,0
DA:6406,0
DA:6407,0
DA:6409,0
DA:6411,0
DA:6412,0
DA:6413,0
DA:6416,0
DA:6417,0
DA:6419,0
DA:6420,0
DA:6422,0
DA:6424,0
DA:6426,0
DA:6429,0
DA:6431,0
DA:6432,0
DA:6434,0
DA:6438,0
DA:6439,0
DA:6440,0
DA:6441,0
DA:6443,0
DA:6444,0
DA:6446,0
DA:6448,0
DA:6450,0
DA:6453,0
DA:6456,0
DA:6458,0
DA:6459,0
DA:6461,0
DA:6464,0
DA:6466,0
DA:6467,0
DA:6468,0
DA:6470,0
DA:6473,0
DA:6475,0
DA:6477,0
DA:6478,0
DA:6480,0
DA:6481,0
DA:6483,0
DA:6484,0
DA:6485,0
DA:6487,0
DA:6491,0
DA:6493,0
DA:6494,0
DA:6496,0
DA:6497,0
DA:6500,0
DA:6501,0
DA:6502,0
DA:6504,0
DA:6506,0
DA:6507,0
DA:6508,0
DA:6512,0
DA:6513,0
DA:6515,0
DA:6517,0
DA:6520,0
DA:6523,0
DA:6524,0
DA:6526,0
DA:6527,0
DA:6529,0
DA:6530,0
DA:6532,0
DA:6533,0
DA:6535,0
DA:6538,0
DA:6542,0
DA:6544,0
DA:6546,0
DA:6547,0
DA:6550,0
DA:6551,0
DA:6554,0
DA:6559,0
DA:6562,0
DA:6563,0
DA:6565,0
DA:6566,0
DA:6568,0
DA:6569,0
DA:6573,0
DA:6574,0
DA:6575,0
DA:6578,0
DA:6579,0
DA:6581,0
DA:6584,0
DA:6586,0
DA:6587,0
DA:6590,0
DA:6593,0
DA:6595,0
DA:6596,0
DA:6598,0
DA:6601,0
DA:6603,0
DA:6604,0
DA:6606,0
DA:6609,0
DA:6612,0
DA:6613,0
DA:6614,0
DA:6617,0
DA:6618,0
DA:6619,0
DA:6621,0
DA:6622,0
DA:6623,0
DA:6625,0
DA:6627,0
DA:6629,0
DA:6633,0
DA:6636,0
DA:6637,0
DA:6641,0
DA:6644,0
DA:6646,0
DA:6647,0
DA:6649,0
DA:6651,0
DA:6652,0
DA:6655,0
DA:6657,0
DA:6658,0
DA:6661,0
DA:6663,0
DA:6664,0
DA:6667,0
DA:6669,0
DA:6670,0
DA:6673,0
DA:6675,0
DA:6676,0
DA:6679,0
DA:6681,0
DA:6682,0
DA:6688,0
DA:6689,0
DA:6691,0
DA:6692,0
DA:6693,0
DA:6695,0
DA:6696,0
DA:6698,0
DA:6700,0
DA:6701,0
DA:6704,0
DA:6705,0
DA:6706,0
DA:6709,0
DA:6713,0
DA:6719,0
DA:6729,0
DA:6732,0
DA:6733,0
DA:6735,0
DA:6738,0
DA:6739,0
DA:6742,0
DA:6743,0
DA:6745,0
DA:6746,0
DA:6748,0
DA:6749,0
DA:6750,0
DA:6751,0
DA:6754,0
DA:6755,0
DA:6757,0
DA:6759,0
DA:6761,0
DA:6762,0
DA:6767,0
DA:6768,0
DA:6771,0
DA:6772,0
DA:6774,0
DA:6775,0
DA:6778,0
DA:6779,0
DA:6781,0
DA:6782,0
DA:6784,0
DA:6787,0
DA:6788,0
DA:6789,0
DA:6790,0
DA:6791,0
DA:6794,0
DA:6798,0
DA:6801,0
DA:6803,0
DA:6806,0
DA:6809,0
DA:6812,0
DA:6818,0
DA:6821,0
DA:6824,0
DA:6825,0
DA:6826,0
DA:6828,0
DA:6831,0
DA:6834,0
DA:6836,0
DA:6838,0
DA:6841,0
DA:6844,0
DA:6845,0
DA:6847,0
DA:6848,0
DA:6851,0
DA:6852,0
DA:6853,0
DA:6858,0
DA:6862,0
DA:6863,0
DA:6865,0
DA:6866,0
DA:6870,0
DA:6871,0
DA:6873,0
DA:6875,0
DA:6876,0
DA:6878,0
DA:6882,0
DA:6883,0
DA:6885,0
DA:6888,0
DA:6889,0
DA:6891,0
DA:6893,0
DA:6894,0
DA:6896,0
DA:6897,0
DA:6899,0
DA:6901,0
DA:6903,0
DA:6904,0
DA:6906,0
DA:6908,0
DA:6912,0
DA:6913,0
DA:6916,0
DA:6925,0
DA:6927,0
DA:6928,0
DA:6931,0
DA:6938,0
DA:6940,0
DA:6941,0
DA:6944,0
DA:6946,0
DA:6949,0
DA:6950,0
DA:6951,0
DA:6952,0
DA:6955,0
DA:6956,0
DA:6957,0
DA:6959,0
DA:6964,0
DA:6968,0
DA:6970,0
DA:6971,0
DA:6974,0
DA:6975,0
DA:6977,0
DA:6980,0
DA:6982,0
DA:6984,0
DA:6987,0
DA:6992,0
DA:6993,0
DA:6994,0
DA:6996,0
DA:6999,0
DA:7002,0
DA:7004,0
DA:7007,0
DA:7010,0
DA:7013,0
DA:7014,0
DA:7017,0
DA:7020,0
DA:7021,0
DA:7024,0
DA:7027,0
DA:7028,0
DA:7036,0
DA:7037,0
DA:7039,0
DA:7040,0
DA:7042,0
DA:7044,0
DA:7045,0
DA:7047,0
DA:7049,0
DA:7050,0
DA:7055,0
DA:7058,0
DA:7059,0
DA:7062,0
DA:7063,0
DA:7065,0
DA:7066,0
DA:7069,0
DA:7070,0
DA:7072,0
DA:7075,0
DA:7081,0
DA:7082,0
DA:7084,0
DA:7086,0
DA:7088,0
DA:7089,0
DA:7093,0
DA:7094,0
DA:7097,0
DA:7098,0
DA:7099,0
DA:7102,0
DA:7103,0
DA:7104,0
DA:7105,0
DA:7106,0
DA:7108,0
DA:7111,0
DA:7114,0
DA:7116,0
DA:7118,0
DA:7119,0
DA:7120,0
DA:7121,0
DA:7122,0
DA:7123,0
DA:7124,0
DA:7125,0
DA:7126,0
DA:7128,0
DA:7131,0
DA:7133,0
DA:7134,0
DA:7135,0
DA:7136,0
DA:7138,0
DA:7142,0
DA:7144,0
DA:7145,0
DA:7146,0
DA:7147,0
DA:7149,0
DA:7150,0
DA:7153,0
DA:7154,0
DA:7157,0
DA:7159,0
DA:7160,0
DA:7163,0
DA:7165,0
DA:7166,0
DA:7168,0
DA:7169,0
DA:7171,0
DA:7172,0
DA:7174,0
DA:7175,0
DA:7177,0
DA:7178,0
DA:7180,0
DA:7181,0
DA:7182,0
DA:7183,0
DA:7185,0
DA:7188,0
DA:7190,0
DA:7194,0
DA:7196,0
DA:7199,0
DA:7201,0
DA:7204,0
DA:7206,0
DA:7207,0
DA:7208,0
DA:7210,0
DA:7212,0
DA:7213,0
DA:7214,0
DA:7217,0
DA:7219,0
DA:7220,0
DA:7221,0
DA:7226,0
DA:7229,0
DA:7231,0
DA:7232,0
DA:7233,0
DA:7236,0
DA:7241,0
DA:7243,0
DA:7244,0
DA:7245,0
DA:7248,0
DA:7250,0
DA:7251,0
DA:7253,0
DA:7255,0
DA:7259,0
DA:7260,0
DA:7263,0
DA:7265,0
DA:7266,0
DA:7268,0
DA:7271,0
DA:7273,0
DA:7274,0
DA:7276,0
DA:7279,0
DA:7282,0
DA:7286,0
DA:7287,0
DA:7289,0
DA:7292,0
DA:7296,0
DA:7298,0
DA:7299,0
DA:7301,0
DA:7303,0
DA:7304,0
DA:7306,0
DA:7309,0
DA:7310,0
DA:7312,0
DA:7313,0
DA:7315,0
DA:7318,0
DA:7320,0
DA:7323,0
DA:7325,0
DA:7326,0
DA:7328,0
DA:7331,0
DA:7333,0
DA:7342,0
DA:7344,0
DA:7347,0
DA:7349,0
DA:7352,0
DA:7356,0
DA:7357,0
DA:7359,0
DA:7361,0
DA:7362,0
DA:7365,0
DA:7367,0
DA:7368,0
DA:7370,0
DA:7373,0
DA:7375,0
DA:7378,0
DA:7382,0
DA:7383,0
DA:7385,0
DA:7387,0
DA:7388,0
DA:7391,0
DA:7393,0
DA:7395,0
DA:7396,0
DA:7397,0
DA:7398,0
DA:7399,0
DA:7400,0
DA:7401,0
DA:7402,0
DA:7403,0
DA:7404,0
DA:7405,0
DA:7406,0
DA:7407,0
DA:7408,0
DA:7409,0
DA:7410,0
DA:7411,0
DA:7412,0
DA:7413,0
DA:7414,0
DA:7415,0
DA:7416,0
DA:7417,0
DA:7418,0
DA:7419,0
DA:7420,0
DA:7421,0
DA:7422,0
DA:7423,0
DA:7424,0
DA:7425,0
DA:7426,0
DA:7427,0
DA:7428,0
DA:7429,0
DA:7430,0
DA:7431,0
DA:7432,0
DA:7433,0
DA:7434,0
DA:7435,0
DA:7436,0
DA:7437,0
DA:7438,0
DA:7439,0
DA:7440,0
DA:7441,0
DA:7442,0
DA:7443,0
DA:7444,0
DA:7445,0
DA:7446,0
DA:7447,0
DA:7448,0
DA:7449,0
DA:7450,0
DA:7451,0
DA:7452,0
DA:7453,0
DA:7454,0
DA:7455,0
DA:7456,0
DA:7457,0
DA:7458,0
DA:7459,0
DA:7460,0
DA:7463,0
DA:7467,0
DA:7469,0
DA:7470,0
DA:7472,0
DA:7475,0
DA:7477,0
DA:7478,0
DA:7480,0
DA:7483,0
DA:7485,0
DA:7488,0
DA:7490,0
DA:7491,0
DA:7492,0
DA:7495,0
DA:7497,0
DA:7498,0
DA:7499,0
DA:7502,0
DA:7504,0
DA:7505,0
DA:7506,0
DA:7509,0
DA:7511,0
DA:7512,0
DA:7514,0
DA:7517,0
DA:7520,0
DA:7521,0
DA:7523,0
DA:7524,0
DA:7526,0
DA:7528,0
DA:7529,0
DA:7531,0
DA:7532,0
DA:7533,0
DA:7535,0
DA:7538,0
DA:7540,0
DA:7543,0
DA:7545,0
DA:7546,0
DA:7548,0
DA:7549,0
DA:7551,0
DA:7552,0
DA:7555,0
LF:3555
LH:0
end_of_record
TN:
SF:/home/nn/redis/FalkorDB/deps/RediSearch/deps/phonetics/double_metaphone.c
FN:102,113,SlavoGermanic
FN:115,117,GetLength
FN:119,123,GetAt
FN:125,129,SetAt
FN:134,152,StringAt
FN:154,166,MetaphAdd
FN:168,979,DoubleMetaphone
FN:48,67,NewMetaString
FN:69,75,DestroyMetaString
FN:77,81,IncreaseBuffer
FN:83,89,MakeUpper
FN:91,100,IsVowel
FNDA:0,SlavoGermanic
FNDA:0,GetLength
FNDA:0,GetAt
FNDA:0,SetAt
FNDA:0,StringAt
FNDA:0,MetaphAdd
FNDA:0,DoubleMetaphone
FNDA:0,NewMetaString
FNDA:0,DestroyMetaString
FNDA:0,IncreaseBuffer
FNDA:0,MakeUpper
FNDA:0,IsVowel
FNF:12
FNH:0
DA:48,0
DA:50,0
DA:52,0
DA:53,0
DA:55,0
DA:56,0
DA:58,0
DA:60,0
DA:61,0
DA:63,0
DA:64,0
DA:66,0
DA:69,0
DA:70,0
DA:72,0
DA:74,0
DA:77,0
DA:78,0
DA:79,0
DA:80,0
DA:81,0
DA:83,0
DA:86,0
DA:87,0
DA:89,0
DA:91,0
DA:94,0
DA:96,0
DA:97,0
DA:99,0
DA:102,0
DA:103,0
DA:104,0
DA:105,0
DA:106,0
DA:107,0
DA:108,0
DA:109,0
DA:110,0
DA:112,0
DA:115,0
DA:116,0
DA:119,0
DA:120,0
DA:122,0
DA:125,0
DA:126,0
DA:128,0
DA:134,0
DA:139,0
DA:141,0
DA:142,0
DA:145,0
DA:146,0
DA:147,0
DA:149,0
DA:151,0
DA:154,0
DA:157,0
DA:159,0
DA:160,0
DA:161,0
DA:164,0
DA:165,0
DA:168,0
DA:176,0
DA:178,0
DA:179,0
DA:180,0
DA:182,0
DA:184,0
DA:185,0
DA:187,0
DA:190,0
DA:193,0
DA:194,0
DA:195,0
DA:196,0
DA:200,0
DA:201,0
DA:203,0
DA:204,0
DA:210,0
DA:212,0
DA:213,0
DA:215,0
DA:216,0
DA:218,0
DA:221,0
DA:222,0
DA:224,0
DA:225,0
DA:227,0
DA:228,0
DA:238,0
DA:240,0
DA:241,0
DA:242,0
DA:243,0
DA:244,0
DA:245,0
DA:246,0
DA:247,0
DA:248,0
DA:252,0
DA:253,0
DA:254,0
DA:255,0
DA:256,0
DA:260,0
DA:261,0
DA:262,0
DA:263,0
DA:264,0
DA:267,0
DA:269,0
DA:270,0
DA:271,0
DA:272,0
DA:273,0
DA:277,0
DA:278,0
DA:279,0
DA:280,0
DA:281,0
DA:282,0
DA:283,0
DA:284,0
DA:288,0
DA:290,0
DA:291,0
DA:292,0
DA:294,0
DA:296,0
DA:297,0
DA:299,0
DA:300,0
DA:302,0
DA:303,0
DA:305,0
DA:306,0
DA:309,0
DA:310,0
DA:313,0
DA:314,0
DA:317,0
DA:318,0
DA:319,0
DA:320,0
DA:321,0
DA:322,0
DA:326,0
DA:327,0
DA:328,0
DA:329,0
DA:330,0
DA:334,0
DA:335,0
DA:337,0
DA:338,0
DA:340,0
DA:341,0
DA:342,0
DA:343,0
DA:346,0
DA:347,0
DA:349,0
DA:350,0
DA:352,0
DA:353,0
DA:354,0
DA:355,0
DA:359,0
DA:360,0
DA:361,0
DA:362,0
DA:363,0
DA:366,0
DA:368,0
DA:369,0
DA:370,0
DA:372,0
DA:373,0
DA:375,0
DA:376,0
DA:380,0
DA:381,0
DA:384,0
DA:385,0
DA:386,0
DA:387,0
DA:388,0
DA:390,0
DA:391,0
DA:393,0
DA:394,0
DA:395,0
DA:397,0
DA:398,0
DA:399,0
DA:400,0
DA:403,0
DA:404,0
DA:405,0
DA:406,0
DA:410,0
DA:411,0
DA:412,0
DA:413,0
DA:414,0
DA:418,0
DA:419,0
DA:420,0
DA:421,0
DA:423,0
DA:424,0
DA:425,0
DA:427,0
DA:428,0
DA:429,0
DA:430,0
DA:432,0
DA:433,0
DA:434,0
DA:435,0
DA:436,0
DA:437,0
DA:438,0
DA:441,0
DA:443,0
DA:444,0
DA:445,0
DA:446,0
DA:448,0
DA:449,0
DA:451,0
DA:452,0
DA:456,0
DA:458,0
DA:460,0
DA:461,0
DA:462,0
DA:465,0
DA:466,0
DA:467,0
DA:468,0
DA:469,0
DA:471,0
DA:472,0
DA:475,0
DA:476,0
DA:480,0
DA:481,0
DA:482,0
DA:483,0
DA:486,0
DA:487,0
DA:488,0
DA:489,0
DA:491,0
DA:492,0
DA:494,0
DA:495,0
DA:499,0
DA:500,0
DA:501,0
DA:502,0
DA:503,0
DA:507,0
DA:508,0
DA:510,0
DA:511,0
DA:512,0
DA:513,0
DA:517,0
DA:518,0
DA:519,0
DA:520,0
DA:521,0
DA:522,0
DA:523,0
DA:524,0
DA:525,0
DA:529,0
DA:530,0
DA:532,0
DA:533,0
DA:534,0
DA:535,0
DA:536,0
DA:539,0
DA:540,0
DA:541,0
DA:543,0
DA:544,0
DA:547,0
DA:548,0
DA:551,0
DA:552,0
DA:554,0
DA:555,0
DA:556,0
DA:557,0
DA:559,0
DA:561,0
DA:562,0
DA:563,0
DA:564,0
DA:566,0
DA:567,0
DA:569,0
DA:571,0
DA:572,0
DA:573,0
DA:574,0
DA:575,0
DA:577,0
DA:578,0
DA:580,0
DA:581,0
DA:584,0
DA:585,0
DA:586,0
DA:589,0
DA:590,0
DA:591,0
DA:592,0
DA:594,0
DA:595,0
DA:596,0
DA:598,0
DA:599,0
DA:600,0
DA:601,0
DA:602,0
DA:608,0
DA:609,0
DA:611,0
DA:612,0
DA:614,0
DA:615,0
DA:616,0
DA:618,0
DA:619,0
DA:620,0
DA:621,0
DA:623,0
DA:624,0
DA:626,0
DA:627,0
DA:628,0
DA:629,0
DA:630,0
DA:631,0
DA:632,0
DA:633,0
DA:634,0
DA:636,0
DA:638,0
DA:639,0
DA:640,0
DA:641,0
DA:643,0
DA:644,0
DA:645,0
DA:647,0
DA:648,0
DA:650,0
DA:651,0
DA:652,0
DA:653,0
DA:655,0
DA:656,0
DA:657,0
DA:659,0
DA:660,0
DA:661,0
DA:662,0
DA:672,0
DA:673,0
DA:674,0
DA:675,0
DA:676,0
DA:677,0
DA:681,0
DA:682,0
DA:684,0
DA:685,0
DA:686,0
DA:687,0
DA:689,0
DA:690,0
DA:691,0
DA:693,0
DA:694,0
DA:695,0
DA:696,0
DA:698,0
DA:700,0
DA:701,0
DA:702,0
DA:703,0
DA:704,0
DA:706,0
DA:707,0
DA:710,0
DA:711,0
DA:713,0
DA:714,0
DA:716,0
DA:718,0
DA:719,0
DA:720,0
DA:724,0
DA:725,0
DA:726,0
DA:727,0
DA:728,0
DA:731,0
DA:733,0
DA:734,0
DA:735,0
DA:737,0
DA:738,0
DA:740,0
DA:741,0
DA:745,0
DA:746,0
DA:747,0
DA:748,0
DA:749,0
DA:751,0
DA:752,0
DA:754,0
DA:755,0
DA:760,0
DA:761,0
DA:762,0
DA:763,0
DA:764,0
DA:765,0
DA:767,0
DA:768,0
DA:771,0
DA:773,0
DA:774,0
DA:776,0
DA:777,0
DA:778,0
DA:780,0
DA:781,0
DA:783,0
DA:784,0
DA:786,0
DA:787,0
DA:788,0
DA:790,0
DA:791,0
DA:793,0
DA:794,0
DA:798,0
DA:799,0
DA:800,0
DA:801,0
DA:802,0
DA:805,0
DA:806,0
DA:807,0
DA:808,0
DA:812,0
DA:813,0
DA:814,0
DA:816,0
DA:817,0
DA:820,0
DA:821,0
DA:823,0
DA:824,0
DA:826,0
DA:827,0
DA:828,0
DA:829,0
DA:830,0
DA:831,0
DA:834,0
DA:835,0
DA:836,0
DA:837,0
DA:838,0
DA:841,0
DA:843,0
DA:844,0
DA:845,0
DA:846,0
DA:848,0
DA:849,0
DA:851,0
DA:852,0
DA:855,0
DA:856,0
DA:858,0
DA:859,0
DA:860,0
DA:861,0
DA:863,0
DA:864,0
DA:865,0
DA:867,0
DA:868,0
DA:869,0
DA:870,0
DA:872,0
DA:874,0
DA:875,0
DA:876,0
DA:877,0
DA:878,0
DA:881,0
DA:882,0
DA:884,0
DA:885,0
DA:886,0
DA:889,0
DA:890,0
DA:895,0
DA:896,0
DA:897,0
DA:898,0
DA:899,0
DA:900,0
DA:901,0
DA:905,0
DA:906,0
DA:907,0
DA:908,0
DA:909,0
DA:913,0
DA:914,0
DA:916,0
DA:918,0
DA:919,0
DA:920,0
DA:921,0
DA:924,0
DA:925,0
DA:927,0
DA:928,0
DA:930,0
DA:932,0
DA:933,0
DA:934,0
DA:935,0
DA:936,0
DA:937,0
DA:938,0
DA:939,0
DA:940,0
DA:941,0
DA:943,0
DA:944,0
DA:947,0
DA:948,0
DA:950,0
DA:951,0
DA:953,0
DA:954,0
DA:960,0
DA:962,0
DA:963,0
DA:964,0
DA:965,0
DA:966,0
DA:969,0
DA:970,0
DA:971,0
DA:972,0
DA:976,0
DA:977,0
DA:978,0
DA:979,0
LF:580
LH:0
end_of_record
TN:
SF:/home/nn/redis/FalkorDB/deps/RediSearch/deps/rmutil/args.c
FN:121,121,AC_GetUnsignedLongLong
FN:122,122,AC_GetUnsigned
FN:123,123,AC_GetInt
FN:124,124,AC_GetU32
FN:125,125,AC_GetU64
FN:126,126,AC_GetSize
FN:128,150,AC_GetDouble
FN:14,16,AC_Advance
FN:152,160,AC_GetRString
FN:162,180,AC_GetString
FN:18,25,AC_AdvanceBy
FN:182,188,AC_GetStringNC
FN:190,197,AC_GetVarArgs
FN:199,210,AC_GetSlice
FN:212,245,parseSingleSpec
FN:247,284,AC_ParseArgSpec
FN:27,40,AC_AdvanceIfMatch
FN:47,63,tryReadAsDouble
FN:65,101,AC_GetLongLong
FNDA:0,AC_GetUnsignedLongLong
FNDA:0,AC_GetUnsigned
FNDA:0,AC_GetInt
FNDA:0,AC_GetU32
FNDA:0,AC_GetU64
FNDA:0,AC_GetSize
FNDA:0,AC_GetDouble
FNDA:0,AC_Advance
FNDA:0,AC_GetRString
FNDA:0,AC_GetString
FNDA:0,AC_AdvanceBy
FNDA:0,AC_GetStringNC
FNDA:0,AC_GetVarArgs
FNDA:0,AC_GetSlice
FNDA:0,parseSingleSpec
FNDA:0,AC_ParseArgSpec
FNDA:0,AC_AdvanceIfMatch
FNDA:0,tryReadAsDouble
FNDA:0,AC_GetLongLong
FNF:19
FNH:0
DA:14,0
DA:15,0
DA:18,0
DA:19,0
DA:20,0
DA:22,0
DA:24,0
DA:27,0
DA:29,0
DA:30,0
DA:33,0
DA:34,0
DA:35,0
DA:36,0
DA:37,0
DA:39,0
DA:47,0
DA:48,0
DA:49,0
DA:50,0
DA:52,0
DA:53,0
DA:54,0
DA:57,0
DA:58,0
DA:60,0
DA:61,0
DA:65,0
DA:66,0
DA:67,0
DA:68,0
DA:71,0
DA:75,0
DA:76,0
DA:77,0
DA:80,0
DA:81,0
DA:82,0
DA:83,0
DA:87,0
DA:88,0
DA:91,0
DA:92,0
DA:95,0
DA:96,0
DA:98,0
DA:99,0
DA:100,0
DA:121,0
DA:122,0
DA:123,0
DA:124,0
DA:125,0
DA:126,0
DA:128,0
DA:129,0
DA:130,0
DA:131,0
DA:132,0
DA:135,0
DA:136,0
DA:137,0
DA:138,0
DA:141,0
DA:142,0
DA:144,0
DA:145,0
DA:147,0
DA:148,0
DA:149,0
DA:152,0
DA:153,0
DA:154,0
DA:155,0
DA:157,0
DA:158,0
DA:159,0
DA:162,0
DA:163,0
DA:164,0
DA:166,0
DA:167,0
DA:169,0
DA:170,0
DA:171,0
DA:172,0
DA:174,0
DA:178,0
DA:179,0
DA:182,0
DA:183,0
DA:184,0
DA:185,0
DA:187,0
DA:190,0
DA:192,0
DA:193,0
DA:194,0
DA:196,0
DA:199,0
DA:200,0
DA:201,0
DA:204,0
DA:205,0
DA:206,0
DA:207,0
DA:208,0
DA:209,0
DA:212,0
DA:213,0
DA:214,0
DA:215,0
DA:216,0
DA:217,0
DA:218,0
DA:219,0
DA:220,0
DA:221,0
DA:222,0
DA:223,0
DA:224,0
DA:225,0
DA:226,0
DA:227,0
DA:228,0
DA:229,0
DA:230,0
DA:231,0
DA:232,0
DA:233,0
DA:234,0
DA:235,0
DA:236,0
DA:237,0
DA:238,0
DA:239,0
DA:240,0
DA:241,0
DA:242,0
DA:243,0
DA:247,0
DA:248,0
DA:252,0
DA:253,0
DA:256,0
DA:257,0
DA:258,0
DA:260,0
DA:262,0
DA:263,0
DA:264,0
DA:266,0
DA:267,0
DA:271,0
DA:272,0
DA:275,0
DA:276,0
DA:277,0
DA:278,0
DA:280,0
DA:283,0
LF:161
LH:0
end_of_record
TN:
SF:/home/nn/redis/FalkorDB/deps/RediSearch/deps/rmutil/args.h
FN:182,197,AC_Strerror
FN:41,46,ArgsCursor_InitCString
FN:48,53,ArgsCursor_InitSDS
FN:55,60,ArgsCursor_InitRString
FNDA:0,AC_Strerror
FNDA:0,ArgsCursor_InitCString
FNDA:0,ArgsCursor_InitSDS
FNDA:0,ArgsCursor_InitRString
FNF:4
FNH:0
DA:41,0
DA:42,0
DA:43,0
DA:44,0
DA:45,0
DA:46,0
DA:48,0
DA:49,0
DA:50,0
DA:51,0
DA:52,0
DA:53,0
DA:55,0
DA:56,0
DA:57,0
DA:58,0
DA:59,0
DA:60,0
DA:182,0
DA:183,0
DA:184,0
DA:185,0
DA:186,0
DA:187,0
DA:188,0
DA:189,0
DA:190,0
DA:191,0
DA:192,0
DA:193,0
DA:194,0
DA:195,0
LF:32
LH:0
end_of_record
TN:
SF:/home/nn/redis/FalkorDB/deps/RediSearch/deps/rmutil/cxx/chrono-clock.cc
FN:13,15,steady_clock_diff_msec
FN:17,20,steady_clock_since_msec
FN:22,25,steady_clock_since_usec
FN:27,30,steady_clock_since_nsec
FN:36,38,hires_clock_get
FN:40,42,hires_clock_diff_msec
FN:44,47,hires_clock_since_msec
FN:49,52,hires_clock_since_usec
FN:54,57,hires_clock_since_nsec
FN:9,11,steady_clock_get
FNDA:0,steady_clock_diff_msec
FNDA:0,steady_clock_since_msec
FNDA:0,steady_clock_since_usec
FNDA:0,steady_clock_since_nsec
FNDA:0,hires_clock_get
FNDA:0,hires_clock_diff_msec
FNDA:0,hires_clock_since_msec
FNDA:0,hires_clock_since_usec
FNDA:0,hires_clock_since_nsec
FNDA:0,steady_clock_get
FNF:10
FNH:0
DA:9,0
DA:10,0
DA:11,0
DA:13,0
DA:14,0
DA:17,0
DA:18,0
DA:19,0
DA:22,0
DA:23,0
DA:24,0
DA:27,0
DA:28,0
DA:29,0
DA:36,0
DA:37,0
DA:38,0
DA:40,0
DA:41,0
DA:44,0
DA:45,0
DA:46,0
DA:49,0
DA:50,0
DA:51,0
DA:54,0
DA:55,0
DA:56,0
LF:28
LH:0
end_of_record
TN:
SF:/home/nn/redis/FalkorDB/deps/RediSearch/deps/rmutil/sds.h
FN:104,119,sdslen
FNDA:0,sdslen
FNF:1
FNH:0
DA:104,0
DA:105,0
DA:106,0
DA:107,0
DA:108,0
DA:109,0
DA:110,0
DA:111,0
DA:112,0
DA:113,0
DA:114,0
DA:115,0
DA:116,0
DA:118,0
LF:14
LH:0
end_of_record
TN:
SF:/home/nn/redis/FalkorDB/deps/RediSearch/deps/rmutil/strings.c
FN:30,39,RMUtil_StringEquals
FN:41,49,RMUtil_StringEqualsC
FN:50,58,RMUtil_StringEqualsCaseC
FN:60,69,RMUtil_StringToLower
FN:71,79,RMUtil_StringToUpper
FN:81,89,RMUtil_StringConvert
FNDA:0,RMUtil_StringEquals
FNDA:0,RMUtil_StringEqualsC
FNDA:0,RMUtil_StringEqualsCaseC
FNDA:0,RMUtil_StringToLower
FNDA:0,RMUtil_StringToUpper
FNDA:0,RMUtil_StringConvert
FNF:6
FNH:0
DA:30,0
DA:34,0
DA:35,0
DA:36,0
DA:38,0
DA:41,0
DA:44,0
DA:45,0
DA:46,0
DA:48,0
DA:50,0
DA:53,0
DA:54,0
DA:55,0
DA:57,0
DA:60,0
DA:63,0
DA:65,0
DA:66,0
DA:67,0
DA:69,0
DA:71,0
DA:73,0
DA:75,0
DA:76,0
DA:77,0
DA:79,0
DA:81,0
DA:82,0
DA:83,0
DA:84,0
DA:85,0
DA:87,0
DA:89,0
LF:34
LH:0
end_of_record
TN:
SF:/home/nn/redis/FalkorDB/deps/RediSearch/deps/rmutil/util.c
FN:101,115,RMUtilInfo_GetInt
FN:117,126,RMUtilInfo_GetString
FN:128,141,RMUtilInfo_GetDouble
FN:151,157,RMUtil_ParseArgs
FN:160,203,rmutil_vparseArgs
FN:205,218,RMUtil_ParseArgsAfter
FN:220,243,RedisModule_CallReplyArrayElementByPath
FN:23,35,RMUtil_ArgExists
FN:245,258,RedisModule_TryGetValue
FN:260,289,RMUtil_ParseVarArgs
FN:291,305,RMUtil_DefaultAofRewrite
FN:307,316,RMUtil_ReplyWithErrorFmt
FN:41,53,RMUtil_ArgIndex
FN:55,91,RMUtil_GetRedisInfo
FN:92,99,RMUtilRedisInfo_Free
FNDA:0,RMUtilInfo_GetInt
FNDA:0,RMUtilInfo_GetString
FNDA:0,RMUtilInfo_GetDouble
FNDA:0,RMUtil_ParseArgs
FNDA:0,rmutil_vparseArgs
FNDA:0,RMUtil_ParseArgsAfter
FNDA:0,RedisModule_CallReplyArrayElementByPath
FNDA:0,RMUtil_ArgExists
FNDA:0,RedisModule_TryGetValue
FNDA:0,RMUtil_ParseVarArgs
FNDA:0,RMUtil_DefaultAofRewrite
FNDA:0,RMUtil_ReplyWithErrorFmt
FNDA:0,RMUtil_ArgIndex
FNDA:0,RMUtil_GetRedisInfo
FNDA:0,RMUtilRedisInfo_Free
FNF:15
FNH:0
DA:23,0
DA:25,0
DA:26,0
DA:28,0
DA:29,0
DA:30,0
DA:31,0
DA:34,0
DA:41,0
DA:43,0
DA:44,0
DA:46,0
DA:47,0
DA:48,0
DA:49,0
DA:52,0
DA:55,0
DA:57,0
DA:58,0
DA:59,0
DA:62,0
DA:63,0
DA:64,0
DA:66,0
DA:68,0
DA:70,0
DA:71,0
DA:72,0
DA:73,0
DA:75,0
DA:76,0
DA:79,0
DA:80,0
DA:81,0
DA:82,0
DA:83,0
DA:84,0
DA:85,0
DA:88,0
DA:89,0
DA:90,0
DA:92,0
DA:93,0
DA:94,0
DA:95,0
DA:97,0
DA:98,0
DA:99,0
DA:101,0
DA:103,0
DA:104,0
DA:105,0
DA:108,0
DA:109,0
DA:110,0
DA:111,0
DA:114,0
DA:117,0
DA:119,0
DA:120,0
DA:121,0
DA:122,0
DA:125,0
DA:128,0
DA:129,0
DA:130,0
DA:131,0
DA:132,0
DA:135,0
DA:136,0
DA:137,0
DA:140,0
DA:151,0
DA:153,0
DA:154,0
DA:155,0
DA:156,0
DA:160,0
DA:162,0
DA:163,0
DA:164,0
DA:167,0
DA:168,0
DA:169,0
DA:170,0
DA:171,0
DA:172,0
DA:173,0
DA:174,0
DA:176,0
DA:177,0
DA:179,0
DA:180,0
DA:182,0
DA:183,0
DA:185,0
DA:186,0
DA:187,0
DA:188,0
DA:190,0
DA:193,0
DA:195,0
DA:196,0
DA:199,0
DA:200,0
DA:202,0
DA:205,0
DA:208,0
DA:209,0
DA:210,0
DA:214,0
DA:215,0
DA:216,0
DA:217,0
DA:220,0
DA:222,0
DA:224,0
DA:225,0
DA:229,0
DA:230,0
DA:232,0
DA:233,0
DA:234,0
DA:235,0
DA:237,0
DA:238,0
DA:240,0
DA:242,0
DA:245,0
DA:246,0
DA:247,0
DA:249,0
DA:250,0
DA:251,0
DA:252,0
DA:253,0
DA:254,0
DA:256,0
DA:260,0
DA:262,0
DA:263,0
DA:266,0
DA:267,0
DA:269,0
DA:270,0
DA:271,0
DA:272,0
DA:273,0
DA:274,0
DA:277,0
DA:278,0
DA:280,0
DA:281,0
DA:282,0
DA:283,0
DA:284,0
DA:287,0
DA:288,0
DA:291,0
DA:292,0
DA:293,0
DA:294,0
DA:296,0
DA:297,0
DA:299,0
DA:301,0
DA:302,0
DA:304,0
DA:305,0
DA:307,0
DA:309,0
DA:310,0
DA:311,0
DA:312,0
DA:313,0
DA:314,0
DA:315,0
LF:177
LH:0
end_of_record
TN:
SF:/home/nn/redis/FalkorDB/deps/RediSearch/deps/rmutil/vector.c
FN:11,18,__vector_PushPtr
FN:20,28,Vector_Get
FN:31,40,Vector_Pop
FN:42,58,__vector_PutPtr
FN:60,73,Vector_Resize
FN:75,83,__newVectorSize
FN:85,88,Vector_Free
FN:91,93,Vector_Size
FN:96,98,Vector_Cap
FNDA:0,__vector_PushPtr
FNDA:0,Vector_Get
FNDA:0,Vector_Pop
FNDA:0,__vector_PutPtr
FNDA:0,Vector_Resize
FNDA:0,__newVectorSize
FNDA:0,Vector_Free
FNDA:0,Vector_Size
FNDA:0,Vector_Cap
FNF:9
FNH:0
DA:11,0
DA:12,0
DA:13,0
DA:16,0
DA:17,0
DA:20,0
DA:22,0
DA:23,0
DA:26,0
DA:27,0
DA:31,0
DA:32,0
DA:33,0
DA:34,0
DA:36,0
DA:37,0
DA:39,0
DA:42,0
DA:44,0
DA:45,0
DA:48,0
DA:49,0
DA:51,0
DA:54,0
DA:55,0
DA:57,0
DA:60,0
DA:61,0
DA:62,0
DA:64,0
DA:68,0
DA:69,0
DA:70,0
DA:72,0
DA:75,0
DA:76,0
DA:77,0
DA:78,0
DA:79,0
DA:80,0
DA:82,0
DA:85,0
DA:86,0
DA:87,0
DA:88,0
DA:91,0
DA:92,0
DA:96,0
DA:97,0
LF:49
LH:0
end_of_record
TN:
SF:/home/nn/redis/FalkorDB/deps/RediSearch/deps/snowball/libstemmer/libstemmer.c
FN:18,21,sb_stemmer_list
FN:24,33,sb_getenc
FN:36,65,sb_stemmer_new
FN:68,76,sb_stemmer_delete
FN:79,91,sb_stemmer_stem
FN:94,97,sb_stemmer_length
FNDA:0,sb_stemmer_list
FNDA:0,sb_getenc
FNDA:0,sb_stemmer_new
FNDA:0,sb_stemmer_delete
FNDA:0,sb_stemmer_stem
FNDA:0,sb_stemmer_length
FNF:6
FNH:0
DA:18,0
DA:20,0
DA:24,0
DA:27,0
DA:28,0
DA:29,0
DA:31,0
DA:32,0
DA:36,0
DA:42,0
DA:43,0
DA:45,0
DA:46,0
DA:48,0
DA:50,0
DA:51,0
DA:53,0
DA:54,0
DA:55,0
DA:57,0
DA:58,0
DA:60,0
DA:61,0
DA:64,0
DA:68,0
DA:70,0
DA:71,0
DA:72,0
DA:73,0
DA:75,0
DA:79,0
DA:82,0
DA:84,0
DA:85,0
DA:87,0
DA:88,0
DA:89,0
DA:90,0
DA:94,0
DA:96,0
LF:40
LH:0
end_of_record
TN:
SF:/home/nn/redis/FalkorDB/deps/RediSearch/deps/snowball/runtime/api.c
FN:36,51,SN_close_env
FN:5,34,SN_create_env
FN:53,58,SN_set_current
FNDA:0,SN_close_env
FNDA:0,SN_create_env
FNDA:0,SN_set_current
FNF:3
FNH:0
DA:5,0
DA:7,0
DA:8,0
DA:9,0
DA:10,0
DA:11,0
DA:14,0
DA:15,0
DA:17,0
DA:19,0
DA:20,0
DA:24,0
DA:26,0
DA:27,0
DA:30,0
DA:31,0
DA:32,0
DA:33,0
DA:36,0
DA:38,0
DA:39,0
DA:42,0
DA:44,0
DA:46,0
DA:48,0
DA:49,0
DA:50,0
DA:53,0
DA:55,0
DA:56,0
DA:57,0
LF:31
LH:0
end_of_record
TN:
SF:/home/nn/redis/FalkorDB/deps/RediSearch/deps/snowball/runtime/utilities.c
FN:11,19,create_s
FN:123,133,in_grouping_U
FN:135,145,in_grouping_b_U
FN:147,157,out_grouping_U
FN:159,169,out_grouping_b_U
FN:173,183,in_grouping
FN:185,195,in_grouping_b
FN:197,207,out_grouping
FN:209,219,out_grouping_b
FN:21,24,lose_s
FN:221,224,eq_s
FN:226,229,eq_s_b
FN:231,233,eq_v
FN:235,237,eq_v_b
FN:239,300,find_among
FN:304,355,find_among_b
FN:33,49,skip_utf8
FN:361,373,increase_size
FN:380,409,replace_s
FN:411,426,slice_check
FN:428,431,slice_from_s
FN:433,435,slice_from_v
FN:437,439,slice_del
FN:441,448,insert_s
FN:450,452,insert_v
FN:454,470,slice_to
FN:472,482,assign_to
FN:484,492,len_utf8
FN:58,73,skip_b_utf8
FN:77,97,get_utf8
FN:99,121,get_b_utf8
FNDA:0,create_s
FNDA:0,in_grouping_U
FNDA:0,in_grouping_b_U
FNDA:0,out_grouping_U
FNDA:0,out_grouping_b_U
FNDA:0,in_grouping
FNDA:0,in_grouping_b
FNDA:0,out_grouping
FNDA:0,out_grouping_b
FNDA:0,lose_s
FNDA:0,eq_s
FNDA:0,eq_s_b
FNDA:0,eq_v
FNDA:0,eq_v_b
FNDA:0,find_among
FNDA:0,find_among_b
FNDA:0,skip_utf8
FNDA:0,increase_size
FNDA:0,replace_s
FNDA:0,slice_check
FNDA:0,slice_from_s
FNDA:0,slice_from_v
FNDA:0,slice_del
FNDA:0,insert_s
FNDA:0,insert_v
FNDA:0,slice_to
FNDA:0,assign_to
FNDA:0,len_utf8
FNDA:0,skip_b_utf8
FNDA:0,get_utf8
FNDA:0,get_b_utf8
FNF:31
FNH:0
DA:11,0
DA:13,0
DA:14,0
DA:15,0
DA:16,0
DA:17,0
DA:18,0
DA:21,0
DA:22,0
DA:23,0
DA:33,0
DA:35,0
DA:36,0
DA:37,0
DA:38,0
DA:39,0
DA:40,0
DA:41,0
DA:42,0
DA:44,0
DA:48,0
DA:58,0
DA:60,0
DA:61,0
DA:62,0
DA:63,0
DA:64,0
DA:65,0
DA:66,0
DA:67,0
DA:68,0
DA:72,0
DA:77,0
DA:79,0
DA:80,0
DA:81,0
DA:82,0
DA:83,0
DA:85,0
DA:86,0
DA:87,0
DA:88,0
DA:90,0
DA:91,0
DA:92,0
DA:93,0
DA:95,0
DA:96,0
DA:99,0
DA:101,0
DA:102,0
DA:103,0
DA:104,0
DA:105,0
DA:107,0
DA:108,0
DA:109,0
DA:110,0
DA:111,0
DA:113,0
DA:114,0
DA:115,0
DA:116,0
DA:117,0
DA:119,0
DA:120,0
DA:123,0
DA:126,0
DA:127,0
DA:128,0
DA:129,0
DA:130,0
DA:131,0
DA:132,0
DA:135,0
DA:138,0
DA:139,0
DA:140,0
DA:141,0
DA:142,0
DA:143,0
DA:144,0
DA:147,0
DA:150,0
DA:151,0
DA:152,0
DA:153,0
DA:154,0
DA:155,0
DA:156,0
DA:159,0
DA:162,0
DA:163,0
DA:164,0
DA:165,0
DA:166,0
DA:167,0
DA:168,0
DA:173,0
DA:176,0
DA:177,0
DA:178,0
DA:179,0
DA:180,0
DA:181,0
DA:182,0
DA:185,0
DA:188,0
DA:189,0
DA:190,0
DA:191,0
DA:192,0
DA:193,0
DA:194,0
DA:197,0
DA:200,0
DA:201,0
DA:202,0
DA:203,0
DA:204,0
DA:205,0
DA:206,0
DA:209,0
DA:212,0
DA:213,0
DA:214,0
DA:215,0
DA:216,0
DA:217,0
DA:218,0
DA:221,0
DA:222,0
DA:223,0
DA:226,0
DA:227,0
DA:228,0
DA:231,0
DA:232,0
DA:235,0
DA:236,0
DA:239,0
DA:241,0
DA:242,0
DA:244,0
DA:245,0
DA:249,0
DA:250,0
DA:252,0
DA:254,0
DA:255,0
DA:256,0
DA:257,0
DA:258,0
DA:260,0
DA:261,0
DA:262,0
DA:263,0
DA:264,0
DA:267,0
DA:268,0
DA:269,0
DA:271,0
DA:272,0
DA:274,0
DA:275,0
DA:276,0
DA:282,0
DA:283,0
DA:287,0
DA:288,0
DA:289,0
DA:290,0
DA:292,0
DA:293,0
DA:294,0
DA:297,0
DA:298,0
DA:304,0
DA:306,0
DA:307,0
DA:309,0
DA:310,0
DA:314,0
DA:315,0
DA:317,0
DA:319,0
DA:320,0
DA:321,0
DA:322,0
DA:323,0
DA:325,0
DA:326,0
DA:327,0
DA:328,0
DA:329,0
DA:332,0
DA:333,0
DA:334,0
DA:335,0
DA:336,0
DA:337,0
DA:338,0
DA:342,0
DA:343,0
DA:344,0
DA:345,0
DA:347,0
DA:348,0
DA:349,0
DA:352,0
DA:353,0
DA:361,0
DA:363,0
DA:364,0
DA:365,0
DA:366,0
DA:367,0
DA:368,0
DA:370,0
DA:371,0
DA:372,0
DA:380,0
DA:384,0
DA:385,0
DA:386,0
DA:388,0
DA:389,0
DA:390,0
DA:391,0
DA:392,0
DA:393,0
DA:395,0
DA:396,0
DA:397,0
DA:398,0
DA:399,0
DA:400,0
DA:401,0
DA:402,0
DA:403,0
DA:405,0
DA:406,0
DA:407,0
DA:408,0
DA:411,0
DA:413,0
DA:414,0
DA:415,0
DA:416,0
DA:417,0
DA:423,0
DA:425,0
DA:428,0
DA:429,0
DA:430,0
DA:433,0
DA:434,0
DA:437,0
DA:438,0
DA:441,0
DA:443,0
DA:444,0
DA:445,0
DA:446,0
DA:447,0
DA:450,0
DA:451,0
DA:454,0
DA:455,0
DA:456,0
DA:457,0
DA:460,0
DA:461,0
DA:462,0
DA:463,0
DA:464,0
DA:466,0
DA:467,0
DA:469,0
DA:472,0
DA:473,0
DA:474,0
DA:475,0
DA:476,0
DA:477,0
DA:479,0
DA:480,0
DA:481,0
DA:484,0
DA:485,0
DA:486,0
DA:487,0
DA:488,0
DA:489,0
DA:491,0
LF:295
LH:0
end_of_record
TN:
SF:/home/nn/redis/FalkorDB/deps/RediSearch/deps/snowball/src_c/stem_ISO_8859_1_basque.c
FN:1001,1042,r_aditzak
FN:1044,1113,r_izenak
FN:1115,1138,r_adjetiboak
FN:1140,1177,basque_ISO_8859_1_stem
FN:1179,1179,basque_ISO_8859_1_create_env
FN:1181,1181,basque_ISO_8859_1_close_env
FN:906,984,r_mark_regions
FN:986,989,r_RV
FN:991,994,r_R2
FN:996,999,r_R1
FNDA:0,r_aditzak
FNDA:0,r_izenak
FNDA:0,r_adjetiboak
FNDA:0,basque_ISO_8859_1_stem
FNDA:0,basque_ISO_8859_1_create_env
FNDA:0,basque_ISO_8859_1_close_env
FNDA:0,r_mark_regions
FNDA:0,r_RV
FNDA:0,r_R2
FNDA:0,r_R1
FNF:10
FNH:0
DA:906,0
DA:907,0
DA:908,0
DA:909,0
DA:910,0
DA:911,0
DA:912,0
DA:913,0
DA:914,0
DA:916,0
DA:917,0
DA:918,0
DA:920,0
DA:921,0
DA:922,0
DA:923,0
DA:925,0
DA:926,0
DA:927,0
DA:930,0
DA:931,0
DA:932,0
DA:933,0
DA:934,0
DA:935,0
DA:936,0
DA:938,0
DA:939,0
DA:940,0
DA:942,0
DA:943,0
DA:944,0
DA:945,0
DA:946,0
DA:947,0
DA:949,0
DA:952,0
DA:953,0
DA:954,0
DA:955,0
DA:957,0
DA:959,0
DA:960,0
DA:961,0
DA:964,0
DA:965,0
DA:966,0
DA:968,0
DA:970,0
DA:971,0
DA:972,0
DA:975,0
DA:976,0
DA:977,0
DA:979,0
DA:980,0
DA:981,0
DA:983,0
DA:986,0
DA:987,0
DA:988,0
DA:991,0
DA:992,0
DA:993,0
DA:996,0
DA:997,0
DA:998,0
DA:1001,0
DA:1003,0
DA:1004,0
DA:1005,0
DA:1006,0
DA:1007,0
DA:1008,0
DA:1009,0
DA:1010,0
DA:1011,0
DA:1013,0
DA:1014,0
DA:1016,0
DA:1017,0
DA:1018,0
DA:1019,0
DA:1021,0
DA:1022,0
DA:1024,0
DA:1025,0
DA:1026,0
DA:1027,0
DA:1029,0
DA:1030,0
DA:1031,0
DA:1032,0
DA:1034,0
DA:1035,0
DA:1036,0
DA:1037,0
DA:1039,0
DA:1041,0
DA:1044,0
DA:1046,0
DA:1047,0
DA:1048,0
DA:1049,0
DA:1050,0
DA:1051,0
DA:1052,0
DA:1053,0
DA:1054,0
DA:1056,0
DA:1057,0
DA:1059,0
DA:1060,0
DA:1061,0
DA:1062,0
DA:1064,0
DA:1065,0
DA:1067,0
DA:1068,0
DA:1069,0
DA:1070,0
DA:1072,0
DA:1073,0
DA:1074,0
DA:1075,0
DA:1077,0
DA:1078,0
DA:1080,0
DA:1081,0
DA:1082,0
DA:1083,0
DA:1085,0
DA:1086,0
DA:1087,0
DA:1088,0
DA:1090,0
DA:1091,0
DA:1092,0
DA:1093,0
DA:1095,0
DA:1096,0
DA:1097,0
DA:1098,0
DA:1100,0
DA:1101,0
DA:1102,0
DA:1103,0
DA:1105,0
DA:1106,0
DA:1107,0
DA:1108,0
DA:1110,0
DA:1112,0
DA:1115,0
DA:1117,0
DA:1118,0
DA:1119,0
DA:1120,0
DA:1121,0
DA:1122,0
DA:1123,0
DA:1124,0
DA:1125,0
DA:1127,0
DA:1128,0
DA:1130,0
DA:1131,0
DA:1132,0
DA:1133,0
DA:1135,0
DA:1137,0
DA:1140,0
DA:1142,0
DA:1143,0
DA:1145,0
DA:1147,0
DA:1148,0
DA:1149,0
DA:1150,0
DA:1151,0
DA:1153,0
DA:1154,0
DA:1155,0
DA:1156,0
DA:1158,0
DA:1159,0
DA:1160,0
DA:1161,0
DA:1162,0
DA:1164,0
DA:1165,0
DA:1166,0
DA:1167,0
DA:1169,0
DA:1170,0
DA:1171,0
DA:1173,0
DA:1175,0
DA:1176,0
DA:1179,0
DA:1181,0
LF:201
LH:0
end_of_record
TN:
SF:/home/nn/redis/FalkorDB/deps/RediSearch/deps/snowball/src_c/stem_ISO_8859_1_catalan.c
FN:1183,1213,r_mark_regions
FN:1215,1265,r_cleaning
FN:1267,1270,r_R1
FN:1272,1275,r_R2
FN:1277,1289,r_attached_pronoun
FN:1291,1340,r_standard_suffix
FN:1342,1367,r_verb_suffix
FN:1369,1394,r_residual_suffix
FN:1396,1441,catalan_ISO_8859_1_stem
FN:1443,1443,catalan_ISO_8859_1_create_env
FN:1445,1445,catalan_ISO_8859_1_close_env
FNDA:0,r_mark_regions
FNDA:0,r_cleaning
FNDA:0,r_R1
FNDA:0,r_R2
FNDA:0,r_attached_pronoun
FNDA:0,r_standard_suffix
FNDA:0,r_verb_suffix
FNDA:0,r_residual_suffix
FNDA:0,catalan_ISO_8859_1_stem
FNDA:0,catalan_ISO_8859_1_create_env
FNDA:0,catalan_ISO_8859_1_close_env
FNF:11
FNH:0
DA:1183,0
DA:1184,0
DA:1185,0
DA:1186,0
DA:1188,0
DA:1189,0
DA:1190,0
DA:1193,0
DA:1194,0
DA:1195,0
DA:1197,0
DA:1199,0
DA:1200,0
DA:1201,0
DA:1204,0
DA:1205,0
DA:1206,0
DA:1208,0
DA:1209,0
DA:1210,0
DA:1212,0
DA:1215,0
DA:1217,0
DA:1218,0
DA:1219,0
DA:1220,0
DA:1221,0
DA:1222,0
DA:1223,0
DA:1224,0
DA:1225,0
DA:1226,0
DA:1228,0
DA:1229,0
DA:1230,0
DA:1231,0
DA:1233,0
DA:1234,0
DA:1235,0
DA:1236,0
DA:1238,0
DA:1239,0
DA:1240,0
DA:1241,0
DA:1243,0
DA:1244,0
DA:1245,0
DA:1246,0
DA:1248,0
DA:1249,0
DA:1250,0
DA:1251,0
DA:1253,0
DA:1254,0
DA:1255,0
DA:1256,0
DA:1257,0
DA:1259,0
DA:1260,0
DA:1261,0
DA:1262,0
DA:1264,0
DA:1267,0
DA:1268,0
DA:1269,0
DA:1272,0
DA:1273,0
DA:1274,0
DA:1277,0
DA:1278,0
DA:1279,0
DA:1280,0
DA:1281,0
DA:1282,0
DA:1283,0
DA:1285,0
DA:1286,0
DA:1288,0
DA:1291,0
DA:1293,0
DA:1294,0
DA:1295,0
DA:1296,0
DA:1297,0
DA:1298,0
DA:1299,0
DA:1300,0
DA:1302,0
DA:1303,0
DA:1305,0
DA:1306,0
DA:1307,0
DA:1308,0
DA:1310,0
DA:1311,0
DA:1313,0
DA:1314,0
DA:1315,0
DA:1316,0
DA:1318,0
DA:1319,0
DA:1321,0
DA:1322,0
DA:1323,0
DA:1324,0
DA:1326,0
DA:1327,0
DA:1329,0
DA:1330,0
DA:1331,0
DA:1332,0
DA:1334,0
DA:1335,0
DA:1337,0
DA:1339,0
DA:1342,0
DA:1344,0
DA:1345,0
DA:1346,0
DA:1347,0
DA:1348,0
DA:1349,0
DA:1350,0
DA:1351,0
DA:1353,0
DA:1354,0
DA:1356,0
DA:1357,0
DA:1358,0
DA:1359,0
DA:1361,0
DA:1362,0
DA:1364,0
DA:1366,0
DA:1369,0
DA:1371,0
DA:1372,0
DA:1373,0
DA:1374,0
DA:1375,0
DA:1376,0
DA:1377,0
DA:1378,0
DA:1380,0
DA:1381,0
DA:1383,0
DA:1384,0
DA:1385,0
DA:1386,0
DA:1388,0
DA:1389,0
DA:1391,0
DA:1393,0
DA:1396,0
DA:1398,0
DA:1399,0
DA:1401,0
DA:1403,0
DA:1404,0
DA:1405,0
DA:1407,0
DA:1409,0
DA:1410,0
DA:1411,0
DA:1412,0
DA:1413,0
DA:1415,0
DA:1416,0
DA:1417,0
DA:1418,0
DA:1419,0
DA:1420,0
DA:1423,0
DA:1424,0
DA:1425,0
DA:1427,0
DA:1428,0
DA:1429,0
DA:1431,0
DA:1433,0
DA:1434,0
DA:1435,0
DA:1436,0
DA:1438,0
DA:1440,0
DA:1443,0
DA:1445,0
LF:187
LH:0
end_of_record
TN:
SF:/home/nn/redis/FalkorDB/deps/RediSearch/deps/snowball/src_c/stem_ISO_8859_1_danish.c
FN:136,156,r_mark_regions
FN:158,185,r_main_suffix
FN:187,208,r_consonant_pair
FN:210,253,r_other_suffix
FN:255,272,r_undouble
FN:274,309,danish_ISO_8859_1_stem
FN:311,311,danish_ISO_8859_1_create_env
FN:313,313,danish_ISO_8859_1_close_env
FNDA:0,r_mark_regions
FNDA:0,r_main_suffix
FNDA:0,r_consonant_pair
FNDA:0,r_other_suffix
FNDA:0,r_undouble
FNDA:0,danish_ISO_8859_1_stem
FNDA:0,danish_ISO_8859_1_create_env
FNDA:0,danish_ISO_8859_1_close_env
FNF:8
FNH:0
DA:136,0
DA:137,0
DA:138,0
DA:139,0
DA:140,0
DA:141,0
DA:142,0
DA:144,0
DA:146,0
DA:147,0
DA:148,0
DA:150,0
DA:152,0
DA:153,0
DA:154,0
DA:155,0
DA:158,0
DA:162,0
DA:163,0
DA:164,0
DA:165,0
DA:166,0
DA:167,0
DA:168,0
DA:169,0
DA:171,0
DA:172,0
DA:173,0
DA:174,0
DA:176,0
DA:177,0
DA:178,0
DA:179,0
DA:180,0
DA:182,0
DA:184,0
DA:187,0
DA:188,0
DA:191,0
DA:192,0
DA:193,0
DA:194,0
DA:195,0
DA:196,0
DA:197,0
DA:199,0
DA:201,0
DA:202,0
DA:203,0
DA:204,0
DA:205,0
DA:207,0
DA:210,0
DA:212,0
DA:213,0
DA:214,0
DA:215,0
DA:216,0
DA:217,0
DA:218,0
DA:220,0
DA:221,0
DA:225,0
DA:226,0
DA:227,0
DA:228,0
DA:229,0
DA:230,0
DA:231,0
DA:232,0
DA:234,0
DA:235,0
DA:236,0
DA:237,0
DA:239,0
DA:240,0
DA:241,0
DA:243,0
DA:245,0
DA:246,0
DA:247,0
DA:248,0
DA:250,0
DA:252,0
DA:255,0
DA:258,0
DA:259,0
DA:260,0
DA:261,0
DA:262,0
DA:263,0
DA:264,0
DA:265,0
DA:267,0
DA:268,0
DA:269,0
DA:271,0
DA:274,0
DA:275,0
DA:276,0
DA:277,0
DA:279,0
DA:281,0
DA:283,0
DA:284,0
DA:285,0
DA:287,0
DA:289,0
DA:290,0
DA:291,0
DA:293,0
DA:295,0
DA:296,0
DA:297,0
DA:299,0
DA:301,0
DA:302,0
DA:303,0
DA:305,0
DA:307,0
DA:308,0
DA:311,0
DA:313,0
LF:123
LH:0
end_of_record
TN:
SF:/home/nn/redis/FalkorDB/deps/RediSearch/deps/snowball/src_c/stem_ISO_8859_1_dutch.c
FN:147,244,r_prelude
FN:246,276,r_mark_regions
FN:278,309,r_postlude
FN:311,314,r_R1
FN:316,319,r_R2
FN:321,335,r_undouble
FN:337,358,r_e_ending
FN:360,381,r_en_ending
FN:383,569,r_standard_suffix
FN:571,598,dutch_ISO_8859_1_stem
FN:600,600,dutch_ISO_8859_1_create_env
FN:602,602,dutch_ISO_8859_1_close_env
FNDA:0,r_prelude
FNDA:0,r_mark_regions
FNDA:0,r_postlude
FNDA:0,r_R1
FNDA:0,r_R2
FNDA:0,r_undouble
FNDA:0,r_e_ending
FNDA:0,r_en_ending
FNDA:0,r_standard_suffix
FNDA:0,dutch_ISO_8859_1_stem
FNDA:0,dutch_ISO_8859_1_create_env
FNDA:0,dutch_ISO_8859_1_close_env
FNF:12
FNH:0
DA:147,0
DA:149,0
DA:150,0
DA:151,0
DA:152,0
DA:153,0
DA:154,0
DA:155,0
DA:156,0
DA:157,0
DA:158,0
DA:159,0
DA:160,0
DA:162,0
DA:163,0
DA:164,0
DA:165,0
DA:167,0
DA:168,0
DA:169,0
DA:170,0
DA:172,0
DA:173,0
DA:174,0
DA:175,0
DA:177,0
DA:178,0
DA:179,0
DA:180,0
DA:182,0
DA:183,0
DA:184,0
DA:185,0
DA:186,0
DA:188,0
DA:189,0
DA:190,0
DA:191,0
DA:193,0
DA:195,0
DA:196,0
DA:197,0
DA:198,0
DA:199,0
DA:200,0
DA:201,0
DA:203,0
DA:206,0
DA:207,0
DA:208,0
DA:209,0
DA:210,0
DA:211,0
DA:212,0
DA:213,0
DA:214,0
DA:215,0
DA:216,0
DA:217,0
DA:218,0
DA:220,0
DA:221,0
DA:222,0
DA:223,0
DA:224,0
DA:225,0
DA:226,0
DA:227,0
DA:230,0
DA:231,0
DA:232,0
DA:233,0
DA:234,0
DA:235,0
DA:236,0
DA:238,0
DA:239,0
DA:240,0
DA:241,0
DA:243,0
DA:246,0
DA:247,0
DA:248,0
DA:250,0
DA:251,0
DA:252,0
DA:255,0
DA:256,0
DA:257,0
DA:259,0
DA:261,0
DA:262,0
DA:263,0
DA:265,0
DA:266,0
DA:267,0
DA:270,0
DA:271,0
DA:272,0
DA:274,0
DA:275,0
DA:278,0
DA:280,0
DA:281,0
DA:282,0
DA:283,0
DA:284,0
DA:285,0
DA:286,0
DA:287,0
DA:288,0
DA:289,0
DA:290,0
DA:292,0
DA:293,0
DA:294,0
DA:295,0
DA:297,0
DA:298,0
DA:299,0
DA:300,0
DA:301,0
DA:303,0
DA:304,0
DA:305,0
DA:306,0
DA:308,0
DA:311,0
DA:312,0
DA:313,0
DA:316,0
DA:317,0
DA:318,0
DA:321,0
DA:322,0
DA:323,0
DA:324,0
DA:325,0
DA:327,0
DA:328,0
DA:329,0
DA:330,0
DA:331,0
DA:332,0
DA:334,0
DA:337,0
DA:338,0
DA:339,0
DA:340,0
DA:341,0
DA:342,0
DA:343,0
DA:344,0
DA:346,0
DA:347,0
DA:348,0
DA:350,0
DA:351,0
DA:353,0
DA:354,0
DA:355,0
DA:357,0
DA:360,0
DA:361,0
DA:362,0
DA:364,0
DA:365,0
DA:366,0
DA:367,0
DA:368,0
DA:369,0
DA:370,0
DA:371,0
DA:374,0
DA:375,0
DA:377,0
DA:378,0
DA:380,0
DA:383,0
DA:385,0
DA:386,0
DA:387,0
DA:388,0
DA:389,0
DA:390,0
DA:391,0
DA:392,0
DA:393,0
DA:394,0
DA:395,0
DA:397,0
DA:398,0
DA:400,0
DA:401,0
DA:402,0
DA:403,0
DA:404,0
DA:406,0
DA:407,0
DA:408,0
DA:409,0
DA:410,0
DA:412,0
DA:413,0
DA:414,0
DA:416,0
DA:418,0
DA:419,0
DA:421,0
DA:422,0
DA:423,0
DA:425,0
DA:427,0
DA:428,0
DA:429,0
DA:430,0
DA:431,0
DA:432,0
DA:433,0
DA:435,0
DA:436,0
DA:437,0
DA:438,0
DA:439,0
DA:440,0
DA:442,0
DA:443,0
DA:445,0
DA:446,0
DA:447,0
DA:448,0
DA:449,0
DA:450,0
DA:452,0
DA:453,0
DA:455,0
DA:456,0
DA:457,0
DA:458,0
DA:459,0
DA:460,0
DA:461,0
DA:462,0
DA:463,0
DA:464,0
DA:465,0
DA:467,0
DA:468,0
DA:470,0
DA:471,0
DA:472,0
DA:473,0
DA:474,0
DA:475,0
DA:476,0
DA:478,0
DA:479,0
DA:480,0
DA:481,0
DA:482,0
DA:483,0
DA:485,0
DA:486,0
DA:488,0
DA:489,0
DA:490,0
DA:491,0
DA:492,0
DA:493,0
DA:496,0
DA:497,0
DA:498,0
DA:499,0
DA:500,0
DA:501,0
DA:503,0
DA:504,0
DA:505,0
DA:506,0
DA:507,0
DA:508,0
DA:510,0
DA:511,0
DA:513,0
DA:514,0
DA:515,0
DA:516,0
DA:517,0
DA:519,0
DA:520,0
DA:522,0
DA:523,0
DA:524,0
DA:526,0
DA:527,0
DA:528,0
DA:529,0
DA:530,0
DA:532,0
DA:533,0
DA:535,0
DA:536,0
DA:537,0
DA:538,0
DA:539,0
DA:541,0
DA:542,0
DA:543,0
DA:545,0
DA:547,0
DA:548,0
DA:550,0
DA:551,0
DA:552,0
DA:553,0
DA:554,0
DA:555,0
DA:556,0
DA:558,0
DA:559,0
DA:560,0
DA:561,0
DA:562,0
DA:563,0
DA:565,0
DA:566,0
DA:568,0
DA:571,0
DA:572,0
DA:573,0
DA:574,0
DA:576,0
DA:578,0
DA:579,0
DA:580,0
DA:582,0
DA:584,0
DA:587,0
DA:588,0
DA:590,0
DA:591,0
DA:592,0
DA:593,0
DA:595,0
DA:597,0
DA:600,0
DA:602,0
LF:347
LH:0
end_of_record
TN:
SF:/home/nn/redis/FalkorDB/deps/RediSearch/deps/snowball/src_c/stem_ISO_8859_1_english.c
FN:1059,1059,english_ISO_8859_1_create_env
FN:1061,1061,english_ISO_8859_1_close_env
FN:359,413,r_prelude
FN:415,453,r_mark_regions
FN:455,469,r_shortv
FN:471,474,r_R1
FN:476,479,r_R2
FN:481,535,r_Step_1a
FN:537,610,r_Step_1b
FN:612,634,r_Step_1c
FN:636,727,r_Step_2
FN:729,775,r_Step_3
FN:777,810,r_Step_4
FN:812,859,r_Step_5
FN:861,868,r_exception2
FN:870,936,r_exception1
FN:938,964,r_postlude
FN:966,1057,english_ISO_8859_1_stem
FNDA:0,english_ISO_8859_1_create_env
FNDA:0,english_ISO_8859_1_close_env
FNDA:0,r_prelude
FNDA:0,r_mark_regions
FNDA:0,r_shortv
FNDA:0,r_R1
FNDA:0,r_R2
FNDA:0,r_Step_1a
FNDA:0,r_Step_1b
FNDA:0,r_Step_1c
FNDA:0,r_Step_2
FNDA:0,r_Step_3
FNDA:0,r_Step_4
FNDA:0,r_Step_5
FNDA:0,r_exception2
FNDA:0,r_exception1
FNDA:0,r_postlude
FNDA:0,english_ISO_8859_1_stem
FNF:18
FNH:0
DA:359,0
DA:360,0
DA:361,0
DA:362,0
DA:363,0
DA:364,0
DA:365,0
DA:366,0
DA:367,0
DA:369,0
DA:370,0
DA:372,0
DA:373,0
DA:374,0
DA:375,0
DA:376,0
DA:377,0
DA:378,0
DA:380,0
DA:381,0
DA:382,0
DA:384,0
DA:385,0
DA:386,0
DA:387,0
DA:388,0
DA:389,0
DA:390,0
DA:391,0
DA:392,0
DA:393,0
DA:394,0
DA:395,0
DA:396,0
DA:397,0
DA:398,0
DA:399,0
DA:401,0
DA:402,0
DA:404,0
DA:405,0
DA:406,0
DA:407,0
DA:408,0
DA:410,0
DA:412,0
DA:415,0
DA:416,0
DA:417,0
DA:418,0
DA:419,0
DA:420,0
DA:421,0
DA:422,0
DA:423,0
DA:424,0
DA:426,0
DA:427,0
DA:428,0
DA:431,0
DA:432,0
DA:433,0
DA:436,0
DA:437,0
DA:439,0
DA:440,0
DA:441,0
DA:444,0
DA:445,0
DA:446,0
DA:448,0
DA:449,0
DA:450,0
DA:452,0
DA:455,0
DA:456,0
DA:457,0
DA:458,0
DA:459,0
DA:460,0
DA:461,0
DA:462,0
DA:463,0
DA:464,0
DA:465,0
DA:467,0
DA:468,0
DA:471,0
DA:472,0
DA:473,0
DA:476,0
DA:477,0
DA:478,0
DA:481,0
DA:483,0
DA:484,0
DA:485,0
DA:486,0
DA:487,0
DA:488,0
DA:489,0
DA:491,0
DA:494,0
DA:495,0
DA:496,0
DA:497,0
DA:498,0
DA:499,0
DA:500,0
DA:501,0
DA:502,0
DA:504,0
DA:505,0
DA:506,0
DA:507,0
DA:508,0
DA:509,0
DA:510,0
DA:512,0
DA:513,0
DA:514,0
DA:515,0
DA:516,0
DA:519,0
DA:520,0
DA:521,0
DA:522,0
DA:523,0
DA:525,0
DA:526,0
DA:527,0
DA:529,0
DA:530,0
DA:532,0
DA:534,0
DA:537,0
DA:539,0
DA:540,0
DA:541,0
DA:542,0
DA:543,0
DA:544,0
DA:545,0
DA:546,0
DA:547,0
DA:549,0
DA:550,0
DA:552,0
DA:553,0
DA:554,0
DA:556,0
DA:557,0
DA:558,0
DA:560,0
DA:562,0
DA:563,0
DA:565,0
DA:566,0
DA:567,0
DA:568,0
DA:569,0
DA:572,0
DA:574,0
DA:575,0
DA:576,0
DA:578,0
DA:580,0
DA:581,0
DA:582,0
DA:583,0
DA:584,0
DA:585,0
DA:586,0
DA:587,0
DA:589,0
DA:590,0
DA:591,0
DA:592,0
DA:593,0
DA:594,0
DA:596,0
DA:599,0
DA:600,0
DA:601,0
DA:603,0
DA:605,0
DA:607,0
DA:609,0
DA:612,0
DA:613,0
DA:614,0
DA:615,0
DA:616,0
DA:617,0
DA:618,0
DA:619,0
DA:620,0
DA:621,0
DA:623,0
DA:624,0
DA:625,0
DA:627,0
DA:628,0
DA:629,0
DA:630,0
DA:631,0
DA:633,0
DA:636,0
DA:638,0
DA:639,0
DA:640,0
DA:641,0
DA:642,0
DA:643,0
DA:644,0
DA:646,0
DA:647,0
DA:648,0
DA:649,0
DA:651,0
DA:652,0
DA:653,0
DA:654,0
DA:656,0
DA:657,0
DA:658,0
DA:659,0
DA:661,0
DA:662,0
DA:663,0
DA:664,0
DA:666,0
DA:667,0
DA:668,0
DA:669,0
DA:671,0
DA:672,0
DA:673,0
DA:674,0
DA:676,0
DA:677,0
DA:678,0
DA:679,0
DA:681,0
DA:682,0
DA:683,0
DA:684,0
DA:686,0
DA:687,0
DA:688,0
DA:689,0
DA:691,0
DA:692,0
DA:693,0
DA:694,0
DA:696,0
DA:697,0
DA:698,0
DA:699,0
DA:701,0
DA:702,0
DA:703,0
DA:704,0
DA:706,0
DA:707,0
DA:708,0
DA:709,0
DA:710,0
DA:711,0
DA:713,0
DA:714,0
DA:715,0
DA:716,0
DA:718,0
DA:719,0
DA:720,0
DA:721,0
DA:722,0
DA:724,0
DA:726,0
DA:729,0
DA:731,0
DA:732,0
DA:733,0
DA:734,0
DA:735,0
DA:736,0
DA:737,0
DA:739,0
DA:740,0
DA:741,0
DA:742,0
DA:744,0
DA:745,0
DA:746,0
DA:747,0
DA:749,0
DA:750,0
DA:751,0
DA:752,0
DA:754,0
DA:755,0
DA:756,0
DA:757,0
DA:759,0
DA:760,0
DA:761,0
DA:762,0
DA:764,0
DA:765,0
DA:766,0
DA:767,0
DA:769,0
DA:770,0
DA:772,0
DA:774,0
DA:777,0
DA:779,0
DA:780,0
DA:781,0
DA:782,0
DA:783,0
DA:784,0
DA:785,0
DA:787,0
DA:788,0
DA:789,0
DA:790,0
DA:792,0
DA:793,0
DA:794,0
DA:795,0
DA:796,0
DA:797,0
DA:798,0
DA:799,0
DA:800,0
DA:801,0
DA:803,0
DA:804,0
DA:805,0
DA:807,0
DA:809,0
DA:812,0
DA:814,0
DA:815,0
DA:816,0
DA:817,0
DA:818,0
DA:819,0
DA:820,0
DA:821,0
DA:822,0
DA:823,0
DA:824,0
DA:826,0
DA:827,0
DA:828,0
DA:829,0
DA:830,0
DA:832,0
DA:833,0
DA:834,0
DA:835,0
DA:837,0
DA:838,0
DA:839,0
DA:842,0
DA:843,0
DA:844,0
DA:846,0
DA:847,0
DA:848,0
DA:849,0
DA:851,0
DA:852,0
DA:853,0
DA:854,0
DA:856,0
DA:858,0
DA:861,0
DA:862,0
DA:863,0
DA:864,0
DA:865,0
DA:866,0
DA:867,0
DA:870,0
DA:872,0
DA:873,0
DA:874,0
DA:875,0
DA:876,0
DA:877,0
DA:878,0
DA:879,0
DA:880,0
DA:881,0
DA:883,0
DA:884,0
DA:885,0
DA:886,0
DA:888,0
DA:889,0
DA:890,0
DA:891,0
DA:893,0
DA:894,0
DA:895,0
DA:896,0
DA:898,0
DA:899,0
DA:900,0
DA:901,0
DA:903,0
DA:904,0
DA:905,0
DA:906,0
DA:908,0
DA:909,0
DA:910,0
DA:911,0
DA:913,0
DA:914,0
DA:915,0
DA:916,0
DA:918,0
DA:919,0
DA:920,0
DA:921,0
DA:923,0
DA:924,0
DA:925,0
DA:926,0
DA:928,0
DA:929,0
DA:930,0
DA:931,0
DA:933,0
DA:935,0
DA:938,0
DA:939,0
DA:940,0
DA:941,0
DA:942,0
DA:943,0
DA:944,0
DA:945,0
DA:946,0
DA:947,0
DA:948,0
DA:949,0
DA:950,0
DA:951,0
DA:952,0
DA:953,0
DA:955,0
DA:956,0
DA:958,0
DA:959,0
DA:960,0
DA:961,0
DA:963,0
DA:966,0
DA:967,0
DA:968,0
DA:969,0
DA:970,0
DA:972,0
DA:973,0
DA:974,0
DA:975,0
DA:976,0
DA:977,0
DA:978,0
DA:979,0
DA:980,0
DA:982,0
DA:983,0
DA:984,0
DA:986,0
DA:987,0
DA:990,0
DA:991,0
DA:993,0
DA:995,0
DA:996,0
DA:997,0
DA:999,0
DA:1001,0
DA:1002,0
DA:1003,0
DA:1004,0
DA:1006,0
DA:1007,0
DA:1008,0
DA:1009,0
DA:1010,0
DA:1011,0
DA:1013,0
DA:1015,0
DA:1016,0
DA:1017,0
DA:1019,0
DA:1021,0
DA:1022,0
DA:1023,0
DA:1025,0
DA:1027,0
DA:1028,0
DA:1029,0
DA:1031,0
DA:1033,0
DA:1034,0
DA:1035,0
DA:1037,0
DA:1039,0
DA:1040,0
DA:1041,0
DA:1043,0
DA:1046,0
DA:1047,0
DA:1048,0
DA:1049,0
DA:1050,0
DA:1052,0
DA:1055,0
DA:1056,0
DA:1059,0
DA:1061,0
LF:530
LH:0
end_of_record
TN:
SF:/home/nn/redis/FalkorDB/deps/RediSearch/deps/snowball/src_c/stem_ISO_8859_1_finnish.c
FN:277,295,r_mark_regions
FN:297,300,r_R2
FN:302,328,r_particle_etc
FN:330,394,r_possessive
FN:396,399,r_LONG
FN:401,406,r_VI
FN:408,478,r_case_ending
FN:480,506,r_other_endings
FN:508,523,r_i_plural
FN:525,569,r_t_plural
FN:571,652,r_tidy
FN:654,713,finnish_ISO_8859_1_stem
FN:715,715,finnish_ISO_8859_1_create_env
FN:717,717,finnish_ISO_8859_1_close_env
FNDA:0,r_mark_regions
FNDA:0,r_R2
FNDA:0,r_particle_etc
FNDA:0,r_possessive
FNDA:0,r_LONG
FNDA:0,r_VI
FNDA:0,r_case_ending
FNDA:0,r_other_endings
FNDA:0,r_i_plural
FNDA:0,r_t_plural
FNDA:0,r_tidy
FNDA:0,finnish_ISO_8859_1_stem
FNDA:0,finnish_ISO_8859_1_create_env
FNDA:0,finnish_ISO_8859_1_close_env
FNF:14
FNH:0
DA:277,0
DA:278,0
DA:279,0
DA:280,0
DA:282,0
DA:283,0
DA:284,0
DA:286,0
DA:287,0
DA:289,0
DA:290,0
DA:291,0
DA:293,0
DA:294,0
DA:297,0
DA:298,0
DA:299,0
DA:302,0
DA:306,0
DA:307,0
DA:308,0
DA:309,0
DA:310,0
DA:311,0
DA:312,0
DA:314,0
DA:315,0
DA:316,0
DA:317,0
DA:318,0
DA:319,0
DA:320,0
DA:322,0
DA:324,0
DA:325,0
DA:327,0
DA:330,0
DA:334,0
DA:335,0
DA:336,0
DA:337,0
DA:338,0
DA:339,0
DA:340,0
DA:342,0
DA:343,0
DA:344,0
DA:345,0
DA:346,0
DA:347,0
DA:348,0
DA:349,0
DA:351,0
DA:352,0
DA:354,0
DA:355,0
DA:356,0
DA:357,0
DA:359,0
DA:360,0
DA:361,0
DA:362,0
DA:363,0
DA:365,0
DA:366,0
DA:367,0
DA:368,0
DA:370,0
DA:371,0
DA:372,0
DA:373,0
DA:374,0
DA:375,0
DA:377,0
DA:378,0
DA:379,0
DA:380,0
DA:381,0
DA:382,0
DA:384,0
DA:385,0
DA:386,0
DA:387,0
DA:388,0
DA:389,0
DA:391,0
DA:393,0
DA:396,0
DA:397,0
DA:398,0
DA:401,0
DA:402,0
DA:403,0
DA:404,0
DA:405,0
DA:408,0
DA:412,0
DA:413,0
DA:414,0
DA:415,0
DA:416,0
DA:417,0
DA:418,0
DA:420,0
DA:421,0
DA:422,0
DA:423,0
DA:424,0
DA:425,0
DA:426,0
DA:427,0
DA:428,0
DA:429,0
DA:430,0
DA:431,0
DA:432,0
DA:433,0
DA:434,0
DA:435,0
DA:436,0
DA:437,0
DA:438,0
DA:439,0
DA:440,0
DA:441,0
DA:442,0
DA:443,0
DA:444,0
DA:445,0
DA:446,0
DA:447,0
DA:448,0
DA:449,0
DA:450,0
DA:451,0
DA:453,0
DA:454,0
DA:455,0
DA:456,0
DA:458,0
DA:459,0
DA:460,0
DA:461,0
DA:463,0
DA:464,0
DA:467,0
DA:468,0
DA:469,0
DA:470,0
DA:471,0
DA:473,0
DA:474,0
DA:476,0
DA:477,0
DA:480,0
DA:484,0
DA:485,0
DA:486,0
DA:487,0
DA:488,0
DA:489,0
DA:490,0
DA:492,0
DA:493,0
DA:494,0
DA:495,0
DA:496,0
DA:497,0
DA:498,0
DA:500,0
DA:502,0
DA:503,0
DA:505,0
DA:508,0
DA:511,0
DA:512,0
DA:513,0
DA:514,0
DA:515,0
DA:516,0
DA:517,0
DA:519,0
DA:520,0
DA:522,0
DA:525,0
DA:529,0
DA:530,0
DA:531,0
DA:532,0
DA:533,0
DA:534,0
DA:535,0
DA:536,0
DA:537,0
DA:539,0
DA:540,0
DA:542,0
DA:546,0
DA:547,0
DA:548,0
DA:549,0
DA:550,0
DA:551,0
DA:552,0
DA:553,0
DA:555,0
DA:556,0
DA:557,0
DA:558,0
DA:559,0
DA:560,0
DA:561,0
DA:563,0
DA:565,0
DA:566,0
DA:568,0
DA:571,0
DA:574,0
DA:575,0
DA:576,0
DA:577,0
DA:578,0
DA:579,0
DA:580,0
DA:582,0
DA:583,0
DA:584,0
DA:585,0
DA:586,0
DA:587,0
DA:588,0
DA:591,0
DA:592,0
DA:594,0
DA:595,0
DA:596,0
DA:597,0
DA:598,0
DA:599,0
DA:600,0
DA:602,0
DA:603,0
DA:605,0
DA:606,0
DA:607,0
DA:608,0
DA:609,0
DA:610,0
DA:611,0
DA:612,0
DA:613,0
DA:614,0
DA:615,0
DA:616,0
DA:617,0
DA:619,0
DA:620,0
DA:621,0
DA:623,0
DA:624,0
DA:626,0
DA:627,0
DA:628,0
DA:629,0
DA:630,0
DA:631,0
DA:632,0
DA:633,0
DA:634,0
DA:636,0
DA:637,0
DA:639,0
DA:641,0
DA:642,0
DA:643,0
DA:644,0
DA:645,0
DA:646,0
DA:647,0
DA:648,0
DA:649,0
DA:651,0
DA:654,0
DA:655,0
DA:656,0
DA:657,0
DA:659,0
DA:661,0
DA:662,0
DA:664,0
DA:665,0
DA:666,0
DA:668,0
DA:670,0
DA:671,0
DA:672,0
DA:674,0
DA:676,0
DA:677,0
DA:678,0
DA:680,0
DA:682,0
DA:683,0
DA:684,0
DA:686,0
DA:689,0
DA:690,0
DA:691,0
DA:692,0
DA:694,0
DA:696,0
DA:697,0
DA:698,0
DA:699,0
DA:700,0
DA:702,0
DA:704,0
DA:705,0
DA:706,0
DA:707,0
DA:709,0
DA:711,0
DA:712,0
DA:715,0
DA:717,0
LF:325
LH:0
end_of_record
TN:
SF:/home/nn/redis/FalkorDB/deps/RediSearch/deps/snowball/src_c/stem_ISO_8859_1_french.c
FN:1039,1106,r_residual_suffix
FN:1108,1122,r_un_double
FN:1124,1151,r_un_accent
FN:1153,1247,french_ISO_8859_1_stem
FN:1249,1249,french_ISO_8859_1_create_env
FN:1251,1251,french_ISO_8859_1_close_env
FN:412,507,r_prelude
FN:509,567,r_mark_regions
FN:569,620,r_postlude
FN:622,625,r_RV
FN:627,630,r_R1
FN:632,635,r_R2
FN:637,965,r_standard_suffix
FN:967,990,r_i_verb_suffix
FN:992,1037,r_verb_suffix
FNDA:0,r_residual_suffix
FNDA:0,r_un_double
FNDA:0,r_un_accent
FNDA:0,french_ISO_8859_1_stem
FNDA:0,french_ISO_8859_1_create_env
FNDA:0,french_ISO_8859_1_close_env
FNDA:0,r_prelude
FNDA:0,r_mark_regions
FNDA:0,r_postlude
FNDA:0,r_RV
FNDA:0,r_R1
FNDA:0,r_R2
FNDA:0,r_standard_suffix
FNDA:0,r_i_verb_suffix
FNDA:0,r_verb_suffix
FNF:15
FNH:0
DA:412,0
DA:413,0
DA:414,0
DA:415,0
DA:416,0
DA:417,0
DA:418,0
DA:419,0
DA:420,0
DA:421,0
DA:422,0
DA:423,0
DA:424,0
DA:425,0
DA:426,0
DA:428,0
DA:429,0
DA:430,0
DA:431,0
DA:432,0
DA:433,0
DA:434,0
DA:435,0
DA:436,0
DA:438,0
DA:439,0
DA:440,0
DA:441,0
DA:442,0
DA:443,0
DA:444,0
DA:445,0
DA:448,0
DA:449,0
DA:450,0
DA:451,0
DA:452,0
DA:453,0
DA:454,0
DA:455,0
DA:456,0
DA:457,0
DA:459,0
DA:460,0
DA:461,0
DA:462,0
DA:463,0
DA:464,0
DA:465,0
DA:466,0
DA:467,0
DA:469,0
DA:470,0
DA:471,0
DA:472,0
DA:473,0
DA:474,0
DA:475,0
DA:476,0
DA:477,0
DA:478,0
DA:480,0
DA:481,0
DA:482,0
DA:483,0
DA:484,0
DA:485,0
DA:486,0
DA:487,0
DA:488,0
DA:489,0
DA:490,0
DA:493,0
DA:494,0
DA:495,0
DA:496,0
DA:497,0
DA:498,0
DA:499,0
DA:501,0
DA:502,0
DA:503,0
DA:504,0
DA:506,0
DA:509,0
DA:510,0
DA:511,0
DA:512,0
DA:513,0
DA:514,0
DA:515,0
DA:516,0
DA:517,0
DA:518,0
DA:519,0
DA:520,0
DA:521,0
DA:522,0
DA:523,0
DA:524,0
DA:525,0
DA:526,0
DA:527,0
DA:528,0
DA:530,0
DA:531,0
DA:532,0
DA:535,0
DA:536,0
DA:537,0
DA:538,0
DA:540,0
DA:542,0
DA:543,0
DA:544,0
DA:547,0
DA:548,0
DA:549,0
DA:551,0
DA:553,0
DA:554,0
DA:555,0
DA:558,0
DA:559,0
DA:560,0
DA:562,0
DA:563,0
DA:564,0
DA:566,0
DA:569,0
DA:571,0
DA:572,0
DA:573,0
DA:574,0
DA:575,0
DA:576,0
DA:577,0
DA:578,0
DA:579,0
DA:580,0
DA:581,0
DA:583,0
DA:584,0
DA:585,0
DA:586,0
DA:588,0
DA:589,0
DA:590,0
DA:591,0
DA:593,0
DA:594,0
DA:595,0
DA:596,0
DA:598,0
DA:599,0
DA:600,0
DA:601,0
DA:603,0
DA:604,0
DA:605,0
DA:606,0
DA:608,0
DA:609,0
DA:610,0
DA:611,0
DA:612,0
DA:614,0
DA:615,0
DA:616,0
DA:617,0
DA:619,0
DA:622,0
DA:623,0
DA:624,0
DA:627,0
DA:628,0
DA:629,0
DA:632,0
DA:633,0
DA:634,0
DA:637,0
DA:639,0
DA:640,0
DA:641,0
DA:642,0
DA:643,0
DA:644,0
DA:645,0
DA:646,0
DA:648,0
DA:649,0
DA:651,0
DA:652,0
DA:653,0
DA:654,0
DA:656,0
DA:657,0
DA:659,0
DA:660,0
DA:661,0
DA:662,0
DA:663,0
DA:664,0
DA:665,0
DA:666,0
DA:668,0
DA:669,0
DA:671,0
DA:672,0
DA:673,0
DA:674,0
DA:675,0
DA:678,0
DA:679,0
DA:682,0
DA:683,0
DA:684,0
DA:685,0
DA:687,0
DA:688,0
DA:690,0
DA:691,0
DA:692,0
DA:693,0
DA:695,0
DA:696,0
DA:698,0
DA:699,0
DA:700,0
DA:701,0
DA:703,0
DA:704,0
DA:706,0
DA:707,0
DA:708,0
DA:709,0
DA:711,0
DA:712,0
DA:714,0
DA:715,0
DA:716,0
DA:717,0
DA:718,0
DA:720,0
DA:721,0
DA:722,0
DA:723,0
DA:725,0
DA:726,0
DA:728,0
DA:729,0
DA:730,0
DA:731,0
DA:732,0
DA:733,0
DA:735,0
DA:736,0
DA:738,0
DA:739,0
DA:740,0
DA:741,0
DA:742,0
DA:743,0
DA:745,0
DA:746,0
DA:748,0
DA:749,0
DA:750,0
DA:751,0
DA:752,0
DA:753,0
DA:755,0
DA:756,0
DA:759,0
DA:760,0
DA:761,0
DA:762,0
DA:763,0
DA:764,0
DA:766,0
DA:767,0
DA:769,0
DA:770,0
DA:771,0
DA:772,0
DA:773,0
DA:775,0
DA:776,0
DA:778,0
DA:780,0
DA:783,0
DA:784,0
DA:785,0
DA:786,0
DA:788,0
DA:789,0
DA:791,0
DA:792,0
DA:793,0
DA:794,0
DA:795,0
DA:796,0
DA:798,0
DA:799,0
DA:800,0
DA:801,0
DA:802,0
DA:804,0
DA:805,0
DA:807,0
DA:808,0
DA:809,0
DA:810,0
DA:811,0
DA:814,0
DA:815,0
DA:816,0
DA:817,0
DA:818,0
DA:819,0
DA:820,0
DA:822,0
DA:823,0
DA:825,0
DA:826,0
DA:827,0
DA:828,0
DA:829,0
DA:832,0
DA:833,0
DA:834,0
DA:835,0
DA:836,0
DA:837,0
DA:839,0
DA:840,0
DA:842,0
DA:844,0
DA:847,0
DA:848,0
DA:849,0
DA:850,0
DA:852,0
DA:853,0
DA:855,0
DA:856,0
DA:857,0
DA:858,0
DA:859,0
DA:860,0
DA:861,0
DA:863,0
DA:864,0
DA:866,0
DA:867,0
DA:868,0
DA:869,0
DA:870,0
DA:871,0
DA:872,0
DA:874,0
DA:875,0
DA:877,0
DA:878,0
DA:879,0
DA:880,0
DA:881,0
DA:884,0
DA:885,0
DA:888,0
DA:889,0
DA:890,0
DA:891,0
DA:893,0
DA:894,0
DA:895,0
DA:896,0
DA:898,0
DA:899,0
DA:901,0
DA:902,0
DA:903,0
DA:904,0
DA:905,0
DA:906,0
DA:908,0
DA:909,0
DA:911,0
DA:912,0
DA:913,0
DA:914,0
DA:915,0
DA:917,0
DA:918,0
DA:921,0
DA:922,0
DA:923,0
DA:924,0
DA:925,0
DA:927,0
DA:928,0
DA:929,0
DA:931,0
DA:932,0
DA:933,0
DA:934,0
DA:936,0
DA:937,0
DA:939,0
DA:941,0
DA:942,0
DA:943,0
DA:945,0
DA:946,0
DA:948,0
DA:950,0
DA:951,0
DA:952,0
DA:953,0
DA:954,0
DA:956,0
DA:958,0
DA:959,0
DA:961,0
DA:964,0
DA:967,0
DA:970,0
DA:971,0
DA:972,0
DA:973,0
DA:974,0
DA:975,0
DA:976,0
DA:977,0
DA:978,0
DA:979,0
DA:980,0
DA:981,0
DA:983,0
DA:984,0
DA:985,0
DA:987,0
DA:989,0
DA:992,0
DA:996,0
DA:997,0
DA:998,0
DA:999,0
DA:1000,0
DA:1001,0
DA:1002,0
DA:1003,0
DA:1004,0
DA:1005,0
DA:1006,0
DA:1008,0
DA:1009,0
DA:1011,0
DA:1012,0
DA:1013,0
DA:1014,0
DA:1016,0
DA:1017,0
DA:1018,0
DA:1019,0
DA:1021,0
DA:1022,0
DA:1023,0
DA:1024,0
DA:1025,0
DA:1026,0
DA:1027,0
DA:1029,0
DA:1032,0
DA:1034,0
DA:1036,0
DA:1039,0
DA:1041,0
DA:1042,0
DA:1043,0
DA:1044,0
DA:1045,0
DA:1046,0
DA:1047,0
DA:1048,0
DA:1049,0
DA:1050,0
DA:1051,0
DA:1052,0
DA:1054,0
DA:1055,0
DA:1057,0
DA:1058,0
DA:1060,0
DA:1065,0
DA:1066,0
DA:1067,0
DA:1068,0
DA:1069,0
DA:1070,0
DA:1071,0
DA:1072,0
DA:1073,0
DA:1074,0
DA:1075,0
DA:1076,0
DA:1078,0
DA:1079,0
DA:1080,0
DA:1081,0
DA:1082,0
DA:1083,0
DA:1084,0
DA:1085,0
DA:1087,0
DA:1088,0
DA:1089,0
DA:1091,0
DA:1092,0
DA:1093,0
DA:1094,0
DA:1096,0
DA:1097,0
DA:1098,0
DA:1099,0
DA:1101,0
DA:1103,0
DA:1105,0
DA:1108,0
DA:1109,0
DA:1110,0
DA:1111,0
DA:1112,0
DA:1114,0
DA:1115,0
DA:1116,0
DA:1117,0
DA:1118,0
DA:1119,0
DA:1121,0
DA:1124,0
DA:1125,0
DA:1127,0
DA:1128,0
DA:1129,0
DA:1130,0
DA:1131,0
DA:1133,0
DA:1135,0
DA:1136,0
DA:1137,0
DA:1138,0
DA:1139,0
DA:1140,0
DA:1141,0
DA:1142,0
DA:1143,0
DA:1145,0
DA:1146,0
DA:1147,0
DA:1148,0
DA:1150,0
DA:1153,0
DA:1154,0
DA:1155,0
DA:1156,0
DA:1158,0
DA:1161,0
DA:1162,0
DA:1164,0
DA:1166,0
DA:1167,0
DA:1168,0
DA:1169,0
DA:1170,0
DA:1171,0
DA:1172,0
DA:1174,0
DA:1175,0
DA:1176,0
DA:1177,0
DA:1178,0
DA:1179,0
DA:1181,0
DA:1182,0
DA:1183,0
DA:1184,0
DA:1185,0
DA:1186,0
DA:1189,0
DA:1190,0
DA:1191,0
DA:1192,0
DA:1193,0
DA:1194,0
DA:1195,0
DA:1196,0
DA:1197,0
DA:1198,0
DA:1200,0
DA:1201,0
DA:1202,0
DA:1203,0
DA:1204,0
DA:1205,0
DA:1206,0
DA:1207,0
DA:1210,0
DA:1211,0
DA:1215,0
DA:1216,0
DA:1217,0
DA:1218,0
DA:1219,0
DA:1220,0
DA:1223,0
DA:1224,0
DA:1225,0
DA:1227,0
DA:1228,0
DA:1229,0
DA:1231,0
DA:1233,0
DA:1234,0
DA:1235,0
DA:1237,0
DA:1239,0
DA:1240,0
DA:1241,0
DA:1242,0
DA:1244,0
DA:1246,0
DA:1249,0
DA:1251,0
LF:634
LH:0
end_of_record
TN:
SF:/home/nn/redis/FalkorDB/deps/RediSearch/deps/snowball/src_c/stem_ISO_8859_1_german.c
FN:126,191,r_prelude
FN:193,229,r_mark_regions
FN:231,271,r_postlude
FN:273,276,r_R1
FN:278,281,r_R2
FN:283,456,r_standard_suffix
FN:458,485,german_ISO_8859_1_stem
FN:487,487,german_ISO_8859_1_create_env
FN:489,489,german_ISO_8859_1_close_env
FNDA:0,r_prelude
FNDA:0,r_mark_regions
FNDA:0,r_postlude
FNDA:0,r_R1
FNDA:0,r_R2
FNDA:0,r_standard_suffix
FNDA:0,german_ISO_8859_1_stem
FNDA:0,german_ISO_8859_1_create_env
FNDA:0,german_ISO_8859_1_close_env
FNF:9
FNH:0
DA:126,0
DA:127,0
DA:128,0
DA:129,0
DA:130,0
DA:131,0
DA:132,0
DA:133,0
DA:134,0
DA:135,0
DA:136,0
DA:138,0
DA:139,0
DA:140,0
DA:141,0
DA:142,0
DA:144,0
DA:145,0
DA:146,0
DA:147,0
DA:148,0
DA:150,0
DA:152,0
DA:153,0
DA:154,0
DA:155,0
DA:156,0
DA:157,0
DA:158,0
DA:159,0
DA:160,0
DA:161,0
DA:162,0
DA:163,0
DA:164,0
DA:166,0
DA:167,0
DA:168,0
DA:169,0
DA:170,0
DA:171,0
DA:172,0
DA:173,0
DA:174,0
DA:177,0
DA:178,0
DA:179,0
DA:180,0
DA:181,0
DA:182,0
DA:183,0
DA:185,0
DA:186,0
DA:187,0
DA:188,0
DA:190,0
DA:193,0
DA:194,0
DA:195,0
DA:196,0
DA:197,0
DA:198,0
DA:199,0
DA:200,0
DA:203,0
DA:204,0
DA:205,0
DA:208,0
DA:209,0
DA:210,0
DA:212,0
DA:214,0
DA:215,0
DA:216,0
DA:218,0
DA:219,0
DA:220,0
DA:223,0
DA:224,0
DA:225,0
DA:227,0
DA:228,0
DA:231,0
DA:233,0
DA:234,0
DA:235,0
DA:236,0
DA:237,0
DA:238,0
DA:239,0
DA:240,0
DA:241,0
DA:242,0
DA:244,0
DA:245,0
DA:246,0
DA:247,0
DA:249,0
DA:250,0
DA:251,0
DA:252,0
DA:254,0
DA:255,0
DA:256,0
DA:257,0
DA:259,0
DA:260,0
DA:261,0
DA:262,0
DA:263,0
DA:265,0
DA:266,0
DA:267,0
DA:268,0
DA:270,0
DA:273,0
DA:274,0
DA:275,0
DA:278,0
DA:279,0
DA:280,0
DA:283,0
DA:285,0
DA:286,0
DA:287,0
DA:288,0
DA:289,0
DA:290,0
DA:291,0
DA:292,0
DA:293,0
DA:295,0
DA:296,0
DA:297,0
DA:298,0
DA:300,0
DA:301,0
DA:302,0
DA:303,0
DA:305,0
DA:306,0
DA:307,0
DA:308,0
DA:309,0
DA:310,0
DA:311,0
DA:312,0
DA:314,0
DA:317,0
DA:318,0
DA:319,0
DA:320,0
DA:321,0
DA:323,0
DA:325,0
DA:326,0
DA:328,0
DA:329,0
DA:330,0
DA:331,0
DA:332,0
DA:333,0
DA:334,0
DA:335,0
DA:336,0
DA:338,0
DA:339,0
DA:340,0
DA:341,0
DA:343,0
DA:344,0
DA:345,0
DA:346,0
DA:347,0
DA:348,0
DA:349,0
DA:351,0
DA:353,0
DA:354,0
DA:356,0
DA:357,0
DA:358,0
DA:359,0
DA:360,0
DA:361,0
DA:362,0
DA:363,0
DA:364,0
DA:366,0
DA:367,0
DA:368,0
DA:369,0
DA:371,0
DA:372,0
DA:373,0
DA:374,0
DA:375,0
DA:376,0
DA:377,0
DA:378,0
DA:379,0
DA:380,0
DA:382,0
DA:383,0
DA:384,0
DA:386,0
DA:387,0
DA:389,0
DA:392,0
DA:393,0
DA:394,0
DA:395,0
DA:396,0
DA:397,0
DA:398,0
DA:399,0
DA:401,0
DA:402,0
DA:404,0
DA:405,0
DA:406,0
DA:407,0
DA:409,0
DA:410,0
DA:411,0
DA:412,0
DA:413,0
DA:414,0
DA:415,0
DA:416,0
DA:418,0
DA:419,0
DA:420,0
DA:421,0
DA:422,0
DA:424,0
DA:425,0
DA:427,0
DA:430,0
DA:431,0
DA:432,0
DA:433,0
DA:435,0
DA:436,0
DA:437,0
DA:438,0
DA:439,0
DA:440,0
DA:441,0
DA:442,0
DA:444,0
DA:445,0
DA:447,0
DA:450,0
DA:452,0
DA:453,0
DA:455,0
DA:458,0
DA:459,0
DA:460,0
DA:461,0
DA:463,0
DA:465,0
DA:466,0
DA:467,0
DA:469,0
DA:471,0
DA:474,0
DA:475,0
DA:477,0
DA:478,0
DA:479,0
DA:480,0
DA:482,0
DA:484,0
DA:487,0
DA:489,0
LF:277
LH:0
end_of_record
TN:
SF:/home/nn/redis/FalkorDB/deps/RediSearch/deps/snowball/src_c/stem_ISO_8859_1_indonesian.c
FN:123,133,r_remove_particle
FN:135,145,r_remove_possessive_pronoun
FN:147,152,r_SUFFIX_KAN_OK
FN:154,157,r_SUFFIX_AN_OK
FN:159,169,r_SUFFIX_I_OK
FN:171,181,r_remove_suffix
FN:183,186,r_VOWEL
FN:188,192,r_KER
FN:194,272,r_remove_first_order_prefix
FN:274,311,r_remove_second_order_prefix
FN:313,402,indonesian_ISO_8859_1_stem
FN:404,404,indonesian_ISO_8859_1_create_env
FN:406,406,indonesian_ISO_8859_1_close_env
FNDA:0,r_remove_particle
FNDA:0,r_remove_possessive_pronoun
FNDA:0,r_SUFFIX_KAN_OK
FNDA:0,r_SUFFIX_AN_OK
FNDA:0,r_SUFFIX_I_OK
FNDA:0,r_remove_suffix
FNDA:0,r_VOWEL
FNDA:0,r_KER
FNDA:0,r_remove_first_order_prefix
FNDA:0,r_remove_second_order_prefix
FNDA:0,indonesian_ISO_8859_1_stem
FNDA:0,indonesian_ISO_8859_1_create_env
FNDA:0,indonesian_ISO_8859_1_close_env
FNF:13
FNH:0
DA:123,0
DA:124,0
DA:125,0
DA:126,0
DA:127,0
DA:128,0
DA:129,0
DA:131,0
DA:132,0
DA:135,0
DA:136,0
DA:137,0
DA:138,0
DA:139,0
DA:140,0
DA:141,0
DA:143,0
DA:144,0
DA:147,0
DA:149,0
DA:150,0
DA:151,0
DA:154,0
DA:155,0
DA:156,0
DA:159,0
DA:160,0
DA:161,0
DA:162,0
DA:163,0
DA:164,0
DA:165,0
DA:166,0
DA:168,0
DA:171,0
DA:172,0
DA:173,0
DA:174,0
DA:175,0
DA:176,0
DA:177,0
DA:179,0
DA:180,0
DA:183,0
DA:184,0
DA:185,0
DA:188,0
DA:189,0
DA:190,0
DA:191,0
DA:194,0
DA:196,0
DA:197,0
DA:198,0
DA:199,0
DA:200,0
DA:201,0
DA:202,0
DA:203,0
DA:204,0
DA:206,0
DA:207,0
DA:208,0
DA:209,0
DA:210,0
DA:211,0
DA:213,0
DA:214,0
DA:215,0
DA:216,0
DA:217,0
DA:218,0
DA:219,0
DA:221,0
DA:222,0
DA:223,0
DA:224,0
DA:225,0
DA:226,0
DA:228,0
DA:229,0
DA:230,0
DA:231,0
DA:232,0
DA:233,0
DA:234,0
DA:235,0
DA:236,0
DA:237,0
DA:238,0
DA:241,0
DA:242,0
DA:243,0
DA:244,0
DA:245,0
DA:248,0
DA:249,0
DA:250,0
DA:251,0
DA:252,0
DA:253,0
DA:254,0
DA:255,0
DA:256,0
DA:257,0
DA:258,0
DA:261,0
DA:262,0
DA:263,0
DA:264,0
DA:265,0
DA:268,0
DA:269,0
DA:271,0
DA:274,0
DA:276,0
DA:277,0
DA:278,0
DA:279,0
DA:280,0
DA:281,0
DA:282,0
DA:283,0
DA:284,0
DA:286,0
DA:287,0
DA:288,0
DA:289,0
DA:290,0
DA:291,0
DA:293,0
DA:294,0
DA:295,0
DA:296,0
DA:297,0
DA:299,0
DA:300,0
DA:301,0
DA:302,0
DA:303,0
DA:304,0
DA:306,0
DA:307,0
DA:308,0
DA:310,0
DA:313,0
DA:314,0
DA:315,0
DA:316,0
DA:317,0
DA:319,0
DA:320,0
DA:321,0
DA:323,0
DA:324,0
DA:325,0
DA:326,0
DA:327,0
DA:329,0
DA:331,0
DA:332,0
DA:333,0
DA:335,0
DA:336,0
DA:337,0
DA:339,0
DA:341,0
DA:342,0
DA:343,0
DA:344,0
DA:346,0
DA:348,0
DA:349,0
DA:350,0
DA:351,0
DA:352,0
DA:353,0
DA:354,0
DA:356,0
DA:357,0
DA:358,0
DA:359,0
DA:361,0
DA:362,0
DA:363,0
DA:365,0
DA:366,0
DA:368,0
DA:369,0
DA:370,0
DA:371,0
DA:373,0
DA:374,0
DA:376,0
DA:378,0
DA:379,0
DA:380,0
DA:381,0
DA:382,0
DA:383,0
DA:385,0
DA:387,0
DA:388,0
DA:389,0
DA:391,0
DA:392,0
DA:393,0
DA:395,0
DA:396,0
DA:397,0
DA:400,0
DA:401,0
DA:404,0
DA:406,0
LF:214
LH:0
end_of_record
TN:
SF:/home/nn/redis/FalkorDB/deps/RediSearch/deps/snowball/src_c/stem_ISO_8859_1_irish.c
FN:223,264,r_mark_regions
FN:266,325,r_initial_morph
FN:327,330,r_RV
FN:332,335,r_R1
FN:337,340,r_R2
FN:342,367,r_noun_sfx
FN:369,411,r_deriv
FN:413,439,r_verb_sfx
FN:441,474,irish_ISO_8859_1_stem
FN:476,476,irish_ISO_8859_1_create_env
FN:478,478,irish_ISO_8859_1_close_env
FNDA:0,r_mark_regions
FNDA:0,r_initial_morph
FNDA:0,r_RV
FNDA:0,r_R1
FNDA:0,r_R2
FNDA:0,r_noun_sfx
FNDA:0,r_deriv
FNDA:0,r_verb_sfx
FNDA:0,irish_ISO_8859_1_stem
FNDA:0,irish_ISO_8859_1_create_env
FNDA:0,irish_ISO_8859_1_close_env
FNF:11
FNH:0
DA:223,0
DA:224,0
DA:225,0
DA:226,0
DA:227,0
DA:229,0
DA:230,0
DA:231,0
DA:233,0
DA:234,0
DA:235,0
DA:237,0
DA:239,0
DA:240,0
DA:241,0
DA:244,0
DA:245,0
DA:246,0
DA:248,0
DA:250,0
DA:251,0
DA:252,0
DA:255,0
DA:256,0
DA:257,0
DA:259,0
DA:260,0
DA:261,0
DA:263,0
DA:266,0
DA:268,0
DA:269,0
DA:270,0
DA:271,0
DA:272,0
DA:273,0
DA:274,0
DA:275,0
DA:277,0
DA:278,0
DA:279,0
DA:280,0
DA:282,0
DA:283,0
DA:284,0
DA:285,0
DA:287,0
DA:288,0
DA:289,0
DA:290,0
DA:292,0
DA:293,0
DA:294,0
DA:295,0
DA:297,0
DA:298,0
DA:299,0
DA:300,0
DA:302,0
DA:303,0
DA:304,0
DA:305,0
DA:307,0
DA:308,0
DA:309,0
DA:310,0
DA:312,0
DA:313,0
DA:314,0
DA:315,0
DA:317,0
DA:318,0
DA:319,0
DA:320,0
DA:322,0
DA:324,0
DA:327,0
DA:328,0
DA:329,0
DA:332,0
DA:333,0
DA:334,0
DA:337,0
DA:338,0
DA:339,0
DA:342,0
DA:344,0
DA:345,0
DA:346,0
DA:347,0
DA:348,0
DA:349,0
DA:350,0
DA:351,0
DA:353,0
DA:354,0
DA:356,0
DA:357,0
DA:358,0
DA:359,0
DA:361,0
DA:362,0
DA:364,0
DA:366,0
DA:369,0
DA:371,0
DA:372,0
DA:373,0
DA:374,0
DA:375,0
DA:376,0
DA:377,0
DA:378,0
DA:380,0
DA:381,0
DA:383,0
DA:384,0
DA:385,0
DA:386,0
DA:388,0
DA:389,0
DA:390,0
DA:391,0
DA:393,0
DA:394,0
DA:395,0
DA:396,0
DA:398,0
DA:399,0
DA:400,0
DA:401,0
DA:403,0
DA:404,0
DA:405,0
DA:406,0
DA:408,0
DA:410,0
DA:413,0
DA:415,0
DA:416,0
DA:417,0
DA:418,0
DA:419,0
DA:420,0
DA:421,0
DA:422,0
DA:423,0
DA:425,0
DA:426,0
DA:428,0
DA:429,0
DA:430,0
DA:431,0
DA:433,0
DA:434,0
DA:436,0
DA:438,0
DA:441,0
DA:442,0
DA:443,0
DA:444,0
DA:446,0
DA:449,0
DA:450,0
DA:452,0
DA:454,0
DA:455,0
DA:456,0
DA:458,0
DA:460,0
DA:461,0
DA:462,0
DA:464,0
DA:466,0
DA:467,0
DA:468,0
DA:470,0
DA:472,0
DA:473,0
DA:476,0
DA:478,0
LF:181
LH:0
end_of_record
TN:
SF:/home/nn/redis/FalkorDB/deps/RediSearch/deps/snowball/src_c/stem_ISO_8859_1_italian.c
FN:1019,1019,italian_ISO_8859_1_create_env
FN:1021,1021,italian_ISO_8859_1_close_env
FN:491,582,r_prelude
FN:584,662,r_mark_regions
FN:664,695,r_postlude
FN:697,700,r_RV
FN:702,705,r_R1
FN:707,710,r_R2
FN:712,737,r_attached_pronoun
FN:739,903,r_standard_suffix
FN:905,919,r_verb_suffix
FN:921,964,r_vowel_suffix
FN:966,1017,italian_ISO_8859_1_stem
FNDA:0,italian_ISO_8859_1_create_env
FNDA:0,italian_ISO_8859_1_close_env
FNDA:0,r_prelude
FNDA:0,r_mark_regions
FNDA:0,r_postlude
FNDA:0,r_RV
FNDA:0,r_R1
FNDA:0,r_R2
FNDA:0,r_attached_pronoun
FNDA:0,r_standard_suffix
FNDA:0,r_verb_suffix
FNDA:0,r_vowel_suffix
FNDA:0,italian_ISO_8859_1_stem
FNF:13
FNH:0
DA:491,0
DA:493,0
DA:494,0
DA:495,0
DA:496,0
DA:497,0
DA:498,0
DA:499,0
DA:500,0
DA:501,0
DA:502,0
DA:503,0
DA:505,0
DA:506,0
DA:507,0
DA:508,0
DA:510,0
DA:511,0
DA:512,0
DA:513,0
DA:515,0
DA:516,0
DA:517,0
DA:518,0
DA:520,0
DA:521,0
DA:522,0
DA:523,0
DA:525,0
DA:526,0
DA:527,0
DA:528,0
DA:530,0
DA:531,0
DA:532,0
DA:533,0
DA:534,0
DA:536,0
DA:537,0
DA:538,0
DA:539,0
DA:541,0
DA:543,0
DA:544,0
DA:545,0
DA:546,0
DA:547,0
DA:548,0
DA:549,0
DA:550,0
DA:551,0
DA:552,0
DA:553,0
DA:554,0
DA:555,0
DA:557,0
DA:558,0
DA:559,0
DA:560,0
DA:561,0
DA:562,0
DA:563,0
DA:564,0
DA:565,0
DA:568,0
DA:569,0
DA:570,0
DA:571,0
DA:572,0
DA:573,0
DA:574,0
DA:576,0
DA:577,0
DA:578,0
DA:579,0
DA:581,0
DA:584,0
DA:585,0
DA:586,0
DA:587,0
DA:588,0
DA:589,0
DA:590,0
DA:591,0
DA:592,0
DA:594,0
DA:595,0
DA:596,0
DA:598,0
DA:599,0
DA:600,0
DA:601,0
DA:603,0
DA:604,0
DA:605,0
DA:608,0
DA:609,0
DA:610,0
DA:611,0
DA:612,0
DA:613,0
DA:614,0
DA:616,0
DA:617,0
DA:618,0
DA:620,0
DA:621,0
DA:622,0
DA:623,0
DA:624,0
DA:625,0
DA:627,0
DA:630,0
DA:631,0
DA:632,0
DA:633,0
DA:635,0
DA:637,0
DA:638,0
DA:639,0
DA:642,0
DA:643,0
DA:644,0
DA:646,0
DA:648,0
DA:649,0
DA:650,0
DA:653,0
DA:654,0
DA:655,0
DA:657,0
DA:658,0
DA:659,0
DA:661,0
DA:664,0
DA:666,0
DA:667,0
DA:668,0
DA:669,0
DA:670,0
DA:671,0
DA:672,0
DA:673,0
DA:674,0
DA:675,0
DA:676,0
DA:678,0
DA:679,0
DA:680,0
DA:681,0
DA:683,0
DA:684,0
DA:685,0
DA:686,0
DA:687,0
DA:689,0
DA:690,0
DA:691,0
DA:692,0
DA:694,0
DA:697,0
DA:698,0
DA:699,0
DA:702,0
DA:703,0
DA:704,0
DA:707,0
DA:708,0
DA:709,0
DA:712,0
DA:714,0
DA:715,0
DA:716,0
DA:717,0
DA:718,0
DA:719,0
DA:720,0
DA:721,0
DA:722,0
DA:724,0
DA:725,0
DA:726,0
DA:727,0
DA:729,0
DA:730,0
DA:731,0
DA:732,0
DA:734,0
DA:736,0
DA:739,0
DA:741,0
DA:742,0
DA:743,0
DA:744,0
DA:745,0
DA:746,0
DA:747,0
DA:748,0
DA:750,0
DA:751,0
DA:753,0
DA:754,0
DA:755,0
DA:756,0
DA:758,0
DA:759,0
DA:761,0
DA:762,0
DA:763,0
DA:764,0
DA:765,0
DA:766,0
DA:767,0
DA:769,0
DA:770,0
DA:772,0
DA:775,0
DA:776,0
DA:777,0
DA:778,0
DA:780,0
DA:781,0
DA:783,0
DA:784,0
DA:785,0
DA:786,0
DA:788,0
DA:789,0
DA:791,0
DA:792,0
DA:793,0
DA:794,0
DA:796,0
DA:797,0
DA:799,0
DA:800,0
DA:801,0
DA:802,0
DA:804,0
DA:805,0
DA:807,0
DA:808,0
DA:809,0
DA:810,0
DA:812,0
DA:813,0
DA:815,0
DA:816,0
DA:817,0
DA:818,0
DA:819,0
DA:820,0
DA:821,0
DA:822,0
DA:823,0
DA:825,0
DA:826,0
DA:829,0
DA:830,0
DA:831,0
DA:832,0
DA:833,0
DA:834,0
DA:835,0
DA:837,0
DA:838,0
DA:840,0
DA:842,0
DA:845,0
DA:846,0
DA:847,0
DA:848,0
DA:850,0
DA:851,0
DA:853,0
DA:854,0
DA:855,0
DA:856,0
DA:857,0
DA:858,0
DA:859,0
DA:860,0
DA:862,0
DA:863,0
DA:865,0
DA:868,0
DA:869,0
DA:870,0
DA:871,0
DA:873,0
DA:874,0
DA:876,0
DA:877,0
DA:878,0
DA:879,0
DA:880,0
DA:881,0
DA:882,0
DA:884,0
DA:885,0
DA:887,0
DA:888,0
DA:889,0
DA:890,0
DA:891,0
DA:892,0
DA:894,0
DA:895,0
DA:897,0
DA:900,0
DA:902,0
DA:905,0
DA:908,0
DA:909,0
DA:910,0
DA:911,0
DA:912,0
DA:913,0
DA:914,0
DA:916,0
DA:918,0
DA:921,0
DA:922,0
DA:923,0
DA:924,0
DA:925,0
DA:926,0
DA:927,0
DA:928,0
DA:930,0
DA:931,0
DA:933,0
DA:934,0
DA:935,0
DA:936,0
DA:937,0
DA:938,0
DA:939,0
DA:941,0
DA:942,0
DA:944,0
DA:947,0
DA:948,0
DA:949,0
DA:950,0
DA:951,0
DA:952,0
DA:953,0
DA:954,0
DA:955,0
DA:957,0
DA:958,0
DA:960,0
DA:963,0
DA:966,0
DA:967,0
DA:968,0
DA:969,0
DA:971,0
DA:974,0
DA:975,0
DA:977,0
DA:979,0
DA:980,0
DA:981,0
DA:983,0
DA:985,0
DA:986,0
DA:987,0
DA:988,0
DA:989,0
DA:991,0
DA:992,0
DA:993,0
DA:994,0
DA:995,0
DA:996,0
DA:999,0
DA:1000,0
DA:1001,0
DA:1003,0
DA:1004,0
DA:1005,0
DA:1007,0
DA:1009,0
DA:1010,0
DA:1011,0
DA:1012,0
DA:1014,0
DA:1016,0
DA:1019,0
DA:1021,0
LF:392
LH:0
end_of_record
TN:
SF:/home/nn/redis/FalkorDB/deps/RediSearch/deps/snowball/src_c/stem_ISO_8859_1_norwegian.c
FN:133,153,r_mark_regions
FN:155,196,r_main_suffix
FN:198,219,r_consonant_pair
FN:221,236,r_other_suffix
FN:238,267,norwegian_ISO_8859_1_stem
FN:269,269,norwegian_ISO_8859_1_create_env
FN:271,271,norwegian_ISO_8859_1_close_env
FNDA:0,r_mark_regions
FNDA:0,r_main_suffix
FNDA:0,r_consonant_pair
FNDA:0,r_other_suffix
FNDA:0,norwegian_ISO_8859_1_stem
FNDA:0,norwegian_ISO_8859_1_create_env
FNDA:0,norwegian_ISO_8859_1_close_env
FNF:7
FNH:0
DA:133,0
DA:134,0
DA:135,0
DA:136,0
DA:137,0
DA:138,0
DA:139,0
DA:141,0
DA:143,0
DA:144,0
DA:145,0
DA:147,0
DA:149,0
DA:150,0
DA:151,0
DA:152,0
DA:155,0
DA:159,0
DA:160,0
DA:161,0
DA:162,0
DA:163,0
DA:164,0
DA:165,0
DA:166,0
DA:168,0
DA:169,0
DA:170,0
DA:171,0
DA:173,0
DA:174,0
DA:175,0
DA:176,0
DA:177,0
DA:178,0
DA:179,0
DA:180,0
DA:181,0
DA:182,0
DA:184,0
DA:185,0
DA:186,0
DA:188,0
DA:189,0
DA:190,0
DA:191,0
DA:193,0
DA:195,0
DA:198,0
DA:199,0
DA:202,0
DA:203,0
DA:204,0
DA:205,0
DA:206,0
DA:207,0
DA:208,0
DA:210,0
DA:212,0
DA:213,0
DA:214,0
DA:215,0
DA:216,0
DA:218,0
DA:221,0
DA:224,0
DA:225,0
DA:226,0
DA:227,0
DA:228,0
DA:229,0
DA:230,0
DA:232,0
DA:233,0
DA:235,0
DA:238,0
DA:239,0
DA:240,0
DA:241,0
DA:243,0
DA:245,0
DA:247,0
DA:248,0
DA:249,0
DA:251,0
DA:253,0
DA:254,0
DA:255,0
DA:257,0
DA:259,0
DA:260,0
DA:261,0
DA:263,0
DA:265,0
DA:266,0
DA:269,0
DA:271,0
LF:97
LH:0
end_of_record
TN:
SF:/home/nn/redis/FalkorDB/deps/RediSearch/deps/snowball/src_c/stem_ISO_8859_1_porter.c
FN:225,230,r_shortv
FN:232,235,r_R1
FN:237,240,r_R2
FN:242,267,r_Step_1a
FN:269,342,r_Step_1b
FN:344,366,r_Step_1c
FN:368,446,r_Step_2
FN:448,476,r_Step_3
FN:478,511,r_Step_4
FN:513,544,r_Step_5a
FN:546,560,r_Step_5b
FN:562,712,porter_ISO_8859_1_stem
FN:714,714,porter_ISO_8859_1_create_env
FN:716,716,porter_ISO_8859_1_close_env
FNDA:0,r_shortv
FNDA:0,r_R1
FNDA:0,r_R2
FNDA:0,r_Step_1a
FNDA:0,r_Step_1b
FNDA:0,r_Step_1c
FNDA:0,r_Step_2
FNDA:0,r_Step_3
FNDA:0,r_Step_4
FNDA:0,r_Step_5a
FNDA:0,r_Step_5b
FNDA:0,porter_ISO_8859_1_stem
FNDA:0,porter_ISO_8859_1_create_env
FNDA:0,porter_ISO_8859_1_close_env
FNF:14
FNH:0
DA:225,0
DA:226,0
DA:227,0
DA:228,0
DA:229,0
DA:232,0
DA:233,0
DA:234,0
DA:237,0
DA:238,0
DA:239,0
DA:242,0
DA:244,0
DA:245,0
DA:246,0
DA:247,0
DA:248,0
DA:249,0
DA:250,0
DA:251,0
DA:252,0
DA:254,0
DA:255,0
DA:256,0
DA:257,0
DA:259,0
DA:260,0
DA:261,0
DA:262,0
DA:264,0
DA:266,0
DA:269,0
DA:271,0
DA:272,0
DA:273,0
DA:274,0
DA:275,0
DA:276,0
DA:277,0
DA:278,0
DA:279,0
DA:281,0
DA:282,0
DA:284,0
DA:285,0
DA:286,0
DA:288,0
DA:289,0
DA:290,0
DA:292,0
DA:294,0
DA:295,0
DA:297,0
DA:298,0
DA:299,0
DA:300,0
DA:301,0
DA:304,0
DA:306,0
DA:307,0
DA:308,0
DA:310,0
DA:312,0
DA:313,0
DA:314,0
DA:315,0
DA:316,0
DA:317,0
DA:318,0
DA:319,0
DA:321,0
DA:322,0
DA:323,0
DA:324,0
DA:325,0
DA:326,0
DA:328,0
DA:331,0
DA:332,0
DA:333,0
DA:335,0
DA:337,0
DA:339,0
DA:341,0
DA:344,0
DA:345,0
DA:346,0
DA:347,0
DA:348,0
DA:349,0
DA:350,0
DA:351,0
DA:352,0
DA:353,0
DA:355,0
DA:356,0
DA:358,0
DA:359,0
DA:360,0
DA:362,0
DA:363,0
DA:365,0
DA:368,0
DA:370,0
DA:371,0
DA:372,0
DA:373,0
DA:374,0
DA:375,0
DA:376,0
DA:378,0
DA:379,0
DA:380,0
DA:381,0
DA:383,0
DA:384,0
DA:385,0
DA:386,0
DA:388,0
DA:389,0
DA:390,0
DA:391,0
DA:393,0
DA:394,0
DA:395,0
DA:396,0
DA:398,0
DA:399,0
DA:400,0
DA:401,0
DA:403,0
DA:404,0
DA:405,0
DA:406,0
DA:408,0
DA:409,0
DA:410,0
DA:411,0
DA:413,0
DA:414,0
DA:415,0
DA:416,0
DA:418,0
DA:419,0
DA:420,0
DA:421,0
DA:423,0
DA:424,0
DA:425,0
DA:426,0
DA:428,0
DA:429,0
DA:430,0
DA:431,0
DA:433,0
DA:434,0
DA:435,0
DA:436,0
DA:438,0
DA:439,0
DA:440,0
DA:441,0
DA:443,0
DA:445,0
DA:448,0
DA:450,0
DA:451,0
DA:452,0
DA:453,0
DA:454,0
DA:455,0
DA:456,0
DA:458,0
DA:459,0
DA:460,0
DA:461,0
DA:463,0
DA:464,0
DA:465,0
DA:466,0
DA:468,0
DA:469,0
DA:470,0
DA:471,0
DA:473,0
DA:475,0
DA:478,0
DA:480,0
DA:481,0
DA:482,0
DA:483,0
DA:484,0
DA:485,0
DA:486,0
DA:488,0
DA:489,0
DA:490,0
DA:491,0
DA:493,0
DA:494,0
DA:495,0
DA:496,0
DA:497,0
DA:498,0
DA:499,0
DA:500,0
DA:501,0
DA:502,0
DA:504,0
DA:505,0
DA:506,0
DA:508,0
DA:510,0
DA:513,0
DA:514,0
DA:515,0
DA:516,0
DA:517,0
DA:518,0
DA:519,0
DA:520,0
DA:521,0
DA:523,0
DA:524,0
DA:525,0
DA:526,0
DA:527,0
DA:529,0
DA:530,0
DA:531,0
DA:532,0
DA:534,0
DA:535,0
DA:536,0
DA:539,0
DA:540,0
DA:541,0
DA:543,0
DA:546,0
DA:547,0
DA:548,0
DA:549,0
DA:550,0
DA:551,0
DA:552,0
DA:554,0
DA:555,0
DA:556,0
DA:557,0
DA:559,0
DA:562,0
DA:563,0
DA:564,0
DA:565,0
DA:566,0
DA:567,0
DA:568,0
DA:569,0
DA:570,0
DA:572,0
DA:573,0
DA:574,0
DA:576,0
DA:577,0
DA:578,0
DA:579,0
DA:580,0
DA:581,0
DA:582,0
DA:583,0
DA:584,0
DA:585,0
DA:586,0
DA:587,0
DA:588,0
DA:589,0
DA:590,0
DA:591,0
DA:593,0
DA:594,0
DA:596,0
DA:597,0
DA:598,0
DA:599,0
DA:600,0
DA:602,0
DA:604,0
DA:605,0
DA:606,0
DA:608,0
DA:609,0
DA:610,0
DA:613,0
DA:614,0
DA:615,0
DA:617,0
DA:619,0
DA:620,0
DA:621,0
DA:624,0
DA:625,0
DA:626,0
DA:628,0
DA:629,0
DA:630,0
DA:632,0
DA:634,0
DA:635,0
DA:636,0
DA:638,0
DA:640,0
DA:641,0
DA:642,0
DA:644,0
DA:646,0
DA:647,0
DA:648,0
DA:650,0
DA:652,0
DA:653,0
DA:654,0
DA:656,0
DA:658,0
DA:659,0
DA:660,0
DA:662,0
DA:664,0
DA:665,0
DA:666,0
DA:668,0
DA:670,0
DA:671,0
DA:672,0
DA:674,0
DA:676,0
DA:677,0
DA:678,0
DA:680,0
DA:682,0
DA:683,0
DA:684,0
DA:685,0
DA:686,0
DA:687,0
DA:688,0
DA:689,0
DA:690,0
DA:691,0
DA:692,0
DA:693,0
DA:694,0
DA:695,0
DA:696,0
DA:697,0
DA:698,0
DA:700,0
DA:701,0
DA:703,0
DA:704,0
DA:705,0
DA:706,0
DA:708,0
DA:709,0
DA:711,0
DA:714,0
DA:716,0
LF:366
LH:0
end_of_record
TN:
SF:/home/nn/redis/FalkorDB/deps/RediSearch/deps/snowball/src_c/stem_ISO_8859_1_portuguese.c
FN:475,506,r_prelude
FN:508,586,r_mark_regions
FN:588,619,r_postlude
FN:621,624,r_RV
FN:626,629,r_R1
FN:631,634,r_R2
FN:636,794,r_standard_suffix
FN:796,810,r_verb_suffix
FN:812,823,r_residual_suffix
FN:825,876,r_residual_form
FN:878,956,portuguese_ISO_8859_1_stem
FN:958,958,portuguese_ISO_8859_1_create_env
FN:960,960,portuguese_ISO_8859_1_close_env
FNDA:0,r_prelude
FNDA:0,r_mark_regions
FNDA:0,r_postlude
FNDA:0,r_RV
FNDA:0,r_R1
FNDA:0,r_R2
FNDA:0,r_standard_suffix
FNDA:0,r_verb_suffix
FNDA:0,r_residual_suffix
FNDA:0,r_residual_form
FNDA:0,portuguese_ISO_8859_1_stem
FNDA:0,portuguese_ISO_8859_1_create_env
FNDA:0,portuguese_ISO_8859_1_close_env
FNF:13
FNH:0
DA:475,0
DA:477,0
DA:478,0
DA:479,0
DA:480,0
DA:481,0
DA:482,0
DA:483,0
DA:484,0
DA:485,0
DA:486,0
DA:487,0
DA:489,0
DA:490,0
DA:491,0
DA:492,0
DA:494,0
DA:495,0
DA:496,0
DA:497,0
DA:498,0
DA:500,0
DA:501,0
DA:502,0
DA:503,0
DA:505,0
DA:508,0
DA:509,0
DA:510,0
DA:511,0
DA:512,0
DA:513,0
DA:514,0
DA:515,0
DA:516,0
DA:518,0
DA:519,0
DA:520,0
DA:522,0
DA:523,0
DA:524,0
DA:525,0
DA:527,0
DA:528,0
DA:529,0
DA:532,0
DA:533,0
DA:534,0
DA:535,0
DA:536,0
DA:537,0
DA:538,0
DA:540,0
DA:541,0
DA:542,0
DA:544,0
DA:545,0
DA:546,0
DA:547,0
DA:548,0
DA:549,0
DA:551,0
DA:554,0
DA:555,0
DA:556,0
DA:557,0
DA:559,0
DA:561,0
DA:562,0
DA:563,0
DA:566,0
DA:567,0
DA:568,0
DA:570,0
DA:572,0
DA:573,0
DA:574,0
DA:577,0
DA:578,0
DA:579,0
DA:581,0
DA:582,0
DA:583,0
DA:585,0
DA:588,0
DA:590,0
DA:591,0
DA:592,0
DA:593,0
DA:594,0
DA:595,0
DA:596,0
DA:597,0
DA:598,0
DA:599,0
DA:600,0
DA:602,0
DA:603,0
DA:604,0
DA:605,0
DA:607,0
DA:608,0
DA:609,0
DA:610,0
DA:611,0
DA:613,0
DA:614,0
DA:615,0
DA:616,0
DA:618,0
DA:621,0
DA:622,0
DA:623,0
DA:626,0
DA:627,0
DA:628,0
DA:631,0
DA:632,0
DA:633,0
DA:636,0
DA:638,0
DA:639,0
DA:640,0
DA:641,0
DA:642,0
DA:643,0
DA:644,0
DA:645,0
DA:646,0
DA:648,0
DA:649,0
DA:651,0
DA:652,0
DA:653,0
DA:654,0
DA:656,0
DA:657,0
DA:659,0
DA:660,0
DA:661,0
DA:662,0
DA:664,0
DA:665,0
DA:667,0
DA:668,0
DA:669,0
DA:670,0
DA:672,0
DA:673,0
DA:675,0
DA:676,0
DA:677,0
DA:678,0
DA:680,0
DA:681,0
DA:683,0
DA:684,0
DA:685,0
DA:686,0
DA:687,0
DA:688,0
DA:689,0
DA:690,0
DA:691,0
DA:693,0
DA:694,0
DA:697,0
DA:698,0
DA:699,0
DA:700,0
DA:701,0
DA:702,0
DA:703,0
DA:705,0
DA:706,0
DA:708,0
DA:710,0
DA:713,0
DA:714,0
DA:715,0
DA:716,0
DA:718,0
DA:719,0
DA:721,0
DA:722,0
DA:723,0
DA:724,0
DA:725,0
DA:726,0
DA:727,0
DA:728,0
DA:730,0
DA:731,0
DA:733,0
DA:736,0
DA:737,0
DA:738,0
DA:739,0
DA:741,0
DA:742,0
DA:744,0
DA:745,0
DA:746,0
DA:747,0
DA:748,0
DA:749,0
DA:750,0
DA:751,0
DA:753,0
DA:754,0
DA:756,0
DA:759,0
DA:760,0
DA:761,0
DA:762,0
DA:764,0
DA:765,0
DA:767,0
DA:768,0
DA:769,0
DA:770,0
DA:771,0
DA:772,0
DA:773,0
DA:775,0
DA:776,0
DA:778,0
DA:781,0
DA:782,0
DA:783,0
DA:784,0
DA:786,0
DA:787,0
DA:788,0
DA:789,0
DA:791,0
DA:793,0
DA:796,0
DA:799,0
DA:800,0
DA:801,0
DA:802,0
DA:803,0
DA:804,0
DA:805,0
DA:807,0
DA:809,0
DA:812,0
DA:813,0
DA:814,0
DA:815,0
DA:816,0
DA:817,0
DA:819,0
DA:820,0
DA:822,0
DA:825,0
DA:827,0
DA:828,0
DA:829,0
DA:830,0
DA:831,0
DA:832,0
DA:833,0
DA:834,0
DA:836,0
DA:837,0
DA:839,0
DA:840,0
DA:841,0
DA:842,0
DA:843,0
DA:844,0
DA:845,0
DA:846,0
DA:847,0
DA:849,0
DA:850,0
DA:851,0
DA:852,0
DA:853,0
DA:854,0
DA:855,0
DA:856,0
DA:857,0
DA:858,0
DA:861,0
DA:862,0
DA:863,0
DA:865,0
DA:866,0
DA:868,0
DA:869,0
DA:870,0
DA:871,0
DA:873,0
DA:875,0
DA:878,0
DA:879,0
DA:880,0
DA:881,0
DA:883,0
DA:886,0
DA:887,0
DA:889,0
DA:891,0
DA:892,0
DA:893,0
DA:894,0
DA:895,0
DA:896,0
DA:897,0
DA:899,0
DA:900,0
DA:901,0
DA:902,0
DA:903,0
DA:904,0
DA:907,0
DA:908,0
DA:909,0
DA:910,0
DA:911,0
DA:912,0
DA:913,0
DA:914,0
DA:915,0
DA:916,0
DA:917,0
DA:919,0
DA:920,0
DA:921,0
DA:923,0
DA:924,0
DA:926,0
DA:927,0
DA:930,0
DA:931,0
DA:932,0
DA:933,0
DA:934,0
DA:935,0
DA:938,0
DA:939,0
DA:940,0
DA:942,0
DA:943,0
DA:944,0
DA:946,0
DA:948,0
DA:949,0
DA:950,0
DA:951,0
DA:953,0
DA:955,0
DA:958,0
DA:960,0
LF:357
LH:0
end_of_record
TN:
SF:/home/nn/redis/FalkorDB/deps/RediSearch/deps/snowball/src_c/stem_ISO_8859_1_spanish.c
FN:1038,1038,spanish_ISO_8859_1_create_env
FN:1040,1040,spanish_ISO_8859_1_close_env
FN:506,584,r_mark_regions
FN:586,632,r_postlude
FN:634,637,r_RV
FN:639,642,r_R1
FN:644,647,r_R2
FN:649,706,r_attached_pronoun
FN:708,878,r_standard_suffix
FN:880,896,r_y_verb_suffix
FN:898,935,r_verb_suffix
FN:937,982,r_residual_suffix
FN:984,1036,spanish_ISO_8859_1_stem
FNDA:0,spanish_ISO_8859_1_create_env
FNDA:0,spanish_ISO_8859_1_close_env
FNDA:0,r_mark_regions
FNDA:0,r_postlude
FNDA:0,r_RV
FNDA:0,r_R1
FNDA:0,r_R2
FNDA:0,r_attached_pronoun
FNDA:0,r_standard_suffix
FNDA:0,r_y_verb_suffix
FNDA:0,r_verb_suffix
FNDA:0,r_residual_suffix
FNDA:0,spanish_ISO_8859_1_stem
FNF:13
FNH:0
DA:506,0
DA:507,0
DA:508,0
DA:509,0
DA:510,0
DA:511,0
DA:512,0
DA:513,0
DA:514,0
DA:516,0
DA:517,0
DA:518,0
DA:520,0
DA:521,0
DA:522,0
DA:523,0
DA:525,0
DA:526,0
DA:527,0
DA:530,0
DA:531,0
DA:532,0
DA:533,0
DA:534,0
DA:535,0
DA:536,0
DA:538,0
DA:539,0
DA:540,0
DA:542,0
DA:543,0
DA:544,0
DA:545,0
DA:546,0
DA:547,0
DA:549,0
DA:552,0
DA:553,0
DA:554,0
DA:555,0
DA:557,0
DA:559,0
DA:560,0
DA:561,0
DA:564,0
DA:565,0
DA:566,0
DA:568,0
DA:570,0
DA:571,0
DA:572,0
DA:575,0
DA:576,0
DA:577,0
DA:579,0
DA:580,0
DA:581,0
DA:583,0
DA:586,0
DA:588,0
DA:589,0
DA:590,0
DA:591,0
DA:592,0
DA:593,0
DA:594,0
DA:595,0
DA:596,0
DA:597,0
DA:598,0
DA:600,0
DA:601,0
DA:602,0
DA:603,0
DA:605,0
DA:606,0
DA:607,0
DA:608,0
DA:610,0
DA:611,0
DA:612,0
DA:613,0
DA:615,0
DA:616,0
DA:617,0
DA:618,0
DA:620,0
DA:621,0
DA:622,0
DA:623,0
DA:624,0
DA:626,0
DA:627,0
DA:628,0
DA:629,0
DA:631,0
DA:634,0
DA:635,0
DA:636,0
DA:639,0
DA:640,0
DA:641,0
DA:644,0
DA:645,0
DA:646,0
DA:649,0
DA:651,0
DA:652,0
DA:653,0
DA:654,0
DA:655,0
DA:656,0
DA:657,0
DA:658,0
DA:659,0
DA:661,0
DA:662,0
DA:663,0
DA:664,0
DA:665,0
DA:667,0
DA:668,0
DA:669,0
DA:670,0
DA:671,0
DA:673,0
DA:674,0
DA:675,0
DA:676,0
DA:677,0
DA:679,0
DA:680,0
DA:681,0
DA:682,0
DA:683,0
DA:685,0
DA:686,0
DA:687,0
DA:688,0
DA:689,0
DA:691,0
DA:692,0
DA:693,0
DA:694,0
DA:696,0
DA:697,0
DA:698,0
DA:699,0
DA:700,0
DA:701,0
DA:703,0
DA:705,0
DA:708,0
DA:710,0
DA:711,0
DA:712,0
DA:713,0
DA:714,0
DA:715,0
DA:716,0
DA:717,0
DA:718,0
DA:720,0
DA:721,0
DA:723,0
DA:724,0
DA:725,0
DA:726,0
DA:728,0
DA:729,0
DA:731,0
DA:732,0
DA:733,0
DA:734,0
DA:735,0
DA:736,0
DA:737,0
DA:739,0
DA:740,0
DA:742,0
DA:745,0
DA:746,0
DA:747,0
DA:748,0
DA:750,0
DA:751,0
DA:753,0
DA:754,0
DA:755,0
DA:756,0
DA:758,0
DA:759,0
DA:761,0
DA:762,0
DA:763,0
DA:764,0
DA:766,0
DA:767,0
DA:769,0
DA:770,0
DA:771,0
DA:772,0
DA:774,0
DA:775,0
DA:777,0
DA:778,0
DA:779,0
DA:780,0
DA:781,0
DA:782,0
DA:783,0
DA:784,0
DA:785,0
DA:787,0
DA:788,0
DA:791,0
DA:792,0
DA:793,0
DA:794,0
DA:795,0
DA:796,0
DA:797,0
DA:799,0
DA:800,0
DA:802,0
DA:804,0
DA:807,0
DA:808,0
DA:809,0
DA:810,0
DA:812,0
DA:813,0
DA:815,0
DA:816,0
DA:817,0
DA:818,0
DA:819,0
DA:820,0
DA:821,0
DA:822,0
DA:824,0
DA:825,0
DA:827,0
DA:830,0
DA:831,0
DA:832,0
DA:833,0
DA:835,0
DA:836,0
DA:838,0
DA:839,0
DA:840,0
DA:841,0
DA:842,0
DA:843,0
DA:844,0
DA:845,0
DA:847,0
DA:848,0
DA:850,0
DA:853,0
DA:854,0
DA:855,0
DA:856,0
DA:858,0
DA:859,0
DA:861,0
DA:862,0
DA:863,0
DA:864,0
DA:865,0
DA:866,0
DA:867,0
DA:869,0
DA:870,0
DA:872,0
DA:875,0
DA:877,0
DA:880,0
DA:883,0
DA:884,0
DA:885,0
DA:886,0
DA:887,0
DA:888,0
DA:890,0
DA:891,0
DA:892,0
DA:893,0
DA:895,0
DA:898,0
DA:902,0
DA:903,0
DA:904,0
DA:905,0
DA:906,0
DA:907,0
DA:908,0
DA:910,0
DA:911,0
DA:912,0
DA:913,0
DA:914,0
DA:915,0
DA:916,0
DA:917,0
DA:918,0
DA:920,0
DA:923,0
DA:924,0
DA:925,0
DA:927,0
DA:928,0
DA:929,0
DA:930,0
DA:932,0
DA:934,0
DA:937,0
DA:939,0
DA:940,0
DA:941,0
DA:942,0
DA:943,0
DA:944,0
DA:945,0
DA:946,0
DA:948,0
DA:949,0
DA:951,0
DA:952,0
DA:953,0
DA:954,0
DA:956,0
DA:957,0
DA:959,0
DA:960,0
DA:961,0
DA:962,0
DA:963,0
DA:964,0
DA:965,0
DA:966,0
DA:967,0
DA:969,0
DA:970,0
DA:971,0
DA:973,0
DA:974,0
DA:976,0
DA:979,0
DA:981,0
DA:984,0
DA:986,0
DA:987,0
DA:989,0
DA:991,0
DA:992,0
DA:993,0
DA:995,0
DA:997,0
DA:998,0
DA:999,0
DA:1000,0
DA:1001,0
DA:1003,0
DA:1004,0
DA:1005,0
DA:1006,0
DA:1007,0
DA:1008,0
DA:1010,0
DA:1011,0
DA:1012,0
DA:1013,0
DA:1014,0
DA:1015,0
DA:1018,0
DA:1019,0
DA:1020,0
DA:1022,0
DA:1023,0
DA:1024,0
DA:1026,0
DA:1028,0
DA:1029,0
DA:1030,0
DA:1031,0
DA:1033,0
DA:1035,0
DA:1038,0
DA:1040,0
LF:391
LH:0
end_of_record
TN:
SF:/home/nn/redis/FalkorDB/deps/RediSearch/deps/snowball/src_c/stem_ISO_8859_1_swedish.c
FN:148,168,r_mark_regions
FN:170,197,r_main_suffix
FN:199,219,r_consonant_pair
FN:221,252,r_other_suffix
FN:254,283,swedish_ISO_8859_1_stem
FN:285,285,swedish_ISO_8859_1_create_env
FN:287,287,swedish_ISO_8859_1_close_env
FNDA:0,r_mark_regions
FNDA:0,r_main_suffix
FNDA:0,r_consonant_pair
FNDA:0,r_other_suffix
FNDA:0,swedish_ISO_8859_1_stem
FNDA:0,swedish_ISO_8859_1_create_env
FNDA:0,swedish_ISO_8859_1_close_env
FNF:7
FNH:0
DA:148,0
DA:149,0
DA:150,0
DA:151,0
DA:152,0
DA:153,0
DA:154,0
DA:156,0
DA:158,0
DA:159,0
DA:160,0
DA:162,0
DA:164,0
DA:165,0
DA:166,0
DA:167,0
DA:170,0
DA:174,0
DA:175,0
DA:176,0
DA:177,0
DA:178,0
DA:179,0
DA:180,0
DA:181,0
DA:183,0
DA:184,0
DA:185,0
DA:186,0
DA:188,0
DA:189,0
DA:190,0
DA:191,0
DA:192,0
DA:194,0
DA:196,0
DA:199,0
DA:202,0
DA:203,0
DA:204,0
DA:205,0
DA:206,0
DA:207,0
DA:208,0
DA:209,0
DA:210,0
DA:211,0
DA:212,0
DA:213,0
DA:216,0
DA:218,0
DA:221,0
DA:225,0
DA:226,0
DA:227,0
DA:228,0
DA:229,0
DA:230,0
DA:231,0
DA:232,0
DA:233,0
DA:234,0
DA:235,0
DA:237,0
DA:238,0
DA:239,0
DA:240,0
DA:242,0
DA:243,0
DA:244,0
DA:245,0
DA:247,0
DA:249,0
DA:251,0
DA:254,0
DA:255,0
DA:256,0
DA:257,0
DA:259,0
DA:261,0
DA:263,0
DA:264,0
DA:265,0
DA:267,0
DA:269,0
DA:270,0
DA:271,0
DA:273,0
DA:275,0
DA:276,0
DA:277,0
DA:279,0
DA:281,0
DA:282,0
DA:285,0
DA:287,0
LF:96
LH:0
end_of_record
TN:
SF:/home/nn/redis/FalkorDB/deps/RediSearch/deps/snowball/src_c/stem_ISO_8859_2_hungarian.c
FN:479,508,r_mark_regions
FN:510,513,r_R1
FN:515,538,r_v_ending
FN:540,547,r_double
FN:549,560,r_undouble
FN:562,580,r_instrum
FN:582,596,r_case
FN:598,621,r_case_special
FN:623,651,r_case_other
FN:653,671,r_factive
FN:673,701,r_plural
FN:703,731,r_owned
FN:733,760,r_sing_owner
FN:762,790,r_plur_owner
FN:792,857,hungarian_ISO_8859_2_stem
FN:859,859,hungarian_ISO_8859_2_create_env
FN:861,861,hungarian_ISO_8859_2_close_env
FNDA:0,r_mark_regions
FNDA:0,r_R1
FNDA:0,r_v_ending
FNDA:0,r_double
FNDA:0,r_undouble
FNDA:0,r_instrum
FNDA:0,r_case
FNDA:0,r_case_special
FNDA:0,r_case_other
FNDA:0,r_factive
FNDA:0,r_plural
FNDA:0,r_owned
FNDA:0,r_sing_owner
FNDA:0,r_plur_owner
FNDA:0,hungarian_ISO_8859_2_stem
FNDA:0,hungarian_ISO_8859_2_create_env
FNDA:0,hungarian_ISO_8859_2_close_env
FNF:17
FNH:0
DA:479,0
DA:480,0
DA:481,0
DA:482,0
DA:483,0
DA:484,0
DA:485,0
DA:486,0
DA:487,0
DA:488,0
DA:489,0
DA:490,0
DA:491,0
DA:493,0
DA:494,0
DA:495,0
DA:496,0
DA:497,0
DA:498,0
DA:500,0
DA:501,0
DA:502,0
DA:504,0
DA:506,0
DA:507,0
DA:510,0
DA:511,0
DA:512,0
DA:515,0
DA:517,0
DA:518,0
DA:519,0
DA:520,0
DA:521,0
DA:522,0
DA:523,0
DA:525,0
DA:526,0
DA:527,0
DA:528,0
DA:530,0
DA:531,0
DA:532,0
DA:533,0
DA:535,0
DA:537,0
DA:540,0
DA:541,0
DA:542,0
DA:543,0
DA:544,0
DA:546,0
DA:549,0
DA:550,0
DA:551,0
DA:552,0
DA:553,0
DA:554,0
DA:555,0
DA:556,0
DA:557,0
DA:559,0
DA:562,0
DA:563,0
DA:564,0
DA:565,0
DA:566,0
DA:567,0
DA:568,0
DA:570,0
DA:571,0
DA:573,0
DA:574,0
DA:576,0
DA:577,0
DA:579,0
DA:582,0
DA:583,0
DA:584,0
DA:585,0
DA:586,0
DA:587,0
DA:589,0
DA:590,0
DA:592,0
DA:593,0
DA:595,0
DA:598,0
DA:600,0
DA:601,0
DA:602,0
DA:603,0
DA:604,0
DA:605,0
DA:606,0
DA:608,0
DA:609,0
DA:610,0
DA:611,0
DA:613,0
DA:614,0
DA:615,0
DA:616,0
DA:618,0
DA:620,0
DA:623,0
DA:625,0
DA:626,0
DA:627,0
DA:628,0
DA:629,0
DA:630,0
DA:631,0
DA:633,0
DA:634,0
DA:635,0
DA:636,0
DA:638,0
DA:639,0
DA:640,0
DA:641,0
DA:643,0
DA:644,0
DA:645,0
DA:646,0
DA:648,0
DA:650,0
DA:653,0
DA:654,0
DA:655,0
DA:656,0
DA:657,0
DA:658,0
DA:659,0
DA:661,0
DA:662,0
DA:664,0
DA:665,0
DA:667,0
DA:668,0
DA:670,0
DA:673,0
DA:675,0
DA:676,0
DA:677,0
DA:678,0
DA:679,0
DA:680,0
DA:681,0
DA:683,0
DA:684,0
DA:685,0
DA:686,0
DA:688,0
DA:689,0
DA:690,0
DA:691,0
DA:693,0
DA:694,0
DA:695,0
DA:696,0
DA:698,0
DA:700,0
DA:703,0
DA:705,0
DA:706,0
DA:707,0
DA:708,0
DA:709,0
DA:710,0
DA:711,0
DA:713,0
DA:714,0
DA:715,0
DA:716,0
DA:718,0
DA:719,0
DA:720,0
DA:721,0
DA:723,0
DA:724,0
DA:725,0
DA:726,0
DA:728,0
DA:730,0
DA:733,0
DA:735,0
DA:736,0
DA:737,0
DA:738,0
DA:739,0
DA:740,0
DA:742,0
DA:743,0
DA:744,0
DA:745,0
DA:747,0
DA:748,0
DA:749,0
DA:750,0
DA:752,0
DA:753,0
DA:754,0
DA:755,0
DA:757,0
DA:759,0
DA:762,0
DA:764,0
DA:765,0
DA:766,0
DA:767,0
DA:768,0
DA:769,0
DA:770,0
DA:772,0
DA:773,0
DA:774,0
DA:775,0
DA:777,0
DA:778,0
DA:779,0
DA:780,0
DA:782,0
DA:783,0
DA:784,0
DA:785,0
DA:787,0
DA:789,0
DA:792,0
DA:793,0
DA:794,0
DA:795,0
DA:797,0
DA:799,0
DA:801,0
DA:802,0
DA:803,0
DA:805,0
DA:807,0
DA:808,0
DA:809,0
DA:811,0
DA:813,0
DA:814,0
DA:815,0
DA:817,0
DA:819,0
DA:820,0
DA:821,0
DA:823,0
DA:825,0
DA:826,0
DA:827,0
DA:829,0
DA:831,0
DA:832,0
DA:833,0
DA:835,0
DA:837,0
DA:838,0
DA:839,0
DA:841,0
DA:843,0
DA:844,0
DA:845,0
DA:847,0
DA:849,0
DA:850,0
DA:851,0
DA:853,0
DA:855,0
DA:856,0
DA:859,0
DA:861,0
LF:274
LH:0
end_of_record
TN:
SF:/home/nn/redis/FalkorDB/deps/RediSearch/deps/snowball/src_c/stem_ISO_8859_2_romanian.c
FN:538,578,r_prelude
FN:580,658,r_mark_regions
FN:660,691,r_postlude
FN:693,696,r_RV
FN:698,701,r_R1
FN:703,706,r_R2
FN:708,762,r_step_0
FN:764,810,r_combo_suffix
FN:812,855,r_standard_suffix
FN:857,891,r_verb_suffix
FN:893,904,r_vowel_suffix
FN:906,960,romanian_ISO_8859_2_stem
FN:962,962,romanian_ISO_8859_2_create_env
FN:964,964,romanian_ISO_8859_2_close_env
FNDA:0,r_prelude
FNDA:0,r_mark_regions
FNDA:0,r_postlude
FNDA:0,r_RV
FNDA:0,r_R1
FNDA:0,r_R2
FNDA:0,r_step_0
FNDA:0,r_combo_suffix
FNDA:0,r_standard_suffix
FNDA:0,r_verb_suffix
FNDA:0,r_vowel_suffix
FNDA:0,romanian_ISO_8859_2_stem
FNDA:0,romanian_ISO_8859_2_create_env
FNDA:0,romanian_ISO_8859_2_close_env
FNF:14
FNH:0
DA:538,0
DA:539,0
DA:540,0
DA:541,0
DA:542,0
DA:543,0
DA:544,0
DA:545,0
DA:546,0
DA:547,0
DA:548,0
DA:549,0
DA:550,0
DA:551,0
DA:553,0
DA:554,0
DA:555,0
DA:556,0
DA:557,0
DA:558,0
DA:559,0
DA:560,0
DA:561,0
DA:564,0
DA:565,0
DA:566,0
DA:567,0
DA:568,0
DA:569,0
DA:570,0
DA:572,0
DA:573,0
DA:574,0
DA:575,0
DA:577,0
DA:580,0
DA:581,0
DA:582,0
DA:583,0
DA:584,0
DA:585,0
DA:586,0
DA:587,0
DA:588,0
DA:590,0
DA:591,0
DA:592,0
DA:594,0
DA:595,0
DA:596,0
DA:597,0
DA:599,0
DA:600,0
DA:601,0
DA:604,0
DA:605,0
DA:606,0
DA:607,0
DA:608,0
DA:609,0
DA:610,0
DA:612,0
DA:613,0
DA:614,0
DA:616,0
DA:617,0
DA:618,0
DA:619,0
DA:620,0
DA:621,0
DA:623,0
DA:626,0
DA:627,0
DA:628,0
DA:629,0
DA:631,0
DA:633,0
DA:634,0
DA:635,0
DA:638,0
DA:639,0
DA:640,0
DA:642,0
DA:644,0
DA:645,0
DA:646,0
DA:649,0
DA:650,0
DA:651,0
DA:653,0
DA:654,0
DA:655,0
DA:657,0
DA:660,0
DA:662,0
DA:663,0
DA:664,0
DA:665,0
DA:666,0
DA:667,0
DA:668,0
DA:669,0
DA:670,0
DA:671,0
DA:672,0
DA:674,0
DA:675,0
DA:676,0
DA:677,0
DA:679,0
DA:680,0
DA:681,0
DA:682,0
DA:683,0
DA:685,0
DA:686,0
DA:687,0
DA:688,0
DA:690,0
DA:693,0
DA:694,0
DA:695,0
DA:698,0
DA:699,0
DA:700,0
DA:703,0
DA:704,0
DA:705,0
DA:708,0
DA:710,0
DA:711,0
DA:712,0
DA:713,0
DA:714,0
DA:715,0
DA:716,0
DA:718,0
DA:719,0
DA:720,0
DA:721,0
DA:723,0
DA:724,0
DA:725,0
DA:726,0
DA:728,0
DA:729,0
DA:730,0
DA:731,0
DA:733,0
DA:734,0
DA:735,0
DA:736,0
DA:738,0
DA:739,0
DA:740,0
DA:741,0
DA:742,0
DA:743,0
DA:744,0
DA:746,0
DA:747,0
DA:749,0
DA:750,0
DA:751,0
DA:752,0
DA:754,0
DA:755,0
DA:756,0
DA:757,0
DA:759,0
DA:761,0
DA:764,0
DA:766,0
DA:767,0
DA:768,0
DA:769,0
DA:770,0
DA:771,0
DA:772,0
DA:774,0
DA:775,0
DA:776,0
DA:777,0
DA:779,0
DA:780,0
DA:781,0
DA:782,0
DA:784,0
DA:785,0
DA:786,0
DA:787,0
DA:789,0
DA:790,0
DA:791,0
DA:792,0
DA:794,0
DA:795,0
DA:796,0
DA:797,0
DA:799,0
DA:800,0
DA:801,0
DA:802,0
DA:804,0
DA:806,0
DA:807,0
DA:809,0
DA:812,0
DA:814,0
DA:815,0
DA:816,0
DA:817,0
DA:818,0
DA:819,0
DA:821,0
DA:822,0
DA:823,0
DA:824,0
DA:826,0
DA:827,0
DA:828,0
DA:829,0
DA:830,0
DA:831,0
DA:833,0
DA:834,0
DA:835,0
DA:836,0
DA:838,0
DA:839,0
DA:840,0
DA:841,0
DA:842,0
DA:843,0
DA:844,0
DA:846,0
DA:847,0
DA:848,0
DA:849,0
DA:851,0
DA:853,0
DA:854,0
DA:857,0
DA:861,0
DA:862,0
DA:863,0
DA:864,0
DA:865,0
DA:866,0
DA:867,0
DA:868,0
DA:869,0
DA:870,0
DA:871,0
DA:872,0
DA:873,0
DA:874,0
DA:875,0
DA:877,0
DA:878,0
DA:879,0
DA:881,0
DA:882,0
DA:883,0
DA:884,0
DA:886,0
DA:888,0
DA:890,0
DA:893,0
DA:894,0
DA:895,0
DA:896,0
DA:897,0
DA:898,0
DA:900,0
DA:901,0
DA:903,0
DA:906,0
DA:907,0
DA:908,0
DA:909,0
DA:911,0
DA:914,0
DA:915,0
DA:917,0
DA:919,0
DA:920,0
DA:921,0
DA:923,0
DA:925,0
DA:926,0
DA:927,0
DA:929,0
DA:931,0
DA:932,0
DA:933,0
DA:934,0
DA:935,0
DA:936,0
DA:937,0
DA:938,0
DA:939,0
DA:942,0
DA:943,0
DA:944,0
DA:946,0
DA:947,0
DA:948,0
DA:950,0
DA:952,0
DA:953,0
DA:954,0
DA:955,0
DA:957,0
DA:959,0
DA:962,0
DA:964,0
LF:317
LH:0
end_of_record
TN:
SF:/home/nn/redis/FalkorDB/deps/RediSearch/deps/snowball/src_c/stem_KOI8_R_russian.c
FN:344,374,r_mark_regions
FN:376,379,r_R2
FN:381,411,r_perfective_gerund
FN:413,422,r_adjective
FN:424,461,r_adjectival
FN:463,472,r_reflexive
FN:474,504,r_verb
FN:506,515,r_noun
FN:517,529,r_derivational
FN:531,567,r_tidy_up
FN:569,677,russian_KOI8_R_stem
FN:679,679,russian_KOI8_R_create_env
FN:681,681,russian_KOI8_R_close_env
FNDA:0,r_mark_regions
FNDA:0,r_R2
FNDA:0,r_perfective_gerund
FNDA:0,r_adjective
FNDA:0,r_adjectival
FNDA:0,r_reflexive
FNDA:0,r_verb
FNDA:0,r_noun
FNDA:0,r_derivational
FNDA:0,r_tidy_up
FNDA:0,russian_KOI8_R_stem
FNDA:0,russian_KOI8_R_create_env
FNDA:0,russian_KOI8_R_close_env
FNF:13
FNH:0
DA:344,0
DA:345,0
DA:346,0
DA:347,0
DA:349,0
DA:350,0
DA:351,0
DA:353,0
DA:355,0
DA:356,0
DA:357,0
DA:360,0
DA:361,0
DA:362,0
DA:365,0
DA:366,0
DA:367,0
DA:369,0
DA:370,0
DA:371,0
DA:373,0
DA:376,0
DA:377,0
DA:378,0
DA:381,0
DA:383,0
DA:384,0
DA:385,0
DA:386,0
DA:387,0
DA:388,0
DA:389,0
DA:390,0
DA:391,0
DA:392,0
DA:393,0
DA:394,0
DA:395,0
DA:396,0
DA:397,0
DA:399,0
DA:400,0
DA:401,0
DA:403,0
DA:404,0
DA:405,0
DA:406,0
DA:408,0
DA:410,0
DA:413,0
DA:414,0
DA:415,0
DA:416,0
DA:417,0
DA:418,0
DA:419,0
DA:421,0
DA:424,0
DA:426,0
DA:427,0
DA:429,0
DA:430,0
DA:431,0
DA:432,0
DA:433,0
DA:434,0
DA:435,0
DA:436,0
DA:437,0
DA:438,0
DA:439,0
DA:440,0
DA:441,0
DA:442,0
DA:443,0
DA:444,0
DA:446,0
DA:447,0
DA:448,0
DA:450,0
DA:451,0
DA:452,0
DA:453,0
DA:455,0
DA:457,0
DA:460,0
DA:463,0
DA:464,0
DA:465,0
DA:466,0
DA:467,0
DA:468,0
DA:469,0
DA:471,0
DA:474,0
DA:476,0
DA:477,0
DA:478,0
DA:479,0
DA:480,0
DA:481,0
DA:482,0
DA:483,0
DA:484,0
DA:485,0
DA:486,0
DA:487,0
DA:488,0
DA:489,0
DA:490,0
DA:492,0
DA:493,0
DA:494,0
DA:496,0
DA:497,0
DA:498,0
DA:499,0
DA:501,0
DA:503,0
DA:506,0
DA:507,0
DA:508,0
DA:509,0
DA:510,0
DA:511,0
DA:512,0
DA:514,0
DA:517,0
DA:518,0
DA:519,0
DA:520,0
DA:521,0
DA:522,0
DA:523,0
DA:525,0
DA:526,0
DA:528,0
DA:531,0
DA:533,0
DA:534,0
DA:535,0
DA:536,0
DA:537,0
DA:538,0
DA:539,0
DA:540,0
DA:541,0
DA:543,0
DA:544,0
DA:545,0
DA:546,0
DA:547,0
DA:548,0
DA:549,0
DA:550,0
DA:552,0
DA:553,0
DA:554,0
DA:555,0
DA:556,0
DA:557,0
DA:559,0
DA:560,0
DA:561,0
DA:562,0
DA:564,0
DA:566,0
DA:569,0
DA:570,0
DA:571,0
DA:572,0
DA:573,0
DA:574,0
DA:575,0
DA:576,0
DA:577,0
DA:578,0
DA:579,0
DA:580,0
DA:581,0
DA:582,0
DA:583,0
DA:584,0
DA:586,0
DA:587,0
DA:589,0
DA:590,0
DA:591,0
DA:592,0
DA:594,0
DA:597,0
DA:598,0
DA:600,0
DA:604,0
DA:605,0
DA:606,0
DA:607,0
DA:608,0
DA:609,0
DA:610,0
DA:612,0
DA:613,0
DA:614,0
DA:615,0
DA:616,0
DA:617,0
DA:618,0
DA:620,0
DA:623,0
DA:624,0
DA:625,0
DA:626,0
DA:628,0
DA:629,0
DA:630,0
DA:631,0
DA:632,0
DA:633,0
DA:635,0
DA:636,0
DA:637,0
DA:638,0
DA:639,0
DA:640,0
DA:643,0
DA:646,0
DA:647,0
DA:648,0
DA:650,0
DA:651,0
DA:652,0
DA:653,0
DA:654,0
DA:655,0
DA:656,0
DA:658,0
DA:661,0
DA:662,0
DA:663,0
DA:665,0
DA:667,0
DA:668,0
DA:669,0
DA:671,0
DA:673,0
DA:675,0
DA:676,0
DA:679,0
DA:681,0
LF:249
LH:0
end_of_record
TN:
SF:/home/nn/redis/FalkorDB/deps/RediSearch/deps/snowball/src_c/stem_UTF_8_arabic.c
FN:1022,1044,r_Checks1
FN:1046,1080,r_Prefix_Step1
FN:1082,1104,r_Prefix_Step2
FN:1106,1128,r_Prefix_Step3a_Noun
FN:1130,1164,r_Prefix_Step3b_Noun
FN:1166,1199,r_Prefix_Step3_Verb
FN:1201,1213,r_Prefix_Step4_Verb
FN:1215,1242,r_Suffix_Noun_Step1a
FN:1244,1254,r_Suffix_Noun_Step1b
FN:1256,1265,r_Suffix_Noun_Step2a
FN:1267,1277,r_Suffix_Noun_Step2b
FN:1279,1289,r_Suffix_Noun_Step2c1
FN:1291,1301,r_Suffix_Noun_Step2c2
FN:1303,1313,r_Suffix_Noun_Step3
FN:1315,1342,r_Suffix_Verb_Step1
FN:1344,1377,r_Suffix_Verb_Step2a
FN:1379,1389,r_Suffix_Verb_Step2b
FN:1391,1413,r_Suffix_Verb_Step2c
FN:1415,1424,r_Suffix_All_alef_maqsura
FN:1426,1671,arabic_UTF_8_stem
FN:1673,1673,arabic_UTF_8_create_env
FN:1675,1675,arabic_UTF_8_close_env
FN:675,959,r_Normalize_pre
FN:961,1020,r_Normalize_post
FNDA:0,r_Checks1
FNDA:0,r_Prefix_Step1
FNDA:0,r_Prefix_Step2
FNDA:0,r_Prefix_Step3a_Noun
FNDA:0,r_Prefix_Step3b_Noun
FNDA:0,r_Prefix_Step3_Verb
FNDA:0,r_Prefix_Step4_Verb
FNDA:0,r_Suffix_Noun_Step1a
FNDA:0,r_Suffix_Noun_Step1b
FNDA:0,r_Suffix_Noun_Step2a
FNDA:0,r_Suffix_Noun_Step2b
FNDA:0,r_Suffix_Noun_Step2c1
FNDA:0,r_Suffix_Noun_Step2c2
FNDA:0,r_Suffix_Noun_Step3
FNDA:0,r_Suffix_Verb_Step1
FNDA:0,r_Suffix_Verb_Step2a
FNDA:0,r_Suffix_Verb_Step2b
FNDA:0,r_Suffix_Verb_Step2c
FNDA:0,r_Suffix_All_alef_maqsura
FNDA:0,arabic_UTF_8_stem
FNDA:0,arabic_UTF_8_create_env
FNDA:0,arabic_UTF_8_close_env
FNDA:0,r_Normalize_pre
FNDA:0,r_Normalize_post
FNF:24
FNH:0
DA:675,0
DA:677,0
DA:678,0
DA:679,0
DA:680,0
DA:681,0
DA:682,0
DA:683,0
DA:684,0
DA:685,0
DA:686,0
DA:687,0
DA:688,0
DA:690,0
DA:691,0
DA:692,0
DA:693,0
DA:695,0
DA:696,0
DA:697,0
DA:698,0
DA:700,0
DA:701,0
DA:702,0
DA:703,0
DA:705,0
DA:706,0
DA:707,0
DA:708,0
DA:710,0
DA:711,0
DA:712,0
DA:713,0
DA:715,0
DA:716,0
DA:717,0
DA:718,0
DA:720,0
DA:721,0
DA:722,0
DA:723,0
DA:725,0
DA:726,0
DA:727,0
DA:728,0
DA:730,0
DA:731,0
DA:732,0
DA:733,0
DA:735,0
DA:736,0
DA:737,0
DA:738,0
DA:740,0
DA:741,0
DA:742,0
DA:743,0
DA:745,0
DA:746,0
DA:747,0
DA:748,0
DA:750,0
DA:751,0
DA:752,0
DA:753,0
DA:755,0
DA:756,0
DA:757,0
DA:758,0
DA:760,0
DA:761,0
DA:762,0
DA:763,0
DA:765,0
DA:766,0
DA:767,0
DA:768,0
DA:770,0
DA:771,0
DA:772,0
DA:773,0
DA:775,0
DA:776,0
DA:777,0
DA:778,0
DA:780,0
DA:781,0
DA:782,0
DA:783,0
DA:785,0
DA:786,0
DA:787,0
DA:788,0
DA:790,0
DA:791,0
DA:792,0
DA:793,0
DA:795,0
DA:796,0
DA:797,0
DA:798,0
DA:800,0
DA:801,0
DA:802,0
DA:803,0
DA:805,0
DA:806,0
DA:807,0
DA:808,0
DA:810,0
DA:811,0
DA:812,0
DA:813,0
DA:815,0
DA:816,0
DA:817,0
DA:818,0
DA:820,0
DA:821,0
DA:822,0
DA:823,0
DA:825,0
DA:826,0
DA:827,0
DA:828,0
DA:830,0
DA:831,0
DA:832,0
DA:833,0
DA:835,0
DA:836,0
DA:837,0
DA:838,0
DA:840,0
DA:841,0
DA:842,0
DA:843,0
DA:845,0
DA:846,0
DA:847,0
DA:848,0
DA:850,0
DA:851,0
DA:852,0
DA:853,0
DA:855,0
DA:856,0
DA:857,0
DA:858,0
DA:860,0
DA:861,0
DA:862,0
DA:863,0
DA:865,0
DA:866,0
DA:867,0
DA:868,0
DA:870,0
DA:871,0
DA:872,0
DA:873,0
DA:875,0
DA:876,0
DA:877,0
DA:878,0
DA:880,0
DA:881,0
DA:882,0
DA:883,0
DA:885,0
DA:886,0
DA:887,0
DA:888,0
DA:890,0
DA:891,0
DA:892,0
DA:893,0
DA:895,0
DA:896,0
DA:897,0
DA:898,0
DA:900,0
DA:901,0
DA:902,0
DA:903,0
DA:905,0
DA:906,0
DA:907,0
DA:908,0
DA:910,0
DA:911,0
DA:912,0
DA:913,0
DA:915,0
DA:916,0
DA:917,0
DA:918,0
DA:920,0
DA:921,0
DA:922,0
DA:923,0
DA:925,0
DA:926,0
DA:927,0
DA:928,0
DA:930,0
DA:931,0
DA:932,0
DA:933,0
DA:935,0
DA:936,0
DA:937,0
DA:938,0
DA:940,0
DA:942,0
DA:943,0
DA:944,0
DA:945,0
DA:946,0
DA:947,0
DA:950,0
DA:951,0
DA:952,0
DA:953,0
DA:954,0
DA:956,0
DA:958,0
DA:961,0
DA:963,0
DA:964,0
DA:966,0
DA:967,0
DA:968,0
DA:969,0
DA:970,0
DA:971,0
DA:973,0
DA:974,0
DA:975,0
DA:977,0
DA:978,0
DA:979,0
DA:980,0
DA:981,0
DA:982,0
DA:983,0
DA:984,0
DA:985,0
DA:986,0
DA:987,0
DA:988,0
DA:989,0
DA:991,0
DA:992,0
DA:993,0
DA:994,0
DA:996,0
DA:997,0
DA:998,0
DA:999,0
DA:1001,0
DA:1003,0
DA:1004,0
DA:1005,0
DA:1006,0
DA:1007,0
DA:1008,0
DA:1011,0
DA:1012,0
DA:1013,0
DA:1014,0
DA:1015,0
DA:1017,0
DA:1019,0
DA:1022,0
DA:1024,0
DA:1025,0
DA:1026,0
DA:1027,0
DA:1028,0
DA:1029,0
DA:1030,0
DA:1031,0
DA:1032,0
DA:1033,0
DA:1034,0
DA:1035,0
DA:1036,0
DA:1037,0
DA:1038,0
DA:1039,0
DA:1040,0
DA:1041,0
DA:1043,0
DA:1046,0
DA:1048,0
DA:1049,0
DA:1050,0
DA:1051,0
DA:1052,0
DA:1053,0
DA:1054,0
DA:1055,0
DA:1056,0
DA:1057,0
DA:1059,0
DA:1060,0
DA:1061,0
DA:1062,0
DA:1063,0
DA:1065,0
DA:1066,0
DA:1067,0
DA:1068,0
DA:1069,0
DA:1071,0
DA:1072,0
DA:1073,0
DA:1074,0
DA:1075,0
DA:1077,0
DA:1079,0
DA:1082,0
DA:1083,0
DA:1084,0
DA:1085,0
DA:1086,0
DA:1087,0
DA:1089,0
DA:1090,0
DA:1091,0
DA:1092,0
DA:1093,0
DA:1095,0
DA:1096,0
DA:1097,0
DA:1098,0
DA:1099,0
DA:1100,0
DA:1101,0
DA:1103,0
DA:1106,0
DA:1108,0
DA:1109,0
DA:1110,0
DA:1111,0
DA:1112,0
DA:1113,0
DA:1114,0
DA:1115,0
DA:1116,0
DA:1117,0
DA:1119,0
DA:1120,0
DA:1121,0
DA:1122,0
DA:1123,0
DA:1125,0
DA:1127,0
DA:1130,0
DA:1132,0
DA:1133,0
DA:1134,0
DA:1135,0
DA:1136,0
DA:1138,0
DA:1139,0
DA:1140,0
DA:1141,0
DA:1142,0
DA:1143,0
DA:1144,0
DA:1145,0
DA:1146,0
DA:1147,0
DA:1149,0
DA:1150,0
DA:1151,0
DA:1152,0
DA:1153,0
DA:1155,0
DA:1156,0
DA:1157,0
DA:1158,0
DA:1159,0
DA:1161,0
DA:1163,0
DA:1166,0
DA:1168,0
DA:1169,0
DA:1170,0
DA:1171,0
DA:1172,0
DA:1173,0
DA:1174,0
DA:1175,0
DA:1176,0
DA:1178,0
DA:1179,0
DA:1180,0
DA:1181,0
DA:1182,0
DA:1184,0
DA:1185,0
DA:1186,0
DA:1187,0
DA:1188,0
DA:1190,0
DA:1191,0
DA:1192,0
DA:1193,0
DA:1194,0
DA:1196,0
DA:1198,0
DA:1201,0
DA:1202,0
DA:1203,0
DA:1204,0
DA:1205,0
DA:1206,0
DA:1207,0
DA:1208,0
DA:1209,0
DA:1210,0
DA:1212,0
DA:1215,0
DA:1217,0
DA:1218,0
DA:1219,0
DA:1220,0
DA:1221,0
DA:1222,0
DA:1223,0
DA:1224,0
DA:1225,0
DA:1227,0
DA:1228,0
DA:1229,0
DA:1230,0
DA:1231,0
DA:1233,0
DA:1234,0
DA:1235,0
DA:1236,0
DA:1237,0
DA:1239,0
DA:1241,0
DA:1244,0
DA:1245,0
DA:1246,0
DA:1247,0
DA:1248,0
DA:1249,0
DA:1250,0
DA:1251,0
DA:1253,0
DA:1256,0
DA:1257,0
DA:1258,0
DA:1259,0
DA:1260,0
DA:1261,0
DA:1262,0
DA:1264,0
DA:1267,0
DA:1268,0
DA:1269,0
DA:1270,0
DA:1271,0
DA:1272,0
DA:1273,0
DA:1274,0
DA:1276,0
DA:1279,0
DA:1280,0
DA:1281,0
DA:1282,0
DA:1283,0
DA:1284,0
DA:1285,0
DA:1286,0
DA:1288,0
DA:1291,0
DA:1292,0
DA:1293,0
DA:1294,0
DA:1295,0
DA:1296,0
DA:1297,0
DA:1298,0
DA:1300,0
DA:1303,0
DA:1304,0
DA:1305,0
DA:1306,0
DA:1307,0
DA:1308,0
DA:1309,0
DA:1310,0
DA:1312,0
DA:1315,0
DA:1317,0
DA:1318,0
DA:1319,0
DA:1320,0
DA:1321,0
DA:1322,0
DA:1323,0
DA:1324,0
DA:1325,0
DA:1327,0
DA:1328,0
DA:1329,0
DA:1330,0
DA:1331,0
DA:1333,0
DA:1334,0
DA:1335,0
DA:1336,0
DA:1337,0
DA:1339,0
DA:1341,0
DA:1344,0
DA:1346,0
DA:1347,0
DA:1348,0
DA:1349,0
DA:1350,0
DA:1351,0
DA:1352,0
DA:1353,0
DA:1354,0
DA:1356,0
DA:1357,0
DA:1358,0
DA:1359,0
DA:1360,0
DA:1362,0
DA:1363,0
DA:1364,0
DA:1365,0
DA:1366,0
DA:1368,0
DA:1369,0
DA:1370,0
DA:1371,0
DA:1372,0
DA:1374,0
DA:1376,0
DA:1379,0
DA:1380,0
DA:1381,0
DA:1382,0
DA:1383,0
DA:1384,0
DA:1385,0
DA:1386,0
DA:1388,0
DA:1391,0
DA:1393,0
DA:1394,0
DA:1395,0
DA:1396,0
DA:1397,0
DA:1398,0
DA:1399,0
DA:1400,0
DA:1401,0
DA:1402,0
DA:1404,0
DA:1405,0
DA:1406,0
DA:1407,0
DA:1408,0
DA:1410,0
DA:1412,0
DA:1415,0
DA:1416,0
DA:1417,0
DA:1418,0
DA:1419,0
DA:1420,0
DA:1421,0
DA:1423,0
DA:1426,0
DA:1427,0
DA:1428,0
DA:1429,0
DA:1430,0
DA:1431,0
DA:1432,0
DA:1434,0
DA:1437,0
DA:1438,0
DA:1440,0
DA:1442,0
DA:1443,0
DA:1444,0
DA:1445,0
DA:1446,0
DA:1447,0
DA:1448,0
DA:1449,0
DA:1450,0
DA:1451,0
DA:1453,0
DA:1454,0
DA:1455,0
DA:1456,0
DA:1457,0
DA:1459,0
DA:1461,0
DA:1462,0
DA:1463,0
DA:1464,0
DA:1466,0
DA:1467,0
DA:1468,0
DA:1469,0
DA:1470,0
DA:1471,0
DA:1473,0
DA:1474,0
DA:1475,0
DA:1476,0
DA:1477,0
DA:1478,0
DA:1481,0
DA:1482,0
DA:1483,0
DA:1484,0
DA:1485,0
DA:1486,0
DA:1487,0
DA:1489,0
DA:1490,0
DA:1491,0
DA:1492,0
DA:1493,0
DA:1494,0
DA:1497,0
DA:1498,0
DA:1499,0
DA:1500,0
DA:1501,0
DA:1502,0
DA:1503,0
DA:1504,0
DA:1505,0
DA:1506,0
DA:1508,0
DA:1509,0
DA:1510,0
DA:1512,0
DA:1513,0
DA:1514,0
DA:1515,0
DA:1516,0
DA:1517,0
DA:1519,0
DA:1520,0
DA:1521,0
DA:1522,0
DA:1524,0
DA:1525,0
DA:1526,0
DA:1527,0
DA:1528,0
DA:1529,0
DA:1531,0
DA:1532,0
DA:1533,0
DA:1534,0
DA:1535,0
DA:1536,0
DA:1538,0
DA:1539,0
DA:1540,0
DA:1541,0
DA:1542,0
DA:1543,0
DA:1546,0
DA:1547,0
DA:1548,0
DA:1549,0
DA:1550,0
DA:1551,0
DA:1552,0
DA:1554,0
DA:1555,0
DA:1556,0
DA:1557,0
DA:1559,0
DA:1560,0
DA:1561,0
DA:1562,0
DA:1563,0
DA:1564,0
DA:1566,0
DA:1567,0
DA:1568,0
DA:1569,0
DA:1570,0
DA:1571,0
DA:1574,0
DA:1575,0
DA:1576,0
DA:1577,0
DA:1579,0
DA:1580,0
DA:1581,0
DA:1582,0
DA:1583,0
DA:1584,0
DA:1586,0
DA:1587,0
DA:1588,0
DA:1589,0
DA:1590,0
DA:1591,0
DA:1594,0
DA:1595,0
DA:1598,0
DA:1599,0
DA:1600,0
DA:1602,0
DA:1603,0
DA:1604,0
DA:1605,0
DA:1606,0
DA:1607,0
DA:1610,0
DA:1611,0
DA:1612,0
DA:1614,0
DA:1615,0
DA:1616,0
DA:1617,0
DA:1618,0
DA:1619,0
DA:1621,0
DA:1624,0
DA:1625,0
DA:1626,0
DA:1627,0
DA:1629,0
DA:1632,0
DA:1633,0
DA:1634,0
DA:1635,0
DA:1637,0
DA:1638,0
DA:1639,0
DA:1640,0
DA:1641,0
DA:1642,0
DA:1643,0
DA:1645,0
DA:1646,0
DA:1647,0
DA:1648,0
DA:1649,0
DA:1650,0
DA:1651,0
DA:1652,0
DA:1654,0
DA:1657,0
DA:1658,0
DA:1659,0
DA:1662,0
DA:1663,0
DA:1664,0
DA:1667,0
DA:1668,0
DA:1670,0
DA:1673,0
DA:1675,0
LF:777
LH:0
end_of_record
TN:
SF:/home/nn/redis/FalkorDB/deps/RediSearch/deps/snowball/src_c/stem_UTF_8_armenian.c
FN:435,465,r_mark_regions
FN:467,470,r_R2
FN:472,480,r_adjective
FN:482,490,r_verb
FN:492,500,r_noun
FN:502,513,r_ending
FN:515,554,armenian_UTF_8_stem
FN:556,556,armenian_UTF_8_create_env
FN:558,558,armenian_UTF_8_close_env
FNDA:0,r_mark_regions
FNDA:0,r_R2
FNDA:0,r_adjective
FNDA:0,r_verb
FNDA:0,r_noun
FNDA:0,r_ending
FNDA:0,armenian_UTF_8_stem
FNDA:0,armenian_UTF_8_create_env
FNDA:0,armenian_UTF_8_close_env
FNF:9
FNH:0
DA:435,0
DA:436,0
DA:437,0
DA:438,0
DA:440,0
DA:441,0
DA:442,0
DA:444,0
DA:446,0
DA:447,0
DA:448,0
DA:451,0
DA:452,0
DA:453,0
DA:456,0
DA:457,0
DA:458,0
DA:460,0
DA:461,0
DA:462,0
DA:464,0
DA:467,0
DA:468,0
DA:469,0
DA:472,0
DA:473,0
DA:474,0
DA:475,0
DA:476,0
DA:477,0
DA:479,0
DA:482,0
DA:483,0
DA:484,0
DA:485,0
DA:486,0
DA:487,0
DA:489,0
DA:492,0
DA:493,0
DA:494,0
DA:495,0
DA:496,0
DA:497,0
DA:499,0
DA:502,0
DA:503,0
DA:504,0
DA:505,0
DA:506,0
DA:507,0
DA:509,0
DA:510,0
DA:512,0
DA:515,0
DA:517,0
DA:518,0
DA:520,0
DA:524,0
DA:525,0
DA:526,0
DA:527,0
DA:528,0
DA:530,0
DA:532,0
DA:533,0
DA:534,0
DA:536,0
DA:538,0
DA:539,0
DA:540,0
DA:542,0
DA:544,0
DA:545,0
DA:546,0
DA:548,0
DA:550,0
DA:552,0
DA:553,0
DA:556,0
DA:558,0
LF:81
LH:0
end_of_record
TN:
SF:/home/nn/redis/FalkorDB/deps/RediSearch/deps/snowball/src_c/stem_UTF_8_basque.c
FN:1003,1044,r_aditzak
FN:1046,1115,r_izenak
FN:1117,1140,r_adjetiboak
FN:1142,1179,basque_UTF_8_stem
FN:1181,1181,basque_UTF_8_create_env
FN:1183,1183,basque_UTF_8_close_env
FN:906,986,r_mark_regions
FN:988,991,r_RV
FN:993,996,r_R2
FN:998,1001,r_R1
FNDA:0,r_aditzak
FNDA:0,r_izenak
FNDA:0,r_adjetiboak
FNDA:0,basque_UTF_8_stem
FNDA:0,basque_UTF_8_create_env
FNDA:0,basque_UTF_8_close_env
FNDA:0,r_mark_regions
FNDA:0,r_RV
FNDA:0,r_R2
FNDA:0,r_R1
FNF:10
FNH:0
DA:906,0
DA:907,0
DA:908,0
DA:909,0
DA:910,0
DA:911,0
DA:912,0
DA:913,0
DA:914,0
DA:916,0
DA:917,0
DA:918,0
DA:920,0
DA:921,0
DA:922,0
DA:923,0
DA:925,0
DA:926,0
DA:927,0
DA:930,0
DA:931,0
DA:932,0
DA:933,0
DA:934,0
DA:935,0
DA:936,0
DA:938,0
DA:939,0
DA:940,0
DA:942,0
DA:943,0
DA:944,0
DA:945,0
DA:946,0
DA:947,0
DA:948,0
DA:951,0
DA:954,0
DA:955,0
DA:956,0
DA:957,0
DA:959,0
DA:961,0
DA:962,0
DA:963,0
DA:966,0
DA:967,0
DA:968,0
DA:970,0
DA:972,0
DA:973,0
DA:974,0
DA:977,0
DA:978,0
DA:979,0
DA:981,0
DA:982,0
DA:983,0
DA:985,0
DA:988,0
DA:989,0
DA:990,0
DA:993,0
DA:994,0
DA:995,0
DA:998,0
DA:999,0
DA:1000,0
DA:1003,0
DA:1005,0
DA:1006,0
DA:1007,0
DA:1008,0
DA:1009,0
DA:1010,0
DA:1011,0
DA:1012,0
DA:1013,0
DA:1015,0
DA:1016,0
DA:1018,0
DA:1019,0
DA:1020,0
DA:1021,0
DA:1023,0
DA:1024,0
DA:1026,0
DA:1027,0
DA:1028,0
DA:1029,0
DA:1031,0
DA:1032,0
DA:1033,0
DA:1034,0
DA:1036,0
DA:1037,0
DA:1038,0
DA:1039,0
DA:1041,0
DA:1043,0
DA:1046,0
DA:1048,0
DA:1049,0
DA:1050,0
DA:1051,0
DA:1052,0
DA:1053,0
DA:1054,0
DA:1055,0
DA:1056,0
DA:1058,0
DA:1059,0
DA:1061,0
DA:1062,0
DA:1063,0
DA:1064,0
DA:1066,0
DA:1067,0
DA:1069,0
DA:1070,0
DA:1071,0
DA:1072,0
DA:1074,0
DA:1075,0
DA:1076,0
DA:1077,0
DA:1079,0
DA:1080,0
DA:1082,0
DA:1083,0
DA:1084,0
DA:1085,0
DA:1087,0
DA:1088,0
DA:1089,0
DA:1090,0
DA:1092,0
DA:1093,0
DA:1094,0
DA:1095,0
DA:1097,0
DA:1098,0
DA:1099,0
DA:1100,0
DA:1102,0
DA:1103,0
DA:1104,0
DA:1105,0
DA:1107,0
DA:1108,0
DA:1109,0
DA:1110,0
DA:1112,0
DA:1114,0
DA:1117,0
DA:1119,0
DA:1120,0
DA:1121,0
DA:1122,0
DA:1123,0
DA:1124,0
DA:1125,0
DA:1126,0
DA:1127,0
DA:1129,0
DA:1130,0
DA:1132,0
DA:1133,0
DA:1134,0
DA:1135,0
DA:1137,0
DA:1139,0
DA:1142,0
DA:1144,0
DA:1145,0
DA:1147,0
DA:1149,0
DA:1150,0
DA:1151,0
DA:1152,0
DA:1153,0
DA:1155,0
DA:1156,0
DA:1157,0
DA:1158,0
DA:1160,0
DA:1161,0
DA:1162,0
DA:1163,0
DA:1164,0
DA:1166,0
DA:1167,0
DA:1168,0
DA:1169,0
DA:1171,0
DA:1172,0
DA:1173,0
DA:1175,0
DA:1177,0
DA:1178,0
DA:1181,0
DA:1183,0
LF:202
LH:0
end_of_record
TN:
SF:/home/nn/redis/FalkorDB/deps/RediSearch/deps/snowball/src_c/stem_UTF_8_catalan.c
FN:1183,1213,r_mark_regions
FN:1215,1268,r_cleaning
FN:1270,1273,r_R1
FN:1275,1278,r_R2
FN:1280,1292,r_attached_pronoun
FN:1294,1343,r_standard_suffix
FN:1345,1370,r_verb_suffix
FN:1372,1397,r_residual_suffix
FN:1399,1444,catalan_UTF_8_stem
FN:1446,1446,catalan_UTF_8_create_env
FN:1448,1448,catalan_UTF_8_close_env
FNDA:0,r_mark_regions
FNDA:0,r_cleaning
FNDA:0,r_R1
FNDA:0,r_R2
FNDA:0,r_attached_pronoun
FNDA:0,r_standard_suffix
FNDA:0,r_verb_suffix
FNDA:0,r_residual_suffix
FNDA:0,catalan_UTF_8_stem
FNDA:0,catalan_UTF_8_create_env
FNDA:0,catalan_UTF_8_close_env
FNF:11
FNH:0
DA:1183,0
DA:1184,0
DA:1185,0
DA:1186,0
DA:1188,0
DA:1189,0
DA:1190,0
DA:1193,0
DA:1194,0
DA:1195,0
DA:1197,0
DA:1199,0
DA:1200,0
DA:1201,0
DA:1204,0
DA:1205,0
DA:1206,0
DA:1208,0
DA:1209,0
DA:1210,0
DA:1212,0
DA:1215,0
DA:1217,0
DA:1218,0
DA:1219,0
DA:1220,0
DA:1221,0
DA:1222,0
DA:1223,0
DA:1224,0
DA:1225,0
DA:1226,0
DA:1227,0
DA:1229,0
DA:1230,0
DA:1231,0
DA:1232,0
DA:1234,0
DA:1235,0
DA:1236,0
DA:1237,0
DA:1239,0
DA:1240,0
DA:1241,0
DA:1242,0
DA:1244,0
DA:1245,0
DA:1246,0
DA:1247,0
DA:1249,0
DA:1250,0
DA:1251,0
DA:1252,0
DA:1254,0
DA:1255,0
DA:1256,0
DA:1257,0
DA:1258,0
DA:1260,0
DA:1262,0
DA:1263,0
DA:1264,0
DA:1265,0
DA:1267,0
DA:1270,0
DA:1271,0
DA:1272,0
DA:1275,0
DA:1276,0
DA:1277,0
DA:1280,0
DA:1281,0
DA:1282,0
DA:1283,0
DA:1284,0
DA:1285,0
DA:1286,0
DA:1288,0
DA:1289,0
DA:1291,0
DA:1294,0
DA:1296,0
DA:1297,0
DA:1298,0
DA:1299,0
DA:1300,0
DA:1301,0
DA:1302,0
DA:1303,0
DA:1305,0
DA:1306,0
DA:1308,0
DA:1309,0
DA:1310,0
DA:1311,0
DA:1313,0
DA:1314,0
DA:1316,0
DA:1317,0
DA:1318,0
DA:1319,0
DA:1321,0
DA:1322,0
DA:1324,0
DA:1325,0
DA:1326,0
DA:1327,0
DA:1329,0
DA:1330,0
DA:1332,0
DA:1333,0
DA:1334,0
DA:1335,0
DA:1337,0
DA:1338,0
DA:1340,0
DA:1342,0
DA:1345,0
DA:1347,0
DA:1348,0
DA:1349,0
DA:1350,0
DA:1351,0
DA:1352,0
DA:1353,0
DA:1354,0
DA:1356,0
DA:1357,0
DA:1359,0
DA:1360,0
DA:1361,0
DA:1362,0
DA:1364,0
DA:1365,0
DA:1367,0
DA:1369,0
DA:1372,0
DA:1374,0
DA:1375,0
DA:1376,0
DA:1377,0
DA:1378,0
DA:1379,0
DA:1380,0
DA:1381,0
DA:1383,0
DA:1384,0
DA:1386,0
DA:1387,0
DA:1388,0
DA:1389,0
DA:1391,0
DA:1392,0
DA:1394,0
DA:1396,0
DA:1399,0
DA:1401,0
DA:1402,0
DA:1404,0
DA:1406,0
DA:1407,0
DA:1408,0
DA:1410,0
DA:1412,0
DA:1413,0
DA:1414,0
DA:1415,0
DA:1416,0
DA:1418,0
DA:1419,0
DA:1420,0
DA:1421,0
DA:1422,0
DA:1423,0
DA:1426,0
DA:1427,0
DA:1428,0
DA:1430,0
DA:1431,0
DA:1432,0
DA:1434,0
DA:1436,0
DA:1437,0
DA:1438,0
DA:1439,0
DA:1441,0
DA:1443,0
DA:1446,0
DA:1448,0
LF:189
LH:0
end_of_record
TN:
SF:/home/nn/redis/FalkorDB/deps/RediSearch/deps/snowball/src_c/stem_UTF_8_danish.c
FN:136,158,r_mark_regions
FN:160,187,r_main_suffix
FN:189,212,r_consonant_pair
FN:214,257,r_other_suffix
FN:259,276,r_undouble
FN:278,313,danish_UTF_8_stem
FN:315,315,danish_UTF_8_create_env
FN:317,317,danish_UTF_8_close_env
FNDA:0,r_mark_regions
FNDA:0,r_main_suffix
FNDA:0,r_consonant_pair
FNDA:0,r_other_suffix
FNDA:0,r_undouble
FNDA:0,danish_UTF_8_stem
FNDA:0,danish_UTF_8_create_env
FNDA:0,danish_UTF_8_close_env
FNF:8
FNH:0
DA:136,0
DA:137,0
DA:138,0
DA:139,0
DA:140,0
DA:141,0
DA:143,0
DA:144,0
DA:146,0
DA:148,0
DA:149,0
DA:150,0
DA:152,0
DA:154,0
DA:155,0
DA:156,0
DA:157,0
DA:160,0
DA:164,0
DA:165,0
DA:166,0
DA:167,0
DA:168,0
DA:169,0
DA:170,0
DA:171,0
DA:173,0
DA:174,0
DA:175,0
DA:176,0
DA:178,0
DA:179,0
DA:180,0
DA:181,0
DA:182,0
DA:184,0
DA:186,0
DA:189,0
DA:190,0
DA:193,0
DA:194,0
DA:195,0
DA:196,0
DA:197,0
DA:198,0
DA:199,0
DA:201,0
DA:203,0
DA:204,0
DA:205,0
DA:207,0
DA:208,0
DA:209,0
DA:211,0
DA:214,0
DA:216,0
DA:217,0
DA:218,0
DA:219,0
DA:220,0
DA:221,0
DA:222,0
DA:224,0
DA:225,0
DA:229,0
DA:230,0
DA:231,0
DA:232,0
DA:233,0
DA:234,0
DA:235,0
DA:236,0
DA:238,0
DA:239,0
DA:240,0
DA:241,0
DA:243,0
DA:244,0
DA:245,0
DA:247,0
DA:249,0
DA:250,0
DA:251,0
DA:252,0
DA:254,0
DA:256,0
DA:259,0
DA:262,0
DA:263,0
DA:264,0
DA:265,0
DA:266,0
DA:267,0
DA:268,0
DA:269,0
DA:271,0
DA:272,0
DA:273,0
DA:275,0
DA:278,0
DA:279,0
DA:280,0
DA:281,0
DA:283,0
DA:285,0
DA:287,0
DA:288,0
DA:289,0
DA:291,0
DA:293,0
DA:294,0
DA:295,0
DA:297,0
DA:299,0
DA:300,0
DA:301,0
DA:303,0
DA:305,0
DA:306,0
DA:307,0
DA:309,0
DA:311,0
DA:312,0
DA:315,0
DA:317,0
LF:125
LH:0
end_of_record
TN:
SF:/home/nn/redis/FalkorDB/deps/RediSearch/deps/snowball/src_c/stem_UTF_8_dutch.c
FN:147,248,r_prelude
FN:250,280,r_mark_regions
FN:282,315,r_postlude
FN:317,320,r_R1
FN:322,325,r_R2
FN:327,343,r_undouble
FN:345,366,r_e_ending
FN:368,389,r_en_ending
FN:391,579,r_standard_suffix
FN:581,608,dutch_UTF_8_stem
FN:610,610,dutch_UTF_8_create_env
FN:612,612,dutch_UTF_8_close_env
FNDA:0,r_prelude
FNDA:0,r_mark_regions
FNDA:0,r_postlude
FNDA:0,r_R1
FNDA:0,r_R2
FNDA:0,r_undouble
FNDA:0,r_e_ending
FNDA:0,r_en_ending
FNDA:0,r_standard_suffix
FNDA:0,dutch_UTF_8_stem
FNDA:0,dutch_UTF_8_create_env
FNDA:0,dutch_UTF_8_close_env
FNF:12
FNH:0
DA:147,0
DA:149,0
DA:150,0
DA:151,0
DA:152,0
DA:153,0
DA:154,0
DA:155,0
DA:156,0
DA:157,0
DA:158,0
DA:159,0
DA:160,0
DA:162,0
DA:163,0
DA:164,0
DA:165,0
DA:167,0
DA:168,0
DA:169,0
DA:170,0
DA:172,0
DA:173,0
DA:174,0
DA:175,0
DA:177,0
DA:178,0
DA:179,0
DA:180,0
DA:182,0
DA:183,0
DA:184,0
DA:185,0
DA:186,0
DA:188,0
DA:190,0
DA:191,0
DA:192,0
DA:193,0
DA:195,0
DA:197,0
DA:198,0
DA:199,0
DA:200,0
DA:201,0
DA:202,0
DA:203,0
DA:205,0
DA:208,0
DA:209,0
DA:210,0
DA:211,0
DA:212,0
DA:213,0
DA:214,0
DA:215,0
DA:216,0
DA:217,0
DA:218,0
DA:219,0
DA:220,0
DA:222,0
DA:223,0
DA:224,0
DA:225,0
DA:226,0
DA:227,0
DA:228,0
DA:229,0
DA:232,0
DA:233,0
DA:234,0
DA:235,0
DA:236,0
DA:237,0
DA:238,0
DA:239,0
DA:242,0
DA:243,0
DA:244,0
DA:245,0
DA:247,0
DA:250,0
DA:251,0
DA:252,0
DA:254,0
DA:255,0
DA:256,0
DA:259,0
DA:260,0
DA:261,0
DA:263,0
DA:265,0
DA:266,0
DA:267,0
DA:269,0
DA:270,0
DA:271,0
DA:274,0
DA:275,0
DA:276,0
DA:278,0
DA:279,0
DA:282,0
DA:284,0
DA:285,0
DA:286,0
DA:287,0
DA:288,0
DA:289,0
DA:290,0
DA:291,0
DA:292,0
DA:293,0
DA:294,0
DA:296,0
DA:297,0
DA:298,0
DA:299,0
DA:301,0
DA:302,0
DA:303,0
DA:304,0
DA:305,0
DA:307,0
DA:309,0
DA:310,0
DA:311,0
DA:312,0
DA:314,0
DA:317,0
DA:318,0
DA:319,0
DA:322,0
DA:323,0
DA:324,0
DA:327,0
DA:328,0
DA:329,0
DA:330,0
DA:331,0
DA:333,0
DA:334,0
DA:335,0
DA:336,0
DA:338,0
DA:339,0
DA:340,0
DA:342,0
DA:345,0
DA:346,0
DA:347,0
DA:348,0
DA:349,0
DA:350,0
DA:351,0
DA:352,0
DA:354,0
DA:355,0
DA:356,0
DA:358,0
DA:359,0
DA:361,0
DA:362,0
DA:363,0
DA:365,0
DA:368,0
DA:369,0
DA:370,0
DA:372,0
DA:373,0
DA:374,0
DA:375,0
DA:376,0
DA:377,0
DA:378,0
DA:379,0
DA:382,0
DA:383,0
DA:385,0
DA:386,0
DA:388,0
DA:391,0
DA:393,0
DA:394,0
DA:395,0
DA:396,0
DA:397,0
DA:398,0
DA:399,0
DA:400,0
DA:401,0
DA:402,0
DA:403,0
DA:405,0
DA:406,0
DA:408,0
DA:409,0
DA:410,0
DA:411,0
DA:412,0
DA:414,0
DA:415,0
DA:416,0
DA:417,0
DA:418,0
DA:420,0
DA:421,0
DA:422,0
DA:424,0
DA:426,0
DA:427,0
DA:429,0
DA:430,0
DA:431,0
DA:433,0
DA:435,0
DA:436,0
DA:437,0
DA:438,0
DA:439,0
DA:440,0
DA:441,0
DA:443,0
DA:444,0
DA:445,0
DA:446,0
DA:447,0
DA:448,0
DA:450,0
DA:451,0
DA:453,0
DA:454,0
DA:455,0
DA:456,0
DA:457,0
DA:458,0
DA:460,0
DA:461,0
DA:463,0
DA:464,0
DA:465,0
DA:466,0
DA:467,0
DA:468,0
DA:469,0
DA:470,0
DA:471,0
DA:472,0
DA:473,0
DA:475,0
DA:476,0
DA:478,0
DA:479,0
DA:480,0
DA:481,0
DA:482,0
DA:483,0
DA:484,0
DA:486,0
DA:487,0
DA:488,0
DA:489,0
DA:490,0
DA:491,0
DA:493,0
DA:494,0
DA:496,0
DA:497,0
DA:498,0
DA:499,0
DA:500,0
DA:501,0
DA:504,0
DA:505,0
DA:506,0
DA:507,0
DA:508,0
DA:509,0
DA:511,0
DA:512,0
DA:513,0
DA:514,0
DA:515,0
DA:516,0
DA:518,0
DA:519,0
DA:521,0
DA:522,0
DA:523,0
DA:524,0
DA:525,0
DA:527,0
DA:528,0
DA:530,0
DA:531,0
DA:532,0
DA:534,0
DA:535,0
DA:536,0
DA:537,0
DA:538,0
DA:540,0
DA:541,0
DA:543,0
DA:544,0
DA:545,0
DA:546,0
DA:547,0
DA:549,0
DA:550,0
DA:551,0
DA:553,0
DA:555,0
DA:556,0
DA:558,0
DA:559,0
DA:560,0
DA:561,0
DA:562,0
DA:563,0
DA:564,0
DA:566,0
DA:567,0
DA:568,0
DA:569,0
DA:571,0
DA:572,0
DA:573,0
DA:575,0
DA:576,0
DA:578,0
DA:581,0
DA:582,0
DA:583,0
DA:584,0
DA:586,0
DA:588,0
DA:589,0
DA:590,0
DA:592,0
DA:594,0
DA:597,0
DA:598,0
DA:600,0
DA:601,0
DA:602,0
DA:603,0
DA:605,0
DA:607,0
DA:610,0
DA:612,0
LF:352
LH:0
end_of_record
TN:
SF:/home/nn/redis/FalkorDB/deps/RediSearch/deps/snowball/src_c/stem_UTF_8_english.c
FN:1071,1071,english_UTF_8_create_env
FN:1073,1073,english_UTF_8_close_env
FN:359,415,r_prelude
FN:417,455,r_mark_regions
FN:457,471,r_shortv
FN:473,476,r_R1
FN:478,481,r_R2
FN:483,541,r_Step_1a
FN:543,618,r_Step_1b
FN:620,642,r_Step_1c
FN:644,735,r_Step_2
FN:737,783,r_Step_3
FN:785,818,r_Step_4
FN:820,867,r_Step_5
FN:869,876,r_exception2
FN:878,944,r_exception1
FN:946,974,r_postlude
FN:976,1069,english_UTF_8_stem
FNDA:0,english_UTF_8_create_env
FNDA:0,english_UTF_8_close_env
FNDA:0,r_prelude
FNDA:0,r_mark_regions
FNDA:0,r_shortv
FNDA:0,r_R1
FNDA:0,r_R2
FNDA:0,r_Step_1a
FNDA:0,r_Step_1b
FNDA:0,r_Step_1c
FNDA:0,r_Step_2
FNDA:0,r_Step_3
FNDA:0,r_Step_4
FNDA:0,r_Step_5
FNDA:0,r_exception2
FNDA:0,r_exception1
FNDA:0,r_postlude
FNDA:0,english_UTF_8_stem
FNF:18
FNH:0
DA:359,0
DA:360,0
DA:361,0
DA:362,0
DA:363,0
DA:364,0
DA:365,0
DA:366,0
DA:367,0
DA:369,0
DA:370,0
DA:372,0
DA:373,0
DA:374,0
DA:375,0
DA:376,0
DA:377,0
DA:378,0
DA:380,0
DA:381,0
DA:382,0
DA:384,0
DA:385,0
DA:386,0
DA:387,0
DA:388,0
DA:389,0
DA:390,0
DA:391,0
DA:392,0
DA:393,0
DA:394,0
DA:395,0
DA:396,0
DA:397,0
DA:398,0
DA:399,0
DA:400,0
DA:403,0
DA:404,0
DA:406,0
DA:407,0
DA:408,0
DA:409,0
DA:410,0
DA:412,0
DA:414,0
DA:417,0
DA:418,0
DA:419,0
DA:420,0
DA:421,0
DA:422,0
DA:423,0
DA:424,0
DA:425,0
DA:426,0
DA:428,0
DA:429,0
DA:430,0
DA:433,0
DA:434,0
DA:435,0
DA:438,0
DA:439,0
DA:441,0
DA:442,0
DA:443,0
DA:446,0
DA:447,0
DA:448,0
DA:450,0
DA:451,0
DA:452,0
DA:454,0
DA:457,0
DA:458,0
DA:459,0
DA:460,0
DA:461,0
DA:462,0
DA:463,0
DA:464,0
DA:465,0
DA:466,0
DA:467,0
DA:469,0
DA:470,0
DA:473,0
DA:474,0
DA:475,0
DA:478,0
DA:479,0
DA:480,0
DA:483,0
DA:485,0
DA:486,0
DA:487,0
DA:488,0
DA:489,0
DA:490,0
DA:491,0
DA:493,0
DA:496,0
DA:497,0
DA:498,0
DA:499,0
DA:500,0
DA:501,0
DA:502,0
DA:503,0
DA:504,0
DA:506,0
DA:507,0
DA:508,0
DA:509,0
DA:510,0
DA:511,0
DA:513,0
DA:514,0
DA:516,0
DA:517,0
DA:518,0
DA:519,0
DA:520,0
DA:523,0
DA:524,0
DA:525,0
DA:526,0
DA:527,0
DA:528,0
DA:531,0
DA:532,0
DA:533,0
DA:535,0
DA:536,0
DA:538,0
DA:540,0
DA:543,0
DA:545,0
DA:546,0
DA:547,0
DA:548,0
DA:549,0
DA:550,0
DA:551,0
DA:552,0
DA:553,0
DA:555,0
DA:556,0
DA:558,0
DA:559,0
DA:560,0
DA:562,0
DA:563,0
DA:564,0
DA:566,0
DA:568,0
DA:569,0
DA:571,0
DA:572,0
DA:573,0
DA:574,0
DA:575,0
DA:578,0
DA:580,0
DA:581,0
DA:582,0
DA:584,0
DA:586,0
DA:587,0
DA:588,0
DA:589,0
DA:590,0
DA:591,0
DA:593,0
DA:594,0
DA:595,0
DA:597,0
DA:598,0
DA:599,0
DA:600,0
DA:601,0
DA:602,0
DA:604,0
DA:607,0
DA:608,0
DA:609,0
DA:611,0
DA:613,0
DA:615,0
DA:617,0
DA:620,0
DA:621,0
DA:622,0
DA:623,0
DA:624,0
DA:625,0
DA:626,0
DA:627,0
DA:628,0
DA:629,0
DA:631,0
DA:632,0
DA:633,0
DA:635,0
DA:636,0
DA:637,0
DA:638,0
DA:639,0
DA:641,0
DA:644,0
DA:646,0
DA:647,0
DA:648,0
DA:649,0
DA:650,0
DA:651,0
DA:652,0
DA:654,0
DA:655,0
DA:656,0
DA:657,0
DA:659,0
DA:660,0
DA:661,0
DA:662,0
DA:664,0
DA:665,0
DA:666,0
DA:667,0
DA:669,0
DA:670,0
DA:671,0
DA:672,0
DA:674,0
DA:675,0
DA:676,0
DA:677,0
DA:679,0
DA:680,0
DA:681,0
DA:682,0
DA:684,0
DA:685,0
DA:686,0
DA:687,0
DA:689,0
DA:690,0
DA:691,0
DA:692,0
DA:694,0
DA:695,0
DA:696,0
DA:697,0
DA:699,0
DA:700,0
DA:701,0
DA:702,0
DA:704,0
DA:705,0
DA:706,0
DA:707,0
DA:709,0
DA:710,0
DA:711,0
DA:712,0
DA:714,0
DA:715,0
DA:716,0
DA:717,0
DA:718,0
DA:719,0
DA:721,0
DA:722,0
DA:723,0
DA:724,0
DA:726,0
DA:727,0
DA:728,0
DA:729,0
DA:730,0
DA:732,0
DA:734,0
DA:737,0
DA:739,0
DA:740,0
DA:741,0
DA:742,0
DA:743,0
DA:744,0
DA:745,0
DA:747,0
DA:748,0
DA:749,0
DA:750,0
DA:752,0
DA:753,0
DA:754,0
DA:755,0
DA:757,0
DA:758,0
DA:759,0
DA:760,0
DA:762,0
DA:763,0
DA:764,0
DA:765,0
DA:767,0
DA:768,0
DA:769,0
DA:770,0
DA:772,0
DA:773,0
DA:774,0
DA:775,0
DA:777,0
DA:778,0
DA:780,0
DA:782,0
DA:785,0
DA:787,0
DA:788,0
DA:789,0
DA:790,0
DA:791,0
DA:792,0
DA:793,0
DA:795,0
DA:796,0
DA:797,0
DA:798,0
DA:800,0
DA:801,0
DA:802,0
DA:803,0
DA:804,0
DA:805,0
DA:806,0
DA:807,0
DA:808,0
DA:809,0
DA:811,0
DA:812,0
DA:813,0
DA:815,0
DA:817,0
DA:820,0
DA:822,0
DA:823,0
DA:824,0
DA:825,0
DA:826,0
DA:827,0
DA:828,0
DA:829,0
DA:830,0
DA:831,0
DA:832,0
DA:834,0
DA:835,0
DA:836,0
DA:837,0
DA:838,0
DA:840,0
DA:841,0
DA:842,0
DA:843,0
DA:845,0
DA:846,0
DA:847,0
DA:850,0
DA:851,0
DA:852,0
DA:854,0
DA:855,0
DA:856,0
DA:857,0
DA:859,0
DA:860,0
DA:861,0
DA:862,0
DA:864,0
DA:866,0
DA:869,0
DA:870,0
DA:871,0
DA:872,0
DA:873,0
DA:874,0
DA:875,0
DA:878,0
DA:880,0
DA:881,0
DA:882,0
DA:883,0
DA:884,0
DA:885,0
DA:886,0
DA:887,0
DA:888,0
DA:889,0
DA:891,0
DA:892,0
DA:893,0
DA:894,0
DA:896,0
DA:897,0
DA:898,0
DA:899,0
DA:901,0
DA:902,0
DA:903,0
DA:904,0
DA:906,0
DA:907,0
DA:908,0
DA:909,0
DA:911,0
DA:912,0
DA:913,0
DA:914,0
DA:916,0
DA:917,0
DA:918,0
DA:919,0
DA:921,0
DA:922,0
DA:923,0
DA:924,0
DA:926,0
DA:927,0
DA:928,0
DA:929,0
DA:931,0
DA:932,0
DA:933,0
DA:934,0
DA:936,0
DA:937,0
DA:938,0
DA:939,0
DA:941,0
DA:943,0
DA:946,0
DA:947,0
DA:948,0
DA:949,0
DA:950,0
DA:951,0
DA:952,0
DA:953,0
DA:954,0
DA:955,0
DA:956,0
DA:957,0
DA:958,0
DA:959,0
DA:960,0
DA:961,0
DA:962,0
DA:965,0
DA:966,0
DA:968,0
DA:969,0
DA:970,0
DA:971,0
DA:973,0
DA:976,0
DA:977,0
DA:978,0
DA:979,0
DA:980,0
DA:982,0
DA:983,0
DA:984,0
DA:985,0
DA:986,0
DA:987,0
DA:988,0
DA:990,0
DA:991,0
DA:992,0
DA:994,0
DA:995,0
DA:996,0
DA:998,0
DA:999,0
DA:1002,0
DA:1003,0
DA:1005,0
DA:1007,0
DA:1008,0
DA:1009,0
DA:1011,0
DA:1013,0
DA:1014,0
DA:1015,0
DA:1016,0
DA:1018,0
DA:1019,0
DA:1020,0
DA:1021,0
DA:1022,0
DA:1023,0
DA:1025,0
DA:1027,0
DA:1028,0
DA:1029,0
DA:1031,0
DA:1033,0
DA:1034,0
DA:1035,0
DA:1037,0
DA:1039,0
DA:1040,0
DA:1041,0
DA:1043,0
DA:1045,0
DA:1046,0
DA:1047,0
DA:1049,0
DA:1051,0
DA:1052,0
DA:1053,0
DA:1055,0
DA:1058,0
DA:1059,0
DA:1060,0
DA:1061,0
DA:1062,0
DA:1064,0
DA:1067,0
DA:1068,0
DA:1071,0
DA:1073,0
LF:536
LH:0
end_of_record
TN:
SF:/home/nn/redis/FalkorDB/deps/RediSearch/deps/snowball/src_c/stem_UTF_8_finnish.c
FN:279,297,r_mark_regions
FN:299,302,r_R2
FN:304,330,r_particle_etc
FN:332,396,r_possessive
FN:398,401,r_LONG
FN:403,408,r_VI
FN:410,480,r_case_ending
FN:482,508,r_other_endings
FN:510,525,r_i_plural
FN:527,571,r_t_plural
FN:573,656,r_tidy
FN:658,717,finnish_UTF_8_stem
FN:719,719,finnish_UTF_8_create_env
FN:721,721,finnish_UTF_8_close_env
FNDA:0,r_mark_regions
FNDA:0,r_R2
FNDA:0,r_particle_etc
FNDA:0,r_possessive
FNDA:0,r_LONG
FNDA:0,r_VI
FNDA:0,r_case_ending
FNDA:0,r_other_endings
FNDA:0,r_i_plural
FNDA:0,r_t_plural
FNDA:0,r_tidy
FNDA:0,finnish_UTF_8_stem
FNDA:0,finnish_UTF_8_create_env
FNDA:0,finnish_UTF_8_close_env
FNF:14
FNH:0
DA:279,0
DA:280,0
DA:281,0
DA:282,0
DA:284,0
DA:285,0
DA:286,0
DA:288,0
DA:289,0
DA:291,0
DA:292,0
DA:293,0
DA:295,0
DA:296,0
DA:299,0
DA:300,0
DA:301,0
DA:304,0
DA:308,0
DA:309,0
DA:310,0
DA:311,0
DA:312,0
DA:313,0
DA:314,0
DA:316,0
DA:317,0
DA:318,0
DA:319,0
DA:320,0
DA:321,0
DA:322,0
DA:324,0
DA:326,0
DA:327,0
DA:329,0
DA:332,0
DA:336,0
DA:337,0
DA:338,0
DA:339,0
DA:340,0
DA:341,0
DA:342,0
DA:344,0
DA:345,0
DA:346,0
DA:347,0
DA:348,0
DA:349,0
DA:350,0
DA:351,0
DA:353,0
DA:354,0
DA:356,0
DA:357,0
DA:358,0
DA:359,0
DA:361,0
DA:362,0
DA:363,0
DA:364,0
DA:365,0
DA:367,0
DA:368,0
DA:369,0
DA:370,0
DA:372,0
DA:373,0
DA:374,0
DA:375,0
DA:376,0
DA:377,0
DA:379,0
DA:380,0
DA:381,0
DA:382,0
DA:383,0
DA:384,0
DA:386,0
DA:387,0
DA:388,0
DA:389,0
DA:390,0
DA:391,0
DA:393,0
DA:395,0
DA:398,0
DA:399,0
DA:400,0
DA:403,0
DA:404,0
DA:405,0
DA:406,0
DA:407,0
DA:410,0
DA:414,0
DA:415,0
DA:416,0
DA:417,0
DA:418,0
DA:419,0
DA:420,0
DA:422,0
DA:423,0
DA:424,0
DA:425,0
DA:426,0
DA:427,0
DA:428,0
DA:429,0
DA:430,0
DA:431,0
DA:432,0
DA:433,0
DA:434,0
DA:435,0
DA:436,0
DA:437,0
DA:438,0
DA:439,0
DA:440,0
DA:441,0
DA:442,0
DA:443,0
DA:444,0
DA:445,0
DA:446,0
DA:447,0
DA:448,0
DA:449,0
DA:450,0
DA:451,0
DA:453,0
DA:454,0
DA:455,0
DA:456,0
DA:458,0
DA:459,0
DA:460,0
DA:461,0
DA:462,0
DA:465,0
DA:466,0
DA:469,0
DA:470,0
DA:471,0
DA:472,0
DA:473,0
DA:475,0
DA:476,0
DA:478,0
DA:479,0
DA:482,0
DA:486,0
DA:487,0
DA:488,0
DA:489,0
DA:490,0
DA:491,0
DA:492,0
DA:494,0
DA:495,0
DA:496,0
DA:497,0
DA:498,0
DA:499,0
DA:500,0
DA:502,0
DA:504,0
DA:505,0
DA:507,0
DA:510,0
DA:513,0
DA:514,0
DA:515,0
DA:516,0
DA:517,0
DA:518,0
DA:519,0
DA:521,0
DA:522,0
DA:524,0
DA:527,0
DA:531,0
DA:532,0
DA:533,0
DA:534,0
DA:535,0
DA:536,0
DA:537,0
DA:538,0
DA:539,0
DA:541,0
DA:542,0
DA:544,0
DA:548,0
DA:549,0
DA:550,0
DA:551,0
DA:552,0
DA:553,0
DA:554,0
DA:555,0
DA:557,0
DA:558,0
DA:559,0
DA:560,0
DA:561,0
DA:562,0
DA:563,0
DA:565,0
DA:567,0
DA:568,0
DA:570,0
DA:573,0
DA:576,0
DA:577,0
DA:578,0
DA:579,0
DA:580,0
DA:581,0
DA:582,0
DA:584,0
DA:585,0
DA:586,0
DA:587,0
DA:588,0
DA:590,0
DA:591,0
DA:592,0
DA:595,0
DA:596,0
DA:598,0
DA:599,0
DA:600,0
DA:601,0
DA:602,0
DA:603,0
DA:604,0
DA:606,0
DA:607,0
DA:609,0
DA:610,0
DA:611,0
DA:612,0
DA:613,0
DA:614,0
DA:615,0
DA:616,0
DA:617,0
DA:618,0
DA:619,0
DA:620,0
DA:621,0
DA:623,0
DA:624,0
DA:625,0
DA:627,0
DA:628,0
DA:630,0
DA:631,0
DA:632,0
DA:633,0
DA:634,0
DA:635,0
DA:636,0
DA:637,0
DA:638,0
DA:640,0
DA:641,0
DA:643,0
DA:645,0
DA:646,0
DA:647,0
DA:648,0
DA:649,0
DA:650,0
DA:651,0
DA:652,0
DA:653,0
DA:655,0
DA:658,0
DA:659,0
DA:660,0
DA:661,0
DA:663,0
DA:665,0
DA:666,0
DA:668,0
DA:669,0
DA:670,0
DA:672,0
DA:674,0
DA:675,0
DA:676,0
DA:678,0
DA:680,0
DA:681,0
DA:682,0
DA:684,0
DA:686,0
DA:687,0
DA:688,0
DA:690,0
DA:693,0
DA:694,0
DA:695,0
DA:696,0
DA:698,0
DA:700,0
DA:701,0
DA:702,0
DA:703,0
DA:704,0
DA:706,0
DA:708,0
DA:709,0
DA:710,0
DA:711,0
DA:713,0
DA:715,0
DA:716,0
DA:719,0
DA:721,0
LF:325
LH:0
end_of_record
TN:
SF:/home/nn/redis/FalkorDB/deps/RediSearch/deps/snowball/src_c/stem_UTF_8_french.c
FN:1003,1048,r_verb_suffix
FN:1050,1117,r_residual_suffix
FN:1119,1135,r_un_double
FN:1137,1162,r_un_accent
FN:1164,1257,french_UTF_8_stem
FN:1259,1259,french_UTF_8_create_env
FN:1261,1261,french_UTF_8_close_env
FN:417,512,r_prelude
FN:514,576,r_mark_regions
FN:578,631,r_postlude
FN:633,636,r_RV
FN:638,641,r_R1
FN:643,646,r_R2
FN:648,976,r_standard_suffix
FN:978,1001,r_i_verb_suffix
FNDA:0,r_verb_suffix
FNDA:0,r_residual_suffix
FNDA:0,r_un_double
FNDA:0,r_un_accent
FNDA:0,french_UTF_8_stem
FNDA:0,french_UTF_8_create_env
FNDA:0,french_UTF_8_close_env
FNDA:0,r_prelude
FNDA:0,r_mark_regions
FNDA:0,r_postlude
FNDA:0,r_RV
FNDA:0,r_R1
FNDA:0,r_R2
FNDA:0,r_standard_suffix
FNDA:0,r_i_verb_suffix
FNF:15
FNH:0
DA:417,0
DA:418,0
DA:419,0
DA:420,0
DA:421,0
DA:422,0
DA:423,0
DA:424,0
DA:425,0
DA:426,0
DA:427,0
DA:428,0
DA:429,0
DA:430,0
DA:431,0
DA:433,0
DA:434,0
DA:435,0
DA:436,0
DA:437,0
DA:438,0
DA:439,0
DA:440,0
DA:441,0
DA:443,0
DA:444,0
DA:445,0
DA:446,0
DA:447,0
DA:448,0
DA:449,0
DA:450,0
DA:453,0
DA:454,0
DA:455,0
DA:456,0
DA:457,0
DA:458,0
DA:459,0
DA:460,0
DA:461,0
DA:463,0
DA:464,0
DA:465,0
DA:466,0
DA:467,0
DA:468,0
DA:469,0
DA:470,0
DA:472,0
DA:473,0
DA:474,0
DA:475,0
DA:476,0
DA:477,0
DA:478,0
DA:479,0
DA:480,0
DA:481,0
DA:483,0
DA:484,0
DA:485,0
DA:486,0
DA:487,0
DA:488,0
DA:489,0
DA:490,0
DA:491,0
DA:492,0
DA:493,0
DA:496,0
DA:497,0
DA:498,0
DA:499,0
DA:500,0
DA:501,0
DA:502,0
DA:503,0
DA:506,0
DA:507,0
DA:508,0
DA:509,0
DA:511,0
DA:514,0
DA:515,0
DA:516,0
DA:517,0
DA:518,0
DA:519,0
DA:520,0
DA:521,0
DA:522,0
DA:523,0
DA:524,0
DA:526,0
DA:527,0
DA:528,0
DA:529,0
DA:530,0
DA:531,0
DA:532,0
DA:533,0
DA:534,0
DA:535,0
DA:536,0
DA:539,0
DA:540,0
DA:541,0
DA:544,0
DA:545,0
DA:546,0
DA:547,0
DA:549,0
DA:551,0
DA:552,0
DA:553,0
DA:556,0
DA:557,0
DA:558,0
DA:560,0
DA:562,0
DA:563,0
DA:564,0
DA:567,0
DA:568,0
DA:569,0
DA:571,0
DA:572,0
DA:573,0
DA:575,0
DA:578,0
DA:580,0
DA:581,0
DA:582,0
DA:583,0
DA:584,0
DA:585,0
DA:586,0
DA:587,0
DA:588,0
DA:589,0
DA:590,0
DA:592,0
DA:593,0
DA:594,0
DA:595,0
DA:597,0
DA:598,0
DA:599,0
DA:600,0
DA:602,0
DA:603,0
DA:604,0
DA:605,0
DA:607,0
DA:608,0
DA:609,0
DA:610,0
DA:612,0
DA:613,0
DA:614,0
DA:615,0
DA:617,0
DA:618,0
DA:619,0
DA:620,0
DA:621,0
DA:623,0
DA:625,0
DA:626,0
DA:627,0
DA:628,0
DA:630,0
DA:633,0
DA:634,0
DA:635,0
DA:638,0
DA:639,0
DA:640,0
DA:643,0
DA:644,0
DA:645,0
DA:648,0
DA:650,0
DA:651,0
DA:652,0
DA:653,0
DA:654,0
DA:655,0
DA:656,0
DA:657,0
DA:659,0
DA:660,0
DA:662,0
DA:663,0
DA:664,0
DA:665,0
DA:667,0
DA:668,0
DA:670,0
DA:671,0
DA:672,0
DA:673,0
DA:674,0
DA:675,0
DA:676,0
DA:677,0
DA:679,0
DA:680,0
DA:682,0
DA:683,0
DA:684,0
DA:685,0
DA:686,0
DA:689,0
DA:690,0
DA:693,0
DA:694,0
DA:695,0
DA:696,0
DA:698,0
DA:699,0
DA:701,0
DA:702,0
DA:703,0
DA:704,0
DA:706,0
DA:707,0
DA:709,0
DA:710,0
DA:711,0
DA:712,0
DA:714,0
DA:715,0
DA:717,0
DA:718,0
DA:719,0
DA:720,0
DA:722,0
DA:723,0
DA:725,0
DA:726,0
DA:727,0
DA:728,0
DA:729,0
DA:731,0
DA:732,0
DA:733,0
DA:734,0
DA:736,0
DA:737,0
DA:739,0
DA:740,0
DA:741,0
DA:742,0
DA:743,0
DA:744,0
DA:746,0
DA:747,0
DA:749,0
DA:750,0
DA:751,0
DA:752,0
DA:753,0
DA:754,0
DA:756,0
DA:757,0
DA:759,0
DA:760,0
DA:761,0
DA:762,0
DA:763,0
DA:764,0
DA:766,0
DA:767,0
DA:770,0
DA:771,0
DA:772,0
DA:773,0
DA:774,0
DA:775,0
DA:777,0
DA:778,0
DA:780,0
DA:781,0
DA:782,0
DA:783,0
DA:784,0
DA:786,0
DA:787,0
DA:789,0
DA:791,0
DA:794,0
DA:795,0
DA:796,0
DA:797,0
DA:799,0
DA:800,0
DA:802,0
DA:803,0
DA:804,0
DA:805,0
DA:806,0
DA:807,0
DA:809,0
DA:810,0
DA:811,0
DA:812,0
DA:813,0
DA:815,0
DA:816,0
DA:818,0
DA:819,0
DA:820,0
DA:821,0
DA:822,0
DA:825,0
DA:826,0
DA:827,0
DA:828,0
DA:829,0
DA:830,0
DA:831,0
DA:833,0
DA:834,0
DA:836,0
DA:837,0
DA:838,0
DA:839,0
DA:840,0
DA:843,0
DA:844,0
DA:845,0
DA:846,0
DA:847,0
DA:848,0
DA:850,0
DA:851,0
DA:853,0
DA:855,0
DA:858,0
DA:859,0
DA:860,0
DA:861,0
DA:863,0
DA:864,0
DA:866,0
DA:867,0
DA:868,0
DA:869,0
DA:870,0
DA:871,0
DA:872,0
DA:874,0
DA:875,0
DA:877,0
DA:878,0
DA:879,0
DA:880,0
DA:881,0
DA:882,0
DA:883,0
DA:885,0
DA:886,0
DA:888,0
DA:889,0
DA:890,0
DA:891,0
DA:892,0
DA:895,0
DA:896,0
DA:899,0
DA:900,0
DA:901,0
DA:902,0
DA:904,0
DA:905,0
DA:906,0
DA:907,0
DA:909,0
DA:910,0
DA:912,0
DA:913,0
DA:914,0
DA:915,0
DA:916,0
DA:917,0
DA:919,0
DA:920,0
DA:922,0
DA:923,0
DA:924,0
DA:925,0
DA:926,0
DA:928,0
DA:929,0
DA:932,0
DA:933,0
DA:934,0
DA:935,0
DA:936,0
DA:938,0
DA:939,0
DA:940,0
DA:942,0
DA:943,0
DA:944,0
DA:945,0
DA:947,0
DA:948,0
DA:950,0
DA:952,0
DA:953,0
DA:954,0
DA:956,0
DA:957,0
DA:959,0
DA:961,0
DA:962,0
DA:963,0
DA:964,0
DA:965,0
DA:967,0
DA:969,0
DA:970,0
DA:972,0
DA:975,0
DA:978,0
DA:981,0
DA:982,0
DA:983,0
DA:984,0
DA:985,0
DA:986,0
DA:987,0
DA:988,0
DA:989,0
DA:990,0
DA:991,0
DA:992,0
DA:994,0
DA:995,0
DA:996,0
DA:998,0
DA:1000,0
DA:1003,0
DA:1007,0
DA:1008,0
DA:1009,0
DA:1010,0
DA:1011,0
DA:1012,0
DA:1013,0
DA:1014,0
DA:1015,0
DA:1016,0
DA:1017,0
DA:1019,0
DA:1020,0
DA:1022,0
DA:1023,0
DA:1024,0
DA:1025,0
DA:1027,0
DA:1028,0
DA:1029,0
DA:1030,0
DA:1032,0
DA:1033,0
DA:1034,0
DA:1035,0
DA:1036,0
DA:1037,0
DA:1038,0
DA:1040,0
DA:1043,0
DA:1045,0
DA:1047,0
DA:1050,0
DA:1052,0
DA:1053,0
DA:1054,0
DA:1055,0
DA:1056,0
DA:1057,0
DA:1058,0
DA:1059,0
DA:1060,0
DA:1061,0
DA:1062,0
DA:1063,0
DA:1065,0
DA:1066,0
DA:1068,0
DA:1069,0
DA:1071,0
DA:1076,0
DA:1077,0
DA:1078,0
DA:1079,0
DA:1080,0
DA:1081,0
DA:1082,0
DA:1083,0
DA:1084,0
DA:1085,0
DA:1086,0
DA:1087,0
DA:1089,0
DA:1090,0
DA:1091,0
DA:1092,0
DA:1093,0
DA:1094,0
DA:1095,0
DA:1096,0
DA:1098,0
DA:1099,0
DA:1100,0
DA:1102,0
DA:1103,0
DA:1104,0
DA:1105,0
DA:1107,0
DA:1108,0
DA:1109,0
DA:1110,0
DA:1112,0
DA:1114,0
DA:1116,0
DA:1119,0
DA:1120,0
DA:1121,0
DA:1122,0
DA:1123,0
DA:1125,0
DA:1126,0
DA:1127,0
DA:1128,0
DA:1130,0
DA:1131,0
DA:1132,0
DA:1134,0
DA:1137,0
DA:1138,0
DA:1140,0
DA:1141,0
DA:1142,0
DA:1143,0
DA:1144,0
DA:1146,0
DA:1148,0
DA:1149,0
DA:1150,0
DA:1151,0
DA:1152,0
DA:1153,0
DA:1154,0
DA:1156,0
DA:1157,0
DA:1158,0
DA:1159,0
DA:1161,0
DA:1164,0
DA:1165,0
DA:1166,0
DA:1167,0
DA:1169,0
DA:1172,0
DA:1173,0
DA:1175,0
DA:1177,0
DA:1178,0
DA:1179,0
DA:1180,0
DA:1181,0
DA:1182,0
DA:1183,0
DA:1185,0
DA:1186,0
DA:1187,0
DA:1188,0
DA:1189,0
DA:1190,0
DA:1192,0
DA:1193,0
DA:1194,0
DA:1195,0
DA:1196,0
DA:1197,0
DA:1200,0
DA:1201,0
DA:1202,0
DA:1203,0
DA:1204,0
DA:1205,0
DA:1206,0
DA:1207,0
DA:1208,0
DA:1209,0
DA:1211,0
DA:1212,0
DA:1213,0
DA:1214,0
DA:1215,0
DA:1216,0
DA:1217,0
DA:1220,0
DA:1221,0
DA:1225,0
DA:1226,0
DA:1227,0
DA:1228,0
DA:1229,0
DA:1230,0
DA:1233,0
DA:1234,0
DA:1235,0
DA:1237,0
DA:1238,0
DA:1239,0
DA:1241,0
DA:1243,0
DA:1244,0
DA:1245,0
DA:1247,0
DA:1249,0
DA:1250,0
DA:1251,0
DA:1252,0
DA:1254,0
DA:1256,0
DA:1259,0
DA:1261,0
LF:634
LH:0
end_of_record
TN:
SF:/home/nn/redis/FalkorDB/deps/RediSearch/deps/snowball/src_c/stem_UTF_8_german.c
FN:127,195,r_prelude
FN:197,235,r_mark_regions
FN:237,279,r_postlude
FN:281,284,r_R1
FN:286,289,r_R2
FN:291,466,r_standard_suffix
FN:468,495,german_UTF_8_stem
FN:497,497,german_UTF_8_create_env
FN:499,499,german_UTF_8_close_env
FNDA:0,r_prelude
FNDA:0,r_mark_regions
FNDA:0,r_postlude
FNDA:0,r_R1
FNDA:0,r_R2
FNDA:0,r_standard_suffix
FNDA:0,german_UTF_8_stem
FNDA:0,german_UTF_8_create_env
FNDA:0,german_UTF_8_close_env
FNF:9
FNH:0
DA:127,0
DA:128,0
DA:129,0
DA:130,0
DA:131,0
DA:132,0
DA:133,0
DA:134,0
DA:135,0
DA:136,0
DA:138,0
DA:139,0
DA:140,0
DA:141,0
DA:142,0
DA:143,0
DA:146,0
DA:147,0
DA:148,0
DA:149,0
DA:150,0
DA:152,0
DA:154,0
DA:155,0
DA:156,0
DA:157,0
DA:158,0
DA:159,0
DA:160,0
DA:161,0
DA:162,0
DA:163,0
DA:164,0
DA:165,0
DA:166,0
DA:168,0
DA:169,0
DA:170,0
DA:171,0
DA:172,0
DA:173,0
DA:174,0
DA:175,0
DA:176,0
DA:179,0
DA:180,0
DA:181,0
DA:182,0
DA:183,0
DA:184,0
DA:185,0
DA:186,0
DA:189,0
DA:190,0
DA:191,0
DA:192,0
DA:194,0
DA:197,0
DA:198,0
DA:199,0
DA:200,0
DA:201,0
DA:202,0
DA:203,0
DA:205,0
DA:206,0
DA:209,0
DA:210,0
DA:211,0
DA:214,0
DA:215,0
DA:216,0
DA:218,0
DA:220,0
DA:221,0
DA:222,0
DA:224,0
DA:225,0
DA:226,0
DA:229,0
DA:230,0
DA:231,0
DA:233,0
DA:234,0
DA:237,0
DA:239,0
DA:240,0
DA:241,0
DA:242,0
DA:243,0
DA:244,0
DA:245,0
DA:246,0
DA:247,0
DA:248,0
DA:250,0
DA:251,0
DA:252,0
DA:253,0
DA:255,0
DA:256,0
DA:257,0
DA:258,0
DA:260,0
DA:261,0
DA:262,0
DA:263,0
DA:265,0
DA:266,0
DA:267,0
DA:268,0
DA:269,0
DA:271,0
DA:273,0
DA:274,0
DA:275,0
DA:276,0
DA:278,0
DA:281,0
DA:282,0
DA:283,0
DA:286,0
DA:287,0
DA:288,0
DA:291,0
DA:293,0
DA:294,0
DA:295,0
DA:296,0
DA:297,0
DA:298,0
DA:299,0
DA:300,0
DA:301,0
DA:303,0
DA:304,0
DA:305,0
DA:306,0
DA:308,0
DA:309,0
DA:310,0
DA:311,0
DA:313,0
DA:314,0
DA:315,0
DA:316,0
DA:317,0
DA:318,0
DA:319,0
DA:320,0
DA:322,0
DA:325,0
DA:326,0
DA:327,0
DA:328,0
DA:329,0
DA:331,0
DA:333,0
DA:334,0
DA:336,0
DA:337,0
DA:338,0
DA:339,0
DA:340,0
DA:341,0
DA:342,0
DA:343,0
DA:344,0
DA:346,0
DA:347,0
DA:348,0
DA:349,0
DA:351,0
DA:352,0
DA:353,0
DA:354,0
DA:355,0
DA:356,0
DA:358,0
DA:359,0
DA:361,0
DA:363,0
DA:364,0
DA:366,0
DA:367,0
DA:368,0
DA:369,0
DA:370,0
DA:371,0
DA:372,0
DA:373,0
DA:374,0
DA:376,0
DA:377,0
DA:378,0
DA:379,0
DA:381,0
DA:382,0
DA:383,0
DA:384,0
DA:385,0
DA:386,0
DA:387,0
DA:388,0
DA:389,0
DA:390,0
DA:392,0
DA:393,0
DA:394,0
DA:396,0
DA:397,0
DA:399,0
DA:402,0
DA:403,0
DA:404,0
DA:405,0
DA:406,0
DA:407,0
DA:408,0
DA:409,0
DA:411,0
DA:412,0
DA:414,0
DA:415,0
DA:416,0
DA:417,0
DA:419,0
DA:420,0
DA:421,0
DA:422,0
DA:423,0
DA:424,0
DA:425,0
DA:426,0
DA:428,0
DA:429,0
DA:430,0
DA:431,0
DA:432,0
DA:434,0
DA:435,0
DA:437,0
DA:440,0
DA:441,0
DA:442,0
DA:443,0
DA:445,0
DA:446,0
DA:447,0
DA:448,0
DA:449,0
DA:450,0
DA:451,0
DA:452,0
DA:454,0
DA:455,0
DA:457,0
DA:460,0
DA:462,0
DA:463,0
DA:465,0
DA:468,0
DA:469,0
DA:470,0
DA:471,0
DA:473,0
DA:475,0
DA:476,0
DA:477,0
DA:479,0
DA:481,0
DA:484,0
DA:485,0
DA:487,0
DA:488,0
DA:489,0
DA:490,0
DA:492,0
DA:494,0
DA:497,0
DA:499,0
LF:281
LH:0
end_of_record
TN:
SF:/home/nn/redis/FalkorDB/deps/RediSearch/deps/snowball/src_c/stem_UTF_8_greek.c
FN:2359,2362,r_has_min_length
FN:2364,2506,r_tolower
FN:2508,2573,r_step1
FN:2575,2605,r_steps1
FN:2607,2623,r_steps2
FN:2625,2663,r_steps3
FN:2665,2682,r_steps4
FN:2684,2714,r_steps5
FN:2716,2808,r_steps6
FN:2810,2828,r_steps7
FN:2830,2868,r_steps8
FN:2870,2900,r_steps9
FN:2902,2918,r_steps10
FN:2920,2944,r_step2a
FN:2946,2962,r_step2b
FN:2964,2979,r_step2c
FN:2981,2998,r_step2d
FN:3000,3015,r_step3
FN:3017,3045,r_step4
FN:3047,3084,r_step5a
FN:3086,3134,r_step5b
FN:3136,3185,r_step5c
FN:3187,3216,r_step5d
FN:3218,3235,r_step5e
FN:3237,3272,r_step5f
FN:3274,3314,r_step5g
FN:3316,3344,r_step5h
FN:3346,3396,r_step5i
FN:3398,3415,r_step5j
FN:3417,3434,r_step5k
FN:3436,3453,r_step5l
FN:3455,3472,r_step5m
FN:3474,3493,r_step6
FN:3495,3504,r_step7
FN:3506,3713,greek_UTF_8_stem
FN:3715,3715,greek_UTF_8_create_env
FN:3717,3717,greek_UTF_8_close_env
FNDA:0,r_has_min_length
FNDA:0,r_tolower
FNDA:0,r_step1
FNDA:0,r_steps1
FNDA:0,r_steps2
FNDA:0,r_steps3
FNDA:0,r_steps4
FNDA:0,r_steps5
FNDA:0,r_steps6
FNDA:0,r_steps7
FNDA:0,r_steps8
FNDA:0,r_steps9
FNDA:0,r_steps10
FNDA:0,r_step2a
FNDA:0,r_step2b
FNDA:0,r_step2c
FNDA:0,r_step2d
FNDA:0,r_step3
FNDA:0,r_step4
FNDA:0,r_step5a
FNDA:0,r_step5b
FNDA:0,r_step5c
FNDA:0,r_step5d
FNDA:0,r_step5e
FNDA:0,r_step5f
FNDA:0,r_step5g
FNDA:0,r_step5h
FNDA:0,r_step5i
FNDA:0,r_step5j
FNDA:0,r_step5k
FNDA:0,r_step5l
FNDA:0,r_step5m
FNDA:0,r_step6
FNDA:0,r_step7
FNDA:0,greek_UTF_8_stem
FNDA:0,greek_UTF_8_create_env
FNDA:0,greek_UTF_8_close_env
FNF:37
FNH:0
DA:2359,0
DA:2360,0
DA:2361,0
DA:2364,0
DA:2366,0
DA:2367,0
DA:2368,0
DA:2369,0
DA:2370,0
DA:2371,0
DA:2372,0
DA:2373,0
DA:2374,0
DA:2375,0
DA:2377,0
DA:2378,0
DA:2379,0
DA:2380,0
DA:2382,0
DA:2383,0
DA:2384,0
DA:2385,0
DA:2387,0
DA:2388,0
DA:2389,0
DA:2390,0
DA:2392,0
DA:2393,0
DA:2394,0
DA:2395,0
DA:2397,0
DA:2398,0
DA:2399,0
DA:2400,0
DA:2402,0
DA:2403,0
DA:2404,0
DA:2405,0
DA:2407,0
DA:2408,0
DA:2409,0
DA:2410,0
DA:2412,0
DA:2413,0
DA:2414,0
DA:2415,0
DA:2417,0
DA:2418,0
DA:2419,0
DA:2420,0
DA:2422,0
DA:2423,0
DA:2424,0
DA:2425,0
DA:2427,0
DA:2428,0
DA:2429,0
DA:2430,0
DA:2432,0
DA:2433,0
DA:2434,0
DA:2435,0
DA:2437,0
DA:2438,0
DA:2439,0
DA:2440,0
DA:2442,0
DA:2443,0
DA:2444,0
DA:2445,0
DA:2447,0
DA:2448,0
DA:2449,0
DA:2450,0
DA:2452,0
DA:2453,0
DA:2454,0
DA:2455,0
DA:2457,0
DA:2458,0
DA:2459,0
DA:2460,0
DA:2462,0
DA:2463,0
DA:2464,0
DA:2465,0
DA:2467,0
DA:2468,0
DA:2469,0
DA:2470,0
DA:2472,0
DA:2473,0
DA:2474,0
DA:2475,0
DA:2477,0
DA:2478,0
DA:2479,0
DA:2480,0
DA:2482,0
DA:2483,0
DA:2484,0
DA:2485,0
DA:2487,0
DA:2488,0
DA:2489,0
DA:2490,0
DA:2492,0
DA:2493,0
DA:2494,0
DA:2495,0
DA:2496,0
DA:2498,0
DA:2500,0
DA:2501,0
DA:2502,0
DA:2503,0
DA:2505,0
DA:2508,0
DA:2510,0
DA:2511,0
DA:2512,0
DA:2513,0
DA:2514,0
DA:2515,0
DA:2516,0
DA:2517,0
DA:2519,0
DA:2520,0
DA:2521,0
DA:2522,0
DA:2524,0
DA:2525,0
DA:2526,0
DA:2527,0
DA:2529,0
DA:2530,0
DA:2531,0
DA:2532,0
DA:2534,0
DA:2535,0
DA:2536,0
DA:2537,0
DA:2539,0
DA:2540,0
DA:2541,0
DA:2542,0
DA:2544,0
DA:2545,0
DA:2546,0
DA:2547,0
DA:2549,0
DA:2550,0
DA:2551,0
DA:2552,0
DA:2554,0
DA:2555,0
DA:2556,0
DA:2557,0
DA:2559,0
DA:2560,0
DA:2561,0
DA:2562,0
DA:2564,0
DA:2565,0
DA:2566,0
DA:2567,0
DA:2569,0
DA:2571,0
DA:2572,0
DA:2575,0
DA:2576,0
DA:2577,0
DA:2578,0
DA:2579,0
DA:2580,0
DA:2582,0
DA:2583,0
DA:2584,0
DA:2585,0
DA:2586,0
DA:2587,0
DA:2588,0
DA:2589,0
DA:2590,0
DA:2592,0
DA:2593,0
DA:2594,0
DA:2595,0
DA:2596,0
DA:2597,0
DA:2598,0
DA:2599,0
DA:2600,0
DA:2603,0
DA:2604,0
DA:2607,0
DA:2608,0
DA:2609,0
DA:2610,0
DA:2611,0
DA:2612,0
DA:2614,0
DA:2615,0
DA:2616,0
DA:2617,0
DA:2618,0
DA:2619,0
DA:2620,0
DA:2622,0
DA:2625,0
DA:2626,0
DA:2627,0
DA:2628,0
DA:2629,0
DA:2630,0
DA:2632,0
DA:2633,0
DA:2634,0
DA:2635,0
DA:2636,0
DA:2637,0
DA:2639,0
DA:2640,0
DA:2641,0
DA:2642,0
DA:2643,0
DA:2644,0
DA:2645,0
DA:2646,0
DA:2647,0
DA:2648,0
DA:2650,0
DA:2651,0
DA:2652,0
DA:2653,0
DA:2654,0
DA:2655,0
DA:2656,0
DA:2657,0
DA:2658,0
DA:2661,0
DA:2662,0
DA:2665,0
DA:2666,0
DA:2667,0
DA:2668,0
DA:2669,0
DA:2670,0
DA:2672,0
DA:2673,0
DA:2674,0
DA:2675,0
DA:2676,0
DA:2677,0
DA:2678,0
DA:2679,0
DA:2681,0
DA:2684,0
DA:2685,0
DA:2686,0
DA:2687,0
DA:2688,0
DA:2689,0
DA:2691,0
DA:2692,0
DA:2693,0
DA:2694,0
DA:2695,0
DA:2696,0
DA:2697,0
DA:2698,0
DA:2699,0
DA:2701,0
DA:2702,0
DA:2703,0
DA:2704,0
DA:2705,0
DA:2706,0
DA:2707,0
DA:2708,0
DA:2709,0
DA:2712,0
DA:2713,0
DA:2716,0
DA:2718,0
DA:2719,0
DA:2720,0
DA:2721,0
DA:2722,0
DA:2724,0
DA:2725,0
DA:2726,0
DA:2727,0
DA:2728,0
DA:2729,0
DA:2730,0
DA:2731,0
DA:2732,0
DA:2734,0
DA:2735,0
DA:2736,0
DA:2737,0
DA:2738,0
DA:2739,0
DA:2740,0
DA:2741,0
DA:2742,0
DA:2743,0
DA:2745,0
DA:2746,0
DA:2747,0
DA:2748,0
DA:2749,0
DA:2750,0
DA:2751,0
DA:2752,0
DA:2753,0
DA:2754,0
DA:2755,0
DA:2756,0
DA:2758,0
DA:2759,0
DA:2760,0
DA:2761,0
DA:2763,0
DA:2764,0
DA:2765,0
DA:2766,0
DA:2768,0
DA:2769,0
DA:2770,0
DA:2771,0
DA:2773,0
DA:2774,0
DA:2775,0
DA:2776,0
DA:2778,0
DA:2779,0
DA:2780,0
DA:2781,0
DA:2783,0
DA:2784,0
DA:2785,0
DA:2786,0
DA:2788,0
DA:2789,0
DA:2790,0
DA:2791,0
DA:2793,0
DA:2794,0
DA:2795,0
DA:2796,0
DA:2798,0
DA:2799,0
DA:2800,0
DA:2801,0
DA:2803,0
DA:2806,0
DA:2807,0
DA:2810,0
DA:2811,0
DA:2812,0
DA:2813,0
DA:2814,0
DA:2815,0
DA:2816,0
DA:2818,0
DA:2819,0
DA:2820,0
DA:2821,0
DA:2822,0
DA:2823,0
DA:2824,0
DA:2825,0
DA:2827,0
DA:2830,0
DA:2831,0
DA:2832,0
DA:2833,0
DA:2834,0
DA:2835,0
DA:2837,0
DA:2838,0
DA:2839,0
DA:2840,0
DA:2841,0
DA:2842,0
DA:2843,0
DA:2844,0
DA:2846,0
DA:2847,0
DA:2848,0
DA:2849,0
DA:2850,0
DA:2851,0
DA:2852,0
DA:2853,0
DA:2854,0
DA:2856,0
DA:2857,0
DA:2858,0
DA:2859,0
DA:2860,0
DA:2861,0
DA:2862,0
DA:2863,0
DA:2866,0
DA:2867,0
DA:2870,0
DA:2871,0
DA:2872,0
DA:2873,0
DA:2874,0
DA:2875,0
DA:2876,0
DA:2878,0
DA:2879,0
DA:2880,0
DA:2881,0
DA:2882,0
DA:2883,0
DA:2884,0
DA:2885,0
DA:2887,0
DA:2888,0
DA:2889,0
DA:2890,0
DA:2891,0
DA:2892,0
DA:2893,0
DA:2894,0
DA:2895,0
DA:2898,0
DA:2899,0
DA:2902,0
DA:2903,0
DA:2904,0
DA:2905,0
DA:2906,0
DA:2907,0
DA:2909,0
DA:2910,0
DA:2911,0
DA:2912,0
DA:2913,0
DA:2914,0
DA:2915,0
DA:2917,0
DA:2920,0
DA:2921,0
DA:2922,0
DA:2923,0
DA:2924,0
DA:2925,0
DA:2926,0
DA:2928,0
DA:2929,0
DA:2930,0
DA:2931,0
DA:2932,0
DA:2933,0
DA:2934,0
DA:2937,0
DA:2938,0
DA:2939,0
DA:2941,0
DA:2943,0
DA:2946,0
DA:2947,0
DA:2948,0
DA:2949,0
DA:2950,0
DA:2951,0
DA:2952,0
DA:2954,0
DA:2955,0
DA:2956,0
DA:2957,0
DA:2958,0
DA:2959,0
DA:2961,0
DA:2964,0
DA:2965,0
DA:2966,0
DA:2967,0
DA:2968,0
DA:2969,0
DA:2970,0
DA:2972,0
DA:2973,0
DA:2974,0
DA:2975,0
DA:2976,0
DA:2978,0
DA:2981,0
DA:2982,0
DA:2983,0
DA:2984,0
DA:2985,0
DA:2986,0
DA:2987,0
DA:2989,0
DA:2990,0
DA:2991,0
DA:2992,0
DA:2993,0
DA:2994,0
DA:2995,0
DA:2997,0
DA:3000,0
DA:3001,0
DA:3002,0
DA:3003,0
DA:3004,0
DA:3005,0
DA:3007,0
DA:3008,0
DA:3009,0
DA:3010,0
DA:3011,0
DA:3012,0
DA:3014,0
DA:3017,0
DA:3018,0
DA:3019,0
DA:3020,0
DA:3021,0
DA:3022,0
DA:3024,0
DA:3025,0
DA:3026,0
DA:3027,0
DA:3028,0
DA:3029,0
DA:3030,0
DA:3032,0
DA:3033,0
DA:3034,0
DA:3035,0
DA:3037,0
DA:3038,0
DA:3039,0
DA:3040,0
DA:3041,0
DA:3042,0
DA:3044,0
DA:3047,0
DA:3048,0
DA:3049,0
DA:3050,0
DA:3051,0
DA:3052,0
DA:3054,0
DA:3055,0
DA:3057,0
DA:3058,0
DA:3059,0
DA:3060,0
DA:3061,0
DA:3062,0
DA:3063,0
DA:3065,0
DA:3066,0
DA:3067,0
DA:3069,0
DA:3070,0
DA:3071,0
DA:3072,0
DA:3073,0
DA:3075,0
DA:3076,0
DA:3077,0
DA:3078,0
DA:3079,0
DA:3080,0
DA:3081,0
DA:3083,0
DA:3086,0
DA:3087,0
DA:3088,0
DA:3089,0
DA:3090,0
DA:3091,0
DA:3092,0
DA:3093,0
DA:3095,0
DA:3096,0
DA:3097,0
DA:3098,0
DA:3099,0
DA:3100,0
DA:3101,0
DA:3102,0
DA:3104,0
DA:3105,0
DA:3107,0
DA:3108,0
DA:3109,0
DA:3110,0
DA:3111,0
DA:3113,0
DA:3114,0
DA:3115,0
DA:3116,0
DA:3117,0
DA:3118,0
DA:3119,0
DA:3121,0
DA:3122,0
DA:3123,0
DA:3124,0
DA:3126,0
DA:3127,0
DA:3128,0
DA:3129,0
DA:3130,0
DA:3131,0
DA:3133,0
DA:3136,0
DA:3137,0
DA:3138,0
DA:3139,0
DA:3140,0
DA:3141,0
DA:3142,0
DA:3143,0
DA:3145,0
DA:3146,0
DA:3147,0
DA:3149,0
DA:3150,0
DA:3151,0
DA:3152,0
DA:3153,0
DA:3155,0
DA:3156,0
DA:3157,0
DA:3158,0
DA:3159,0
DA:3160,0
DA:3161,0
DA:3163,0
DA:3164,0
DA:3165,0
DA:3166,0
DA:3167,0
DA:3168,0
DA:3169,0
DA:3170,0
DA:3172,0
DA:3173,0
DA:3174,0
DA:3175,0
DA:3177,0
DA:3178,0
DA:3179,0
DA:3180,0
DA:3181,0
DA:3182,0
DA:3184,0
DA:3187,0
DA:3188,0
DA:3189,0
DA:3190,0
DA:3191,0
DA:3192,0
DA:3193,0
DA:3195,0
DA:3196,0
DA:3197,0
DA:3198,0
DA:3199,0
DA:3200,0
DA:3201,0
DA:3202,0
DA:3204,0
DA:3205,0
DA:3206,0
DA:3207,0
DA:3208,0
DA:3209,0
DA:3210,0
DA:3211,0
DA:3214,0
DA:3215,0
DA:3218,0
DA:3219,0
DA:3220,0
DA:3221,0
DA:3222,0
DA:3223,0
DA:3224,0
DA:3226,0
DA:3227,0
DA:3228,0
DA:3229,0
DA:3230,0
DA:3231,0
DA:3232,0
DA:3234,0
DA:3237,0
DA:3238,0
DA:3239,0
DA:3240,0
DA:3241,0
DA:3242,0
DA:3243,0
DA:3245,0
DA:3246,0
DA:3247,0
DA:3248,0
DA:3249,0
DA:3250,0
DA:3251,0
DA:3252,0
DA:3254,0
DA:3255,0
DA:3257,0
DA:3258,0
DA:3259,0
DA:3260,0
DA:3261,0
DA:3263,0
DA:3264,0
DA:3265,0
DA:3266,0
DA:3267,0
DA:3268,0
DA:3269,0
DA:3271,0
DA:3274,0
DA:3275,0
DA:3276,0
DA:3277,0
DA:3278,0
DA:3279,0
DA:3280,0
DA:3282,0
DA:3283,0
DA:3284,0
DA:3286,0
DA:3287,0
DA:3288,0
DA:3289,0
DA:3290,0
DA:3292,0
DA:3293,0
DA:3294,0
DA:3295,0
DA:3296,0
DA:3297,0
DA:3298,0
DA:3300,0
DA:3301,0
DA:3302,0
DA:3303,0
DA:3304,0
DA:3305,0
DA:3306,0
DA:3307,0
DA:3308,0
DA:3309,0
DA:3312,0
DA:3313,0
DA:3316,0
DA:3317,0
DA:3318,0
DA:3319,0
DA:3320,0
DA:3321,0
DA:3323,0
DA:3324,0
DA:3325,0
DA:3326,0
DA:3327,0
DA:3328,0
DA:3329,0
DA:3331,0
DA:3332,0
DA:3333,0
DA:3334,0
DA:3335,0
DA:3336,0
DA:3337,0
DA:3338,0
DA:3339,0
DA:3342,0
DA:3343,0
DA:3346,0
DA:3347,0
DA:3348,0
DA:3349,0
DA:3350,0
DA:3351,0
DA:3353,0
DA:3354,0
DA:3355,0
DA:3356,0
DA:3357,0
DA:3358,0
DA:3359,0
DA:3361,0
DA:3362,0
DA:3363,0
DA:3364,0
DA:3365,0
DA:3366,0
DA:3367,0
DA:3368,0
DA:3369,0
DA:3370,0
DA:3371,0
DA:3373,0
DA:3374,0
DA:3375,0
DA:3376,0
DA:3377,0
DA:3378,0
DA:3380,0
DA:3381,0
DA:3382,0
DA:3383,0
DA:3384,0
DA:3385,0
DA:3386,0
DA:3387,0
DA:3388,0
DA:3391,0
DA:3394,0
DA:3395,0
DA:3398,0
DA:3399,0
DA:3400,0
DA:3401,0
DA:3402,0
DA:3403,0
DA:3405,0
DA:3406,0
DA:3407,0
DA:3408,0
DA:3409,0
DA:3410,0
DA:3411,0
DA:3412,0
DA:3414,0
DA:3417,0
DA:3418,0
DA:3419,0
DA:3420,0
DA:3421,0
DA:3422,0
DA:3423,0
DA:3425,0
DA:3426,0
DA:3427,0
DA:3428,0
DA:3429,0
DA:3430,0
DA:3431,0
DA:3433,0
DA:3436,0
DA:3437,0
DA:3438,0
DA:3439,0
DA:3440,0
DA:3441,0
DA:3442,0
DA:3444,0
DA:3445,0
DA:3446,0
DA:3447,0
DA:3448,0
DA:3449,0
DA:3450,0
DA:3452,0
DA:3455,0
DA:3456,0
DA:3457,0
DA:3458,0
DA:3459,0
DA:3460,0
DA:3461,0
DA:3463,0
DA:3464,0
DA:3465,0
DA:3466,0
DA:3467,0
DA:3468,0
DA:3469,0
DA:3471,0
DA:3474,0
DA:3475,0
DA:3476,0
DA:3477,0
DA:3478,0
DA:3479,0
DA:3480,0
DA:3482,0
DA:3483,0
DA:3485,0
DA:3486,0
DA:3487,0
DA:3488,0
DA:3489,0
DA:3490,0
DA:3492,0
DA:3495,0
DA:3496,0
DA:3497,0
DA:3498,0
DA:3499,0
DA:3500,0
DA:3501,0
DA:3503,0
DA:3506,0
DA:3507,0
DA:3509,0
DA:3510,0
DA:3511,0
DA:3513,0
DA:3515,0
DA:3516,0
DA:3518,0
DA:3519,0
DA:3520,0
DA:3521,0
DA:3523,0
DA:3525,0
DA:3526,0
DA:3527,0
DA:3529,0
DA:3531,0
DA:3532,0
DA:3533,0
DA:3535,0
DA:3537,0
DA:3538,0
DA:3539,0
DA:3541,0
DA:3543,0
DA:3544,0
DA:3545,0
DA:3547,0
DA:3549,0
DA:3550,0
DA:3551,0
DA:3553,0
DA:3555,0
DA:3556,0
DA:3557,0
DA:3559,0
DA:3561,0
DA:3562,0
DA:3563,0
DA:3565,0
DA:3567,0
DA:3568,0
DA:3569,0
DA:3571,0
DA:3573,0
DA:3574,0
DA:3575,0
DA:3577,0
DA:3579,0
DA:3580,0
DA:3581,0
DA:3583,0
DA:3585,0
DA:3586,0
DA:3587,0
DA:3589,0
DA:3591,0
DA:3592,0
DA:3593,0
DA:3595,0
DA:3597,0
DA:3598,0
DA:3599,0
DA:3601,0
DA:3603,0
DA:3604,0
DA:3605,0
DA:3607,0
DA:3609,0
DA:3610,0
DA:3611,0
DA:3613,0
DA:3615,0
DA:3616,0
DA:3617,0
DA:3619,0
DA:3621,0
DA:3622,0
DA:3623,0
DA:3625,0
DA:3627,0
DA:3628,0
DA:3629,0
DA:3631,0
DA:3633,0
DA:3634,0
DA:3635,0
DA:3637,0
DA:3639,0
DA:3640,0
DA:3641,0
DA:3643,0
DA:3645,0
DA:3646,0
DA:3647,0
DA:3649,0
DA:3651,0
DA:3652,0
DA:3653,0
DA:3655,0
DA:3657,0
DA:3658,0
DA:3659,0
DA:3661,0
DA:3663,0
DA:3664,0
DA:3665,0
DA:3667,0
DA:3669,0
DA:3670,0
DA:3671,0
DA:3673,0
DA:3675,0
DA:3676,0
DA:3677,0
DA:3679,0
DA:3681,0
DA:3682,0
DA:3683,0
DA:3685,0
DA:3687,0
DA:3688,0
DA:3689,0
DA:3691,0
DA:3693,0
DA:3694,0
DA:3695,0
DA:3697,0
DA:3699,0
DA:3700,0
DA:3701,0
DA:3703,0
DA:3705,0
DA:3706,0
DA:3707,0
DA:3709,0
DA:3711,0
DA:3712,0
DA:3715,0
DA:3717,0
LF:1055
LH:0
end_of_record
TN:
SF:/home/nn/redis/FalkorDB/deps/RediSearch/deps/snowball/src_c/stem_UTF_8_hindi.c
FN:297,300,r_CONSONANT
FN:302,327,hindi_UTF_8_stem
FN:329,329,hindi_UTF_8_create_env
FN:331,331,hindi_UTF_8_close_env
FNDA:0,r_CONSONANT
FNDA:0,hindi_UTF_8_stem
FNDA:0,hindi_UTF_8_create_env
FNDA:0,hindi_UTF_8_close_env
FNF:4
FNH:0
DA:297,0
DA:298,0
DA:299,0
DA:302,0
DA:303,0
DA:304,0
DA:305,0
DA:306,0
DA:308,0
DA:309,0
DA:311,0
DA:315,0
DA:316,0
DA:317,0
DA:318,0
DA:319,0
DA:320,0
DA:322,0
DA:323,0
DA:325,0
DA:326,0
DA:329,0
DA:331,0
LF:23
LH:0
end_of_record
TN:
SF:/home/nn/redis/FalkorDB/deps/RediSearch/deps/snowball/src_c/stem_UTF_8_hungarian.c
FN:479,510,r_mark_regions
FN:512,515,r_R1
FN:517,540,r_v_ending
FN:542,549,r_double
FN:551,566,r_undouble
FN:568,586,r_instrum
FN:588,602,r_case
FN:604,627,r_case_special
FN:629,657,r_case_other
FN:659,677,r_factive
FN:679,707,r_plural
FN:709,737,r_owned
FN:739,766,r_sing_owner
FN:768,796,r_plur_owner
FN:798,863,hungarian_UTF_8_stem
FN:865,865,hungarian_UTF_8_create_env
FN:867,867,hungarian_UTF_8_close_env
FNDA:0,r_mark_regions
FNDA:0,r_R1
FNDA:0,r_v_ending
FNDA:0,r_double
FNDA:0,r_undouble
FNDA:0,r_instrum
FNDA:0,r_case
FNDA:0,r_case_special
FNDA:0,r_case_other
FNDA:0,r_factive
FNDA:0,r_plural
FNDA:0,r_owned
FNDA:0,r_sing_owner
FNDA:0,r_plur_owner
FNDA:0,hungarian_UTF_8_stem
FNDA:0,hungarian_UTF_8_create_env
FNDA:0,hungarian_UTF_8_close_env
FNF:17
FNH:0
DA:479,0
DA:480,0
DA:481,0
DA:482,0
DA:483,0
DA:484,0
DA:485,0
DA:486,0
DA:487,0
DA:488,0
DA:489,0
DA:490,0
DA:491,0
DA:492,0
DA:495,0
DA:496,0
DA:497,0
DA:498,0
DA:499,0
DA:500,0
DA:502,0
DA:503,0
DA:504,0
DA:506,0
DA:508,0
DA:509,0
DA:512,0
DA:513,0
DA:514,0
DA:517,0
DA:519,0
DA:520,0
DA:521,0
DA:522,0
DA:523,0
DA:524,0
DA:525,0
DA:527,0
DA:528,0
DA:529,0
DA:530,0
DA:532,0
DA:533,0
DA:534,0
DA:535,0
DA:537,0
DA:539,0
DA:542,0
DA:543,0
DA:544,0
DA:545,0
DA:546,0
DA:548,0
DA:551,0
DA:552,0
DA:553,0
DA:554,0
DA:556,0
DA:557,0
DA:558,0
DA:559,0
DA:561,0
DA:562,0
DA:563,0
DA:565,0
DA:568,0
DA:569,0
DA:570,0
DA:571,0
DA:572,0
DA:573,0
DA:574,0
DA:576,0
DA:577,0
DA:579,0
DA:580,0
DA:582,0
DA:583,0
DA:585,0
DA:588,0
DA:589,0
DA:590,0
DA:591,0
DA:592,0
DA:593,0
DA:595,0
DA:596,0
DA:598,0
DA:599,0
DA:601,0
DA:604,0
DA:606,0
DA:607,0
DA:608,0
DA:609,0
DA:610,0
DA:611,0
DA:612,0
DA:614,0
DA:615,0
DA:616,0
DA:617,0
DA:619,0
DA:620,0
DA:621,0
DA:622,0
DA:624,0
DA:626,0
DA:629,0
DA:631,0
DA:632,0
DA:633,0
DA:634,0
DA:635,0
DA:636,0
DA:637,0
DA:639,0
DA:640,0
DA:641,0
DA:642,0
DA:644,0
DA:645,0
DA:646,0
DA:647,0
DA:649,0
DA:650,0
DA:651,0
DA:652,0
DA:654,0
DA:656,0
DA:659,0
DA:660,0
DA:661,0
DA:662,0
DA:663,0
DA:664,0
DA:665,0
DA:667,0
DA:668,0
DA:670,0
DA:671,0
DA:673,0
DA:674,0
DA:676,0
DA:679,0
DA:681,0
DA:682,0
DA:683,0
DA:684,0
DA:685,0
DA:686,0
DA:687,0
DA:689,0
DA:690,0
DA:691,0
DA:692,0
DA:694,0
DA:695,0
DA:696,0
DA:697,0
DA:699,0
DA:700,0
DA:701,0
DA:702,0
DA:704,0
DA:706,0
DA:709,0
DA:711,0
DA:712,0
DA:713,0
DA:714,0
DA:715,0
DA:716,0
DA:717,0
DA:719,0
DA:720,0
DA:721,0
DA:722,0
DA:724,0
DA:725,0
DA:726,0
DA:727,0
DA:729,0
DA:730,0
DA:731,0
DA:732,0
DA:734,0
DA:736,0
DA:739,0
DA:741,0
DA:742,0
DA:743,0
DA:744,0
DA:745,0
DA:746,0
DA:748,0
DA:749,0
DA:750,0
DA:751,0
DA:753,0
DA:754,0
DA:755,0
DA:756,0
DA:758,0
DA:759,0
DA:760,0
DA:761,0
DA:763,0
DA:765,0
DA:768,0
DA:770,0
DA:771,0
DA:772,0
DA:773,0
DA:774,0
DA:775,0
DA:776,0
DA:778,0
DA:779,0
DA:780,0
DA:781,0
DA:783,0
DA:784,0
DA:785,0
DA:786,0
DA:788,0
DA:789,0
DA:790,0
DA:791,0
DA:793,0
DA:795,0
DA:798,0
DA:799,0
DA:800,0
DA:801,0
DA:803,0
DA:805,0
DA:807,0
DA:808,0
DA:809,0
DA:811,0
DA:813,0
DA:814,0
DA:815,0
DA:817,0
DA:819,0
DA:820,0
DA:821,0
DA:823,0
DA:825,0
DA:826,0
DA:827,0
DA:829,0
DA:831,0
DA:832,0
DA:833,0
DA:835,0
DA:837,0
DA:838,0
DA:839,0
DA:841,0
DA:843,0
DA:844,0
DA:845,0
DA:847,0
DA:849,0
DA:850,0
DA:851,0
DA:853,0
DA:855,0
DA:856,0
DA:857,0
DA:859,0
DA:861,0
DA:862,0
DA:865,0
DA:867,0
LF:277
LH:0
end_of_record
TN:
SF:/home/nn/redis/FalkorDB/deps/RediSearch/deps/snowball/src_c/stem_UTF_8_indonesian.c
FN:123,133,r_remove_particle
FN:135,145,r_remove_possessive_pronoun
FN:147,152,r_SUFFIX_KAN_OK
FN:154,157,r_SUFFIX_AN_OK
FN:159,169,r_SUFFIX_I_OK
FN:171,181,r_remove_suffix
FN:183,186,r_VOWEL
FN:188,192,r_KER
FN:194,272,r_remove_first_order_prefix
FN:274,311,r_remove_second_order_prefix
FN:313,402,indonesian_UTF_8_stem
FN:404,404,indonesian_UTF_8_create_env
FN:406,406,indonesian_UTF_8_close_env
FNDA:0,r_remove_particle
FNDA:0,r_remove_possessive_pronoun
FNDA:0,r_SUFFIX_KAN_OK
FNDA:0,r_SUFFIX_AN_OK
FNDA:0,r_SUFFIX_I_OK
FNDA:0,r_remove_suffix
FNDA:0,r_VOWEL
FNDA:0,r_KER
FNDA:0,r_remove_first_order_prefix
FNDA:0,r_remove_second_order_prefix
FNDA:0,indonesian_UTF_8_stem
FNDA:0,indonesian_UTF_8_create_env
FNDA:0,indonesian_UTF_8_close_env
FNF:13
FNH:0
DA:123,0
DA:124,0
DA:125,0
DA:126,0
DA:127,0
DA:128,0
DA:129,0
DA:131,0
DA:132,0
DA:135,0
DA:136,0
DA:137,0
DA:138,0
DA:139,0
DA:140,0
DA:141,0
DA:143,0
DA:144,0
DA:147,0
DA:149,0
DA:150,0
DA:151,0
DA:154,0
DA:155,0
DA:156,0
DA:159,0
DA:160,0
DA:161,0
DA:162,0
DA:163,0
DA:164,0
DA:165,0
DA:166,0
DA:168,0
DA:171,0
DA:172,0
DA:173,0
DA:174,0
DA:175,0
DA:176,0
DA:177,0
DA:179,0
DA:180,0
DA:183,0
DA:184,0
DA:185,0
DA:188,0
DA:189,0
DA:190,0
DA:191,0
DA:194,0
DA:196,0
DA:197,0
DA:198,0
DA:199,0
DA:200,0
DA:201,0
DA:202,0
DA:203,0
DA:204,0
DA:206,0
DA:207,0
DA:208,0
DA:209,0
DA:210,0
DA:211,0
DA:213,0
DA:214,0
DA:215,0
DA:216,0
DA:217,0
DA:218,0
DA:219,0
DA:221,0
DA:222,0
DA:223,0
DA:224,0
DA:225,0
DA:226,0
DA:228,0
DA:229,0
DA:230,0
DA:231,0
DA:232,0
DA:233,0
DA:234,0
DA:235,0
DA:236,0
DA:237,0
DA:238,0
DA:241,0
DA:242,0
DA:243,0
DA:244,0
DA:245,0
DA:248,0
DA:249,0
DA:250,0
DA:251,0
DA:252,0
DA:253,0
DA:254,0
DA:255,0
DA:256,0
DA:257,0
DA:258,0
DA:261,0
DA:262,0
DA:263,0
DA:264,0
DA:265,0
DA:268,0
DA:269,0
DA:271,0
DA:274,0
DA:276,0
DA:277,0
DA:278,0
DA:279,0
DA:280,0
DA:281,0
DA:282,0
DA:283,0
DA:284,0
DA:286,0
DA:287,0
DA:288,0
DA:289,0
DA:290,0
DA:291,0
DA:293,0
DA:294,0
DA:295,0
DA:296,0
DA:297,0
DA:299,0
DA:300,0
DA:301,0
DA:302,0
DA:303,0
DA:304,0
DA:306,0
DA:307,0
DA:308,0
DA:310,0
DA:313,0
DA:314,0
DA:315,0
DA:316,0
DA:317,0
DA:319,0
DA:320,0
DA:321,0
DA:323,0
DA:324,0
DA:325,0
DA:326,0
DA:327,0
DA:329,0
DA:331,0
DA:332,0
DA:333,0
DA:335,0
DA:336,0
DA:337,0
DA:339,0
DA:341,0
DA:342,0
DA:343,0
DA:344,0
DA:346,0
DA:348,0
DA:349,0
DA:350,0
DA:351,0
DA:352,0
DA:353,0
DA:354,0
DA:356,0
DA:357,0
DA:358,0
DA:359,0
DA:361,0
DA:362,0
DA:363,0
DA:365,0
DA:366,0
DA:368,0
DA:369,0
DA:370,0
DA:371,0
DA:373,0
DA:374,0
DA:376,0
DA:378,0
DA:379,0
DA:380,0
DA:381,0
DA:382,0
DA:383,0
DA:385,0
DA:387,0
DA:388,0
DA:389,0
DA:391,0
DA:392,0
DA:393,0
DA:395,0
DA:396,0
DA:397,0
DA:400,0
DA:401,0
DA:404,0
DA:406,0
LF:214
LH:0
end_of_record
TN:
SF:/home/nn/redis/FalkorDB/deps/RediSearch/deps/snowball/src_c/stem_UTF_8_irish.c
FN:223,264,r_mark_regions
FN:266,325,r_initial_morph
FN:327,330,r_RV
FN:332,335,r_R1
FN:337,340,r_R2
FN:342,367,r_noun_sfx
FN:369,411,r_deriv
FN:413,439,r_verb_sfx
FN:441,474,irish_UTF_8_stem
FN:476,476,irish_UTF_8_create_env
FN:478,478,irish_UTF_8_close_env
FNDA:0,r_mark_regions
FNDA:0,r_initial_morph
FNDA:0,r_RV
FNDA:0,r_R1
FNDA:0,r_R2
FNDA:0,r_noun_sfx
FNDA:0,r_deriv
FNDA:0,r_verb_sfx
FNDA:0,irish_UTF_8_stem
FNDA:0,irish_UTF_8_create_env
FNDA:0,irish_UTF_8_close_env
FNF:11
FNH:0
DA:223,0
DA:224,0
DA:225,0
DA:226,0
DA:227,0
DA:229,0
DA:230,0
DA:231,0
DA:233,0
DA:234,0
DA:235,0
DA:237,0
DA:239,0
DA:240,0
DA:241,0
DA:244,0
DA:245,0
DA:246,0
DA:248,0
DA:250,0
DA:251,0
DA:252,0
DA:255,0
DA:256,0
DA:257,0
DA:259,0
DA:260,0
DA:261,0
DA:263,0
DA:266,0
DA:268,0
DA:269,0
DA:270,0
DA:271,0
DA:272,0
DA:273,0
DA:274,0
DA:275,0
DA:277,0
DA:278,0
DA:279,0
DA:280,0
DA:282,0
DA:283,0
DA:284,0
DA:285,0
DA:287,0
DA:288,0
DA:289,0
DA:290,0
DA:292,0
DA:293,0
DA:294,0
DA:295,0
DA:297,0
DA:298,0
DA:299,0
DA:300,0
DA:302,0
DA:303,0
DA:304,0
DA:305,0
DA:307,0
DA:308,0
DA:309,0
DA:310,0
DA:312,0
DA:313,0
DA:314,0
DA:315,0
DA:317,0
DA:318,0
DA:319,0
DA:320,0
DA:322,0
DA:324,0
DA:327,0
DA:328,0
DA:329,0
DA:332,0
DA:333,0
DA:334,0
DA:337,0
DA:338,0
DA:339,0
DA:342,0
DA:344,0
DA:345,0
DA:346,0
DA:347,0
DA:348,0
DA:349,0
DA:350,0
DA:351,0
DA:353,0
DA:354,0
DA:356,0
DA:357,0
DA:358,0
DA:359,0
DA:361,0
DA:362,0
DA:364,0
DA:366,0
DA:369,0
DA:371,0
DA:372,0
DA:373,0
DA:374,0
DA:375,0
DA:376,0
DA:377,0
DA:378,0
DA:380,0
DA:381,0
DA:383,0
DA:384,0
DA:385,0
DA:386,0
DA:388,0
DA:389,0
DA:390,0
DA:391,0
DA:393,0
DA:394,0
DA:395,0
DA:396,0
DA:398,0
DA:399,0
DA:400,0
DA:401,0
DA:403,0
DA:404,0
DA:405,0
DA:406,0
DA:408,0
DA:410,0
DA:413,0
DA:415,0
DA:416,0
DA:417,0
DA:418,0
DA:419,0
DA:420,0
DA:421,0
DA:422,0
DA:423,0
DA:425,0
DA:426,0
DA:428,0
DA:429,0
DA:430,0
DA:431,0
DA:433,0
DA:434,0
DA:436,0
DA:438,0
DA:441,0
DA:442,0
DA:443,0
DA:444,0
DA:446,0
DA:449,0
DA:450,0
DA:452,0
DA:454,0
DA:455,0
DA:456,0
DA:458,0
DA:460,0
DA:461,0
DA:462,0
DA:464,0
DA:466,0
DA:467,0
DA:468,0
DA:470,0
DA:472,0
DA:473,0
DA:476,0
DA:478,0
LF:181
LH:0
end_of_record
TN:
SF:/home/nn/redis/FalkorDB/deps/RediSearch/deps/snowball/src_c/stem_UTF_8_italian.c
FN:1027,1027,italian_UTF_8_create_env
FN:1029,1029,italian_UTF_8_close_env
FN:491,586,r_prelude
FN:588,668,r_mark_regions
FN:670,703,r_postlude
FN:705,708,r_RV
FN:710,713,r_R1
FN:715,718,r_R2
FN:720,745,r_attached_pronoun
FN:747,911,r_standard_suffix
FN:913,927,r_verb_suffix
FN:929,972,r_vowel_suffix
FN:974,1025,italian_UTF_8_stem
FNDA:0,italian_UTF_8_create_env
FNDA:0,italian_UTF_8_close_env
FNDA:0,r_prelude
FNDA:0,r_mark_regions
FNDA:0,r_postlude
FNDA:0,r_RV
FNDA:0,r_R1
FNDA:0,r_R2
FNDA:0,r_attached_pronoun
FNDA:0,r_standard_suffix
FNDA:0,r_verb_suffix
FNDA:0,r_vowel_suffix
FNDA:0,italian_UTF_8_stem
FNF:13
FNH:0
DA:491,0
DA:493,0
DA:494,0
DA:495,0
DA:496,0
DA:497,0
DA:498,0
DA:499,0
DA:500,0
DA:501,0
DA:502,0
DA:503,0
DA:505,0
DA:506,0
DA:507,0
DA:508,0
DA:510,0
DA:511,0
DA:512,0
DA:513,0
DA:515,0
DA:516,0
DA:517,0
DA:518,0
DA:520,0
DA:521,0
DA:522,0
DA:523,0
DA:525,0
DA:526,0
DA:527,0
DA:528,0
DA:530,0
DA:531,0
DA:532,0
DA:533,0
DA:534,0
DA:536,0
DA:538,0
DA:539,0
DA:540,0
DA:541,0
DA:543,0
DA:545,0
DA:546,0
DA:547,0
DA:548,0
DA:549,0
DA:550,0
DA:551,0
DA:552,0
DA:553,0
DA:554,0
DA:555,0
DA:556,0
DA:557,0
DA:559,0
DA:560,0
DA:561,0
DA:562,0
DA:563,0
DA:564,0
DA:565,0
DA:566,0
DA:567,0
DA:570,0
DA:571,0
DA:572,0
DA:573,0
DA:574,0
DA:575,0
DA:576,0
DA:577,0
DA:580,0
DA:581,0
DA:582,0
DA:583,0
DA:585,0
DA:588,0
DA:589,0
DA:590,0
DA:591,0
DA:592,0
DA:593,0
DA:594,0
DA:595,0
DA:596,0
DA:598,0
DA:599,0
DA:600,0
DA:602,0
DA:603,0
DA:604,0
DA:605,0
DA:607,0
DA:608,0
DA:609,0
DA:612,0
DA:613,0
DA:614,0
DA:615,0
DA:616,0
DA:617,0
DA:618,0
DA:620,0
DA:621,0
DA:622,0
DA:624,0
DA:625,0
DA:626,0
DA:627,0
DA:628,0
DA:629,0
DA:630,0
DA:633,0
DA:636,0
DA:637,0
DA:638,0
DA:639,0
DA:641,0
DA:643,0
DA:644,0
DA:645,0
DA:648,0
DA:649,0
DA:650,0
DA:652,0
DA:654,0
DA:655,0
DA:656,0
DA:659,0
DA:660,0
DA:661,0
DA:663,0
DA:664,0
DA:665,0
DA:667,0
DA:670,0
DA:672,0
DA:673,0
DA:674,0
DA:675,0
DA:676,0
DA:677,0
DA:678,0
DA:679,0
DA:680,0
DA:681,0
DA:682,0
DA:684,0
DA:685,0
DA:686,0
DA:687,0
DA:689,0
DA:690,0
DA:691,0
DA:692,0
DA:693,0
DA:695,0
DA:697,0
DA:698,0
DA:699,0
DA:700,0
DA:702,0
DA:705,0
DA:706,0
DA:707,0
DA:710,0
DA:711,0
DA:712,0
DA:715,0
DA:716,0
DA:717,0
DA:720,0
DA:722,0
DA:723,0
DA:724,0
DA:725,0
DA:726,0
DA:727,0
DA:728,0
DA:729,0
DA:730,0
DA:732,0
DA:733,0
DA:734,0
DA:735,0
DA:737,0
DA:738,0
DA:739,0
DA:740,0
DA:742,0
DA:744,0
DA:747,0
DA:749,0
DA:750,0
DA:751,0
DA:752,0
DA:753,0
DA:754,0
DA:755,0
DA:756,0
DA:758,0
DA:759,0
DA:761,0
DA:762,0
DA:763,0
DA:764,0
DA:766,0
DA:767,0
DA:769,0
DA:770,0
DA:771,0
DA:772,0
DA:773,0
DA:774,0
DA:775,0
DA:777,0
DA:778,0
DA:780,0
DA:783,0
DA:784,0
DA:785,0
DA:786,0
DA:788,0
DA:789,0
DA:791,0
DA:792,0
DA:793,0
DA:794,0
DA:796,0
DA:797,0
DA:799,0
DA:800,0
DA:801,0
DA:802,0
DA:804,0
DA:805,0
DA:807,0
DA:808,0
DA:809,0
DA:810,0
DA:812,0
DA:813,0
DA:815,0
DA:816,0
DA:817,0
DA:818,0
DA:820,0
DA:821,0
DA:823,0
DA:824,0
DA:825,0
DA:826,0
DA:827,0
DA:828,0
DA:829,0
DA:830,0
DA:831,0
DA:833,0
DA:834,0
DA:837,0
DA:838,0
DA:839,0
DA:840,0
DA:841,0
DA:842,0
DA:843,0
DA:845,0
DA:846,0
DA:848,0
DA:850,0
DA:853,0
DA:854,0
DA:855,0
DA:856,0
DA:858,0
DA:859,0
DA:861,0
DA:862,0
DA:863,0
DA:864,0
DA:865,0
DA:866,0
DA:867,0
DA:868,0
DA:870,0
DA:871,0
DA:873,0
DA:876,0
DA:877,0
DA:878,0
DA:879,0
DA:881,0
DA:882,0
DA:884,0
DA:885,0
DA:886,0
DA:887,0
DA:888,0
DA:889,0
DA:890,0
DA:892,0
DA:893,0
DA:895,0
DA:896,0
DA:897,0
DA:898,0
DA:899,0
DA:900,0
DA:902,0
DA:903,0
DA:905,0
DA:908,0
DA:910,0
DA:913,0
DA:916,0
DA:917,0
DA:918,0
DA:919,0
DA:920,0
DA:921,0
DA:922,0
DA:924,0
DA:926,0
DA:929,0
DA:930,0
DA:931,0
DA:932,0
DA:933,0
DA:934,0
DA:935,0
DA:936,0
DA:938,0
DA:939,0
DA:941,0
DA:942,0
DA:943,0
DA:944,0
DA:945,0
DA:946,0
DA:947,0
DA:949,0
DA:950,0
DA:952,0
DA:955,0
DA:956,0
DA:957,0
DA:958,0
DA:959,0
DA:960,0
DA:961,0
DA:962,0
DA:963,0
DA:965,0
DA:966,0
DA:968,0
DA:971,0
DA:974,0
DA:975,0
DA:976,0
DA:977,0
DA:979,0
DA:982,0
DA:983,0
DA:985,0
DA:987,0
DA:988,0
DA:989,0
DA:991,0
DA:993,0
DA:994,0
DA:995,0
DA:996,0
DA:997,0
DA:999,0
DA:1000,0
DA:1001,0
DA:1002,0
DA:1003,0
DA:1004,0
DA:1007,0
DA:1008,0
DA:1009,0
DA:1011,0
DA:1012,0
DA:1013,0
DA:1015,0
DA:1017,0
DA:1018,0
DA:1019,0
DA:1020,0
DA:1022,0
DA:1024,0
DA:1027,0
DA:1029,0
LF:396
LH:0
end_of_record
TN:
SF:/home/nn/redis/FalkorDB/deps/RediSearch/deps/snowball/src_c/stem_UTF_8_lithuanian.c
FN:629,632,r_R1
FN:634,651,r_step1
FN:653,674,r_step2
FN:676,726,r_fix_conflicts
FN:728,748,r_fix_chdz
FN:750,759,r_fix_gd
FN:761,832,lithuanian_UTF_8_stem
FN:834,834,lithuanian_UTF_8_create_env
FN:836,836,lithuanian_UTF_8_close_env
FNDA:0,r_R1
FNDA:0,r_step1
FNDA:0,r_step2
FNDA:0,r_fix_conflicts
FNDA:0,r_fix_chdz
FNDA:0,r_fix_gd
FNDA:0,lithuanian_UTF_8_stem
FNDA:0,lithuanian_UTF_8_create_env
FNDA:0,lithuanian_UTF_8_close_env
FNF:9
FNH:0
DA:629,0
DA:630,0
DA:631,0
DA:634,0
DA:637,0
DA:638,0
DA:639,0
DA:640,0
DA:641,0
DA:642,0
DA:644,0
DA:645,0
DA:647,0
DA:648,0
DA:650,0
DA:653,0
DA:654,0
DA:655,0
DA:658,0
DA:659,0
DA:660,0
DA:661,0
DA:662,0
DA:663,0
DA:665,0
DA:666,0
DA:668,0
DA:669,0
DA:670,0
DA:671,0
DA:673,0
DA:676,0
DA:678,0
DA:679,0
DA:680,0
DA:681,0
DA:682,0
DA:683,0
DA:684,0
DA:685,0
DA:686,0
DA:688,0
DA:689,0
DA:690,0
DA:691,0
DA:693,0
DA:694,0
DA:695,0
DA:696,0
DA:698,0
DA:699,0
DA:700,0
DA:701,0
DA:703,0
DA:704,0
DA:705,0
DA:706,0
DA:708,0
DA:709,0
DA:710,0
DA:711,0
DA:713,0
DA:714,0
DA:715,0
DA:716,0
DA:718,0
DA:719,0
DA:720,0
DA:721,0
DA:723,0
DA:725,0
DA:728,0
DA:730,0
DA:731,0
DA:732,0
DA:733,0
DA:734,0
DA:735,0
DA:736,0
DA:737,0
DA:738,0
DA:740,0
DA:741,0
DA:742,0
DA:743,0
DA:745,0
DA:747,0
DA:750,0
DA:751,0
DA:752,0
DA:753,0
DA:754,0
DA:755,0
DA:756,0
DA:758,0
DA:761,0
DA:762,0
DA:763,0
DA:764,0
DA:765,0
DA:766,0
DA:767,0
DA:768,0
DA:770,0
DA:771,0
DA:772,0
DA:773,0
DA:775,0
DA:779,0
DA:780,0
DA:781,0
DA:784,0
DA:785,0
DA:786,0
DA:788,0
DA:789,0
DA:790,0
DA:792,0
DA:794,0
DA:795,0
DA:796,0
DA:798,0
DA:800,0
DA:801,0
DA:802,0
DA:804,0
DA:806,0
DA:807,0
DA:808,0
DA:810,0
DA:812,0
DA:813,0
DA:814,0
DA:816,0
DA:818,0
DA:819,0
DA:820,0
DA:822,0
DA:824,0
DA:825,0
DA:826,0
DA:828,0
DA:830,0
DA:831,0
DA:834,0
DA:836,0
LF:146
LH:0
end_of_record
TN:
SF:/home/nn/redis/FalkorDB/deps/RediSearch/deps/snowball/src_c/stem_UTF_8_nepali.c
FN:284,317,r_remove_category_1
FN:319,325,r_check_category_2
FN:327,364,r_remove_category_2
FN:366,374,r_remove_category_3
FN:376,416,nepali_UTF_8_stem
FN:418,418,nepali_UTF_8_create_env
FN:420,420,nepali_UTF_8_close_env
FNDA:0,r_remove_category_1
FNDA:0,r_check_category_2
FNDA:0,r_remove_category_2
FNDA:0,r_remove_category_3
FNDA:0,nepali_UTF_8_stem
FNDA:0,nepali_UTF_8_create_env
FNDA:0,nepali_UTF_8_close_env
FNF:7
FNH:0
DA:284,0
DA:286,0
DA:287,0
DA:288,0
DA:289,0
DA:290,0
DA:291,0
DA:292,0
DA:293,0
DA:295,0
DA:296,0
DA:297,0
DA:298,0
DA:299,0
DA:300,0
DA:301,0
DA:302,0
DA:303,0
DA:305,0
DA:306,0
DA:307,0
DA:308,0
DA:309,0
DA:310,0
DA:313,0
DA:314,0
DA:316,0
DA:319,0
DA:320,0
DA:321,0
DA:322,0
DA:323,0
DA:324,0
DA:327,0
DA:329,0
DA:330,0
DA:331,0
DA:332,0
DA:333,0
DA:334,0
DA:335,0
DA:336,0
DA:337,0
DA:338,0
DA:339,0
DA:340,0
DA:341,0
DA:342,0
DA:343,0
DA:344,0
DA:345,0
DA:346,0
DA:347,0
DA:348,0
DA:349,0
DA:351,0
DA:352,0
DA:353,0
DA:355,0
DA:356,0
DA:357,0
DA:358,0
DA:359,0
DA:361,0
DA:363,0
DA:366,0
DA:367,0
DA:368,0
DA:369,0
DA:370,0
DA:371,0
DA:373,0
DA:376,0
DA:377,0
DA:379,0
DA:380,0
DA:381,0
DA:383,0
DA:385,0
DA:386,0
DA:387,0
DA:388,0
DA:389,0
DA:390,0
DA:391,0
DA:392,0
DA:394,0
DA:395,0
DA:396,0
DA:397,0
DA:400,0
DA:401,0
DA:403,0
DA:404,0
DA:405,0
DA:407,0
DA:408,0
DA:409,0
DA:410,0
DA:412,0
DA:414,0
DA:415,0
DA:418,0
DA:420,0
LF:104
LH:0
end_of_record
TN:
SF:/home/nn/redis/FalkorDB/deps/RediSearch/deps/snowball/src_c/stem_UTF_8_norwegian.c
FN:133,155,r_mark_regions
FN:157,198,r_main_suffix
FN:200,223,r_consonant_pair
FN:225,240,r_other_suffix
FN:242,271,norwegian_UTF_8_stem
FN:273,273,norwegian_UTF_8_create_env
FN:275,275,norwegian_UTF_8_close_env
FNDA:0,r_mark_regions
FNDA:0,r_main_suffix
FNDA:0,r_consonant_pair
FNDA:0,r_other_suffix
FNDA:0,norwegian_UTF_8_stem
FNDA:0,norwegian_UTF_8_create_env
FNDA:0,norwegian_UTF_8_close_env
FNF:7
FNH:0
DA:133,0
DA:134,0
DA:135,0
DA:136,0
DA:137,0
DA:138,0
DA:140,0
DA:141,0
DA:143,0
DA:145,0
DA:146,0
DA:147,0
DA:149,0
DA:151,0
DA:152,0
DA:153,0
DA:154,0
DA:157,0
DA:161,0
DA:162,0
DA:163,0
DA:164,0
DA:165,0
DA:166,0
DA:167,0
DA:168,0
DA:170,0
DA:171,0
DA:172,0
DA:173,0
DA:175,0
DA:176,0
DA:177,0
DA:178,0
DA:179,0
DA:180,0
DA:181,0
DA:182,0
DA:183,0
DA:184,0
DA:186,0
DA:187,0
DA:188,0
DA:190,0
DA:191,0
DA:192,0
DA:193,0
DA:195,0
DA:197,0
DA:200,0
DA:201,0
DA:204,0
DA:205,0
DA:206,0
DA:207,0
DA:208,0
DA:209,0
DA:210,0
DA:212,0
DA:214,0
DA:215,0
DA:216,0
DA:218,0
DA:219,0
DA:220,0
DA:222,0
DA:225,0
DA:228,0
DA:229,0
DA:230,0
DA:231,0
DA:232,0
DA:233,0
DA:234,0
DA:236,0
DA:237,0
DA:239,0
DA:242,0
DA:243,0
DA:244,0
DA:245,0
DA:247,0
DA:249,0
DA:251,0
DA:252,0
DA:253,0
DA:255,0
DA:257,0
DA:258,0
DA:259,0
DA:261,0
DA:263,0
DA:264,0
DA:265,0
DA:267,0
DA:269,0
DA:270,0
DA:273,0
DA:275,0
LF:99
LH:0
end_of_record
TN:
SF:/home/nn/redis/FalkorDB/deps/RediSearch/deps/snowball/src_c/stem_UTF_8_porter.c
FN:225,230,r_shortv
FN:232,235,r_R1
FN:237,240,r_R2
FN:242,267,r_Step_1a
FN:269,344,r_Step_1b
FN:346,368,r_Step_1c
FN:370,448,r_Step_2
FN:450,478,r_Step_3
FN:480,513,r_Step_4
FN:515,546,r_Step_5a
FN:548,562,r_Step_5b
FN:564,718,porter_UTF_8_stem
FN:720,720,porter_UTF_8_create_env
FN:722,722,porter_UTF_8_close_env
FNDA:0,r_shortv
FNDA:0,r_R1
FNDA:0,r_R2
FNDA:0,r_Step_1a
FNDA:0,r_Step_1b
FNDA:0,r_Step_1c
FNDA:0,r_Step_2
FNDA:0,r_Step_3
FNDA:0,r_Step_4
FNDA:0,r_Step_5a
FNDA:0,r_Step_5b
FNDA:0,porter_UTF_8_stem
FNDA:0,porter_UTF_8_create_env
FNDA:0,porter_UTF_8_close_env
FNF:14
FNH:0
DA:225,0
DA:226,0
DA:227,0
DA:228,0
DA:229,0
DA:232,0
DA:233,0
DA:234,0
DA:237,0
DA:238,0
DA:239,0
DA:242,0
DA:244,0
DA:245,0
DA:246,0
DA:247,0
DA:248,0
DA:249,0
DA:250,0
DA:251,0
DA:252,0
DA:254,0
DA:255,0
DA:256,0
DA:257,0
DA:259,0
DA:260,0
DA:261,0
DA:262,0
DA:264,0
DA:266,0
DA:269,0
DA:271,0
DA:272,0
DA:273,0
DA:274,0
DA:275,0
DA:276,0
DA:277,0
DA:278,0
DA:279,0
DA:281,0
DA:282,0
DA:284,0
DA:285,0
DA:286,0
DA:288,0
DA:289,0
DA:290,0
DA:292,0
DA:294,0
DA:295,0
DA:297,0
DA:298,0
DA:299,0
DA:300,0
DA:301,0
DA:304,0
DA:306,0
DA:307,0
DA:308,0
DA:310,0
DA:312,0
DA:313,0
DA:314,0
DA:315,0
DA:316,0
DA:317,0
DA:319,0
DA:320,0
DA:321,0
DA:323,0
DA:324,0
DA:325,0
DA:326,0
DA:327,0
DA:328,0
DA:330,0
DA:333,0
DA:334,0
DA:335,0
DA:337,0
DA:339,0
DA:341,0
DA:343,0
DA:346,0
DA:347,0
DA:348,0
DA:349,0
DA:350,0
DA:351,0
DA:352,0
DA:353,0
DA:354,0
DA:355,0
DA:357,0
DA:358,0
DA:360,0
DA:361,0
DA:362,0
DA:364,0
DA:365,0
DA:367,0
DA:370,0
DA:372,0
DA:373,0
DA:374,0
DA:375,0
DA:376,0
DA:377,0
DA:378,0
DA:380,0
DA:381,0
DA:382,0
DA:383,0
DA:385,0
DA:386,0
DA:387,0
DA:388,0
DA:390,0
DA:391,0
DA:392,0
DA:393,0
DA:395,0
DA:396,0
DA:397,0
DA:398,0
DA:400,0
DA:401,0
DA:402,0
DA:403,0
DA:405,0
DA:406,0
DA:407,0
DA:408,0
DA:410,0
DA:411,0
DA:412,0
DA:413,0
DA:415,0
DA:416,0
DA:417,0
DA:418,0
DA:420,0
DA:421,0
DA:422,0
DA:423,0
DA:425,0
DA:426,0
DA:427,0
DA:428,0
DA:430,0
DA:431,0
DA:432,0
DA:433,0
DA:435,0
DA:436,0
DA:437,0
DA:438,0
DA:440,0
DA:441,0
DA:442,0
DA:443,0
DA:445,0
DA:447,0
DA:450,0
DA:452,0
DA:453,0
DA:454,0
DA:455,0
DA:456,0
DA:457,0
DA:458,0
DA:460,0
DA:461,0
DA:462,0
DA:463,0
DA:465,0
DA:466,0
DA:467,0
DA:468,0
DA:470,0
DA:471,0
DA:472,0
DA:473,0
DA:475,0
DA:477,0
DA:480,0
DA:482,0
DA:483,0
DA:484,0
DA:485,0
DA:486,0
DA:487,0
DA:488,0
DA:490,0
DA:491,0
DA:492,0
DA:493,0
DA:495,0
DA:496,0
DA:497,0
DA:498,0
DA:499,0
DA:500,0
DA:501,0
DA:502,0
DA:503,0
DA:504,0
DA:506,0
DA:507,0
DA:508,0
DA:510,0
DA:512,0
DA:515,0
DA:516,0
DA:517,0
DA:518,0
DA:519,0
DA:520,0
DA:521,0
DA:522,0
DA:523,0
DA:525,0
DA:526,0
DA:527,0
DA:528,0
DA:529,0
DA:531,0
DA:532,0
DA:533,0
DA:534,0
DA:536,0
DA:537,0
DA:538,0
DA:541,0
DA:542,0
DA:543,0
DA:545,0
DA:548,0
DA:549,0
DA:550,0
DA:551,0
DA:552,0
DA:553,0
DA:554,0
DA:556,0
DA:557,0
DA:558,0
DA:559,0
DA:561,0
DA:564,0
DA:565,0
DA:566,0
DA:567,0
DA:568,0
DA:569,0
DA:570,0
DA:571,0
DA:572,0
DA:574,0
DA:575,0
DA:576,0
DA:578,0
DA:579,0
DA:580,0
DA:581,0
DA:582,0
DA:583,0
DA:584,0
DA:585,0
DA:586,0
DA:587,0
DA:588,0
DA:589,0
DA:590,0
DA:591,0
DA:592,0
DA:593,0
DA:594,0
DA:597,0
DA:598,0
DA:600,0
DA:601,0
DA:602,0
DA:603,0
DA:604,0
DA:606,0
DA:608,0
DA:609,0
DA:610,0
DA:612,0
DA:613,0
DA:614,0
DA:617,0
DA:618,0
DA:619,0
DA:621,0
DA:623,0
DA:624,0
DA:625,0
DA:628,0
DA:629,0
DA:630,0
DA:632,0
DA:633,0
DA:634,0
DA:636,0
DA:638,0
DA:639,0
DA:640,0
DA:642,0
DA:644,0
DA:645,0
DA:646,0
DA:648,0
DA:650,0
DA:651,0
DA:652,0
DA:654,0
DA:656,0
DA:657,0
DA:658,0
DA:660,0
DA:662,0
DA:663,0
DA:664,0
DA:666,0
DA:668,0
DA:669,0
DA:670,0
DA:672,0
DA:674,0
DA:675,0
DA:676,0
DA:678,0
DA:680,0
DA:681,0
DA:682,0
DA:684,0
DA:686,0
DA:687,0
DA:688,0
DA:689,0
DA:690,0
DA:691,0
DA:692,0
DA:693,0
DA:694,0
DA:695,0
DA:696,0
DA:697,0
DA:698,0
DA:699,0
DA:700,0
DA:701,0
DA:702,0
DA:703,0
DA:706,0
DA:707,0
DA:709,0
DA:710,0
DA:711,0
DA:712,0
DA:714,0
DA:715,0
DA:717,0
DA:720,0
DA:722,0
LF:369
LH:0
end_of_record
TN:
SF:/home/nn/redis/FalkorDB/deps/RediSearch/deps/snowball/src_c/stem_UTF_8_portuguese.c
FN:475,508,r_prelude
FN:510,590,r_mark_regions
FN:592,625,r_postlude
FN:627,630,r_RV
FN:632,635,r_R1
FN:637,640,r_R2
FN:642,800,r_standard_suffix
FN:802,816,r_verb_suffix
FN:818,829,r_residual_suffix
FN:831,882,r_residual_form
FN:884,962,portuguese_UTF_8_stem
FN:964,964,portuguese_UTF_8_create_env
FN:966,966,portuguese_UTF_8_close_env
FNDA:0,r_prelude
FNDA:0,r_mark_regions
FNDA:0,r_postlude
FNDA:0,r_RV
FNDA:0,r_R1
FNDA:0,r_R2
FNDA:0,r_standard_suffix
FNDA:0,r_verb_suffix
FNDA:0,r_residual_suffix
FNDA:0,r_residual_form
FNDA:0,portuguese_UTF_8_stem
FNDA:0,portuguese_UTF_8_create_env
FNDA:0,portuguese_UTF_8_close_env
FNF:13
FNH:0
DA:475,0
DA:477,0
DA:478,0
DA:479,0
DA:480,0
DA:481,0
DA:482,0
DA:483,0
DA:484,0
DA:485,0
DA:486,0
DA:487,0
DA:489,0
DA:490,0
DA:491,0
DA:492,0
DA:494,0
DA:495,0
DA:496,0
DA:497,0
DA:498,0
DA:500,0
DA:502,0
DA:503,0
DA:504,0
DA:505,0
DA:507,0
DA:510,0
DA:511,0
DA:512,0
DA:513,0
DA:514,0
DA:515,0
DA:516,0
DA:517,0
DA:518,0
DA:520,0
DA:521,0
DA:522,0
DA:524,0
DA:525,0
DA:526,0
DA:527,0
DA:529,0
DA:530,0
DA:531,0
DA:534,0
DA:535,0
DA:536,0
DA:537,0
DA:538,0
DA:539,0
DA:540,0
DA:542,0
DA:543,0
DA:544,0
DA:546,0
DA:547,0
DA:548,0
DA:549,0
DA:550,0
DA:551,0
DA:552,0
DA:555,0
DA:558,0
DA:559,0
DA:560,0
DA:561,0
DA:563,0
DA:565,0
DA:566,0
DA:567,0
DA:570,0
DA:571,0
DA:572,0
DA:574,0
DA:576,0
DA:577,0
DA:578,0
DA:581,0
DA:582,0
DA:583,0
DA:585,0
DA:586,0
DA:587,0
DA:589,0
DA:592,0
DA:594,0
DA:595,0
DA:596,0
DA:597,0
DA:598,0
DA:599,0
DA:600,0
DA:601,0
DA:602,0
DA:603,0
DA:604,0
DA:606,0
DA:607,0
DA:608,0
DA:609,0
DA:611,0
DA:612,0
DA:613,0
DA:614,0
DA:615,0
DA:617,0
DA:619,0
DA:620,0
DA:621,0
DA:622,0
DA:624,0
DA:627,0
DA:628,0
DA:629,0
DA:632,0
DA:633,0
DA:634,0
DA:637,0
DA:638,0
DA:639,0
DA:642,0
DA:644,0
DA:645,0
DA:646,0
DA:647,0
DA:648,0
DA:649,0
DA:650,0
DA:651,0
DA:652,0
DA:654,0
DA:655,0
DA:657,0
DA:658,0
DA:659,0
DA:660,0
DA:662,0
DA:663,0
DA:665,0
DA:666,0
DA:667,0
DA:668,0
DA:670,0
DA:671,0
DA:673,0
DA:674,0
DA:675,0
DA:676,0
DA:678,0
DA:679,0
DA:681,0
DA:682,0
DA:683,0
DA:684,0
DA:686,0
DA:687,0
DA:689,0
DA:690,0
DA:691,0
DA:692,0
DA:693,0
DA:694,0
DA:695,0
DA:696,0
DA:697,0
DA:699,0
DA:700,0
DA:703,0
DA:704,0
DA:705,0
DA:706,0
DA:707,0
DA:708,0
DA:709,0
DA:711,0
DA:712,0
DA:714,0
DA:716,0
DA:719,0
DA:720,0
DA:721,0
DA:722,0
DA:724,0
DA:725,0
DA:727,0
DA:728,0
DA:729,0
DA:730,0
DA:731,0
DA:732,0
DA:733,0
DA:734,0
DA:736,0
DA:737,0
DA:739,0
DA:742,0
DA:743,0
DA:744,0
DA:745,0
DA:747,0
DA:748,0
DA:750,0
DA:751,0
DA:752,0
DA:753,0
DA:754,0
DA:755,0
DA:756,0
DA:757,0
DA:759,0
DA:760,0
DA:762,0
DA:765,0
DA:766,0
DA:767,0
DA:768,0
DA:770,0
DA:771,0
DA:773,0
DA:774,0
DA:775,0
DA:776,0
DA:777,0
DA:778,0
DA:779,0
DA:781,0
DA:782,0
DA:784,0
DA:787,0
DA:788,0
DA:789,0
DA:790,0
DA:792,0
DA:793,0
DA:794,0
DA:795,0
DA:797,0
DA:799,0
DA:802,0
DA:805,0
DA:806,0
DA:807,0
DA:808,0
DA:809,0
DA:810,0
DA:811,0
DA:813,0
DA:815,0
DA:818,0
DA:819,0
DA:820,0
DA:821,0
DA:822,0
DA:823,0
DA:825,0
DA:826,0
DA:828,0
DA:831,0
DA:833,0
DA:834,0
DA:835,0
DA:836,0
DA:837,0
DA:838,0
DA:839,0
DA:840,0
DA:842,0
DA:843,0
DA:845,0
DA:846,0
DA:847,0
DA:848,0
DA:849,0
DA:850,0
DA:851,0
DA:852,0
DA:853,0
DA:855,0
DA:856,0
DA:857,0
DA:858,0
DA:859,0
DA:860,0
DA:861,0
DA:862,0
DA:863,0
DA:864,0
DA:867,0
DA:868,0
DA:869,0
DA:871,0
DA:872,0
DA:874,0
DA:875,0
DA:876,0
DA:877,0
DA:879,0
DA:881,0
DA:884,0
DA:885,0
DA:886,0
DA:887,0
DA:889,0
DA:892,0
DA:893,0
DA:895,0
DA:897,0
DA:898,0
DA:899,0
DA:900,0
DA:901,0
DA:902,0
DA:903,0
DA:905,0
DA:906,0
DA:907,0
DA:908,0
DA:909,0
DA:910,0
DA:913,0
DA:914,0
DA:915,0
DA:916,0
DA:917,0
DA:918,0
DA:919,0
DA:920,0
DA:921,0
DA:922,0
DA:923,0
DA:925,0
DA:926,0
DA:927,0
DA:929,0
DA:930,0
DA:932,0
DA:933,0
DA:936,0
DA:937,0
DA:938,0
DA:939,0
DA:940,0
DA:941,0
DA:944,0
DA:945,0
DA:946,0
DA:948,0
DA:949,0
DA:950,0
DA:952,0
DA:954,0
DA:955,0
DA:956,0
DA:957,0
DA:959,0
DA:961,0
DA:964,0
DA:966,0
LF:360
LH:0
end_of_record
TN:
SF:/home/nn/redis/FalkorDB/deps/RediSearch/deps/snowball/src_c/stem_UTF_8_romanian.c
FN:539,581,r_prelude
FN:583,663,r_mark_regions
FN:665,698,r_postlude
FN:700,703,r_RV
FN:705,708,r_R1
FN:710,713,r_R2
FN:715,769,r_step_0
FN:771,817,r_combo_suffix
FN:819,861,r_standard_suffix
FN:863,897,r_verb_suffix
FN:899,910,r_vowel_suffix
FN:912,966,romanian_UTF_8_stem
FN:968,968,romanian_UTF_8_create_env
FN:970,970,romanian_UTF_8_close_env
FNDA:0,r_prelude
FNDA:0,r_mark_regions
FNDA:0,r_postlude
FNDA:0,r_RV
FNDA:0,r_R1
FNDA:0,r_R2
FNDA:0,r_step_0
FNDA:0,r_combo_suffix
FNDA:0,r_standard_suffix
FNDA:0,r_verb_suffix
FNDA:0,r_vowel_suffix
FNDA:0,romanian_UTF_8_stem
FNDA:0,romanian_UTF_8_create_env
FNDA:0,romanian_UTF_8_close_env
FNF:14
FNH:0
DA:539,0
DA:540,0
DA:541,0
DA:542,0
DA:543,0
DA:544,0
DA:545,0
DA:546,0
DA:547,0
DA:548,0
DA:549,0
DA:550,0
DA:551,0
DA:552,0
DA:554,0
DA:555,0
DA:556,0
DA:557,0
DA:558,0
DA:559,0
DA:560,0
DA:561,0
DA:562,0
DA:565,0
DA:566,0
DA:567,0
DA:568,0
DA:569,0
DA:570,0
DA:571,0
DA:572,0
DA:575,0
DA:576,0
DA:577,0
DA:578,0
DA:580,0
DA:583,0
DA:584,0
DA:585,0
DA:586,0
DA:587,0
DA:588,0
DA:589,0
DA:590,0
DA:591,0
DA:593,0
DA:594,0
DA:595,0
DA:597,0
DA:598,0
DA:599,0
DA:600,0
DA:602,0
DA:603,0
DA:604,0
DA:607,0
DA:608,0
DA:609,0
DA:610,0
DA:611,0
DA:612,0
DA:613,0
DA:615,0
DA:616,0
DA:617,0
DA:619,0
DA:620,0
DA:621,0
DA:622,0
DA:623,0
DA:624,0
DA:625,0
DA:628,0
DA:631,0
DA:632,0
DA:633,0
DA:634,0
DA:636,0
DA:638,0
DA:639,0
DA:640,0
DA:643,0
DA:644,0
DA:645,0
DA:647,0
DA:649,0
DA:650,0
DA:651,0
DA:654,0
DA:655,0
DA:656,0
DA:658,0
DA:659,0
DA:660,0
DA:662,0
DA:665,0
DA:667,0
DA:668,0
DA:669,0
DA:670,0
DA:671,0
DA:672,0
DA:673,0
DA:674,0
DA:675,0
DA:676,0
DA:677,0
DA:679,0
DA:680,0
DA:681,0
DA:682,0
DA:684,0
DA:685,0
DA:686,0
DA:687,0
DA:688,0
DA:690,0
DA:692,0
DA:693,0
DA:694,0
DA:695,0
DA:697,0
DA:700,0
DA:701,0
DA:702,0
DA:705,0
DA:706,0
DA:707,0
DA:710,0
DA:711,0
DA:712,0
DA:715,0
DA:717,0
DA:718,0
DA:719,0
DA:720,0
DA:721,0
DA:722,0
DA:723,0
DA:725,0
DA:726,0
DA:727,0
DA:728,0
DA:730,0
DA:731,0
DA:732,0
DA:733,0
DA:735,0
DA:736,0
DA:737,0
DA:738,0
DA:740,0
DA:741,0
DA:742,0
DA:743,0
DA:745,0
DA:746,0
DA:747,0
DA:748,0
DA:749,0
DA:750,0
DA:751,0
DA:753,0
DA:754,0
DA:756,0
DA:757,0
DA:758,0
DA:759,0
DA:761,0
DA:762,0
DA:763,0
DA:764,0
DA:766,0
DA:768,0
DA:771,0
DA:773,0
DA:774,0
DA:775,0
DA:776,0
DA:777,0
DA:778,0
DA:779,0
DA:781,0
DA:782,0
DA:783,0
DA:784,0
DA:786,0
DA:787,0
DA:788,0
DA:789,0
DA:791,0
DA:792,0
DA:793,0
DA:794,0
DA:796,0
DA:797,0
DA:798,0
DA:799,0
DA:801,0
DA:802,0
DA:803,0
DA:804,0
DA:806,0
DA:807,0
DA:808,0
DA:809,0
DA:811,0
DA:813,0
DA:814,0
DA:816,0
DA:819,0
DA:821,0
DA:822,0
DA:823,0
DA:824,0
DA:825,0
DA:826,0
DA:828,0
DA:829,0
DA:830,0
DA:831,0
DA:833,0
DA:834,0
DA:835,0
DA:836,0
DA:837,0
DA:838,0
DA:840,0
DA:841,0
DA:842,0
DA:843,0
DA:845,0
DA:846,0
DA:847,0
DA:848,0
DA:849,0
DA:850,0
DA:852,0
DA:853,0
DA:854,0
DA:855,0
DA:857,0
DA:859,0
DA:860,0
DA:863,0
DA:867,0
DA:868,0
DA:869,0
DA:870,0
DA:871,0
DA:872,0
DA:873,0
DA:874,0
DA:875,0
DA:876,0
DA:877,0
DA:878,0
DA:879,0
DA:880,0
DA:881,0
DA:883,0
DA:884,0
DA:885,0
DA:887,0
DA:888,0
DA:889,0
DA:890,0
DA:892,0
DA:894,0
DA:896,0
DA:899,0
DA:900,0
DA:901,0
DA:902,0
DA:903,0
DA:904,0
DA:906,0
DA:907,0
DA:909,0
DA:912,0
DA:913,0
DA:914,0
DA:915,0
DA:917,0
DA:920,0
DA:921,0
DA:923,0
DA:925,0
DA:926,0
DA:927,0
DA:929,0
DA:931,0
DA:932,0
DA:933,0
DA:935,0
DA:937,0
DA:938,0
DA:939,0
DA:940,0
DA:941,0
DA:942,0
DA:943,0
DA:944,0
DA:945,0
DA:948,0
DA:949,0
DA:950,0
DA:952,0
DA:953,0
DA:954,0
DA:956,0
DA:958,0
DA:959,0
DA:960,0
DA:961,0
DA:963,0
DA:965,0
DA:968,0
DA:970,0
LF:319
LH:0
end_of_record
TN:
SF:/home/nn/redis/FalkorDB/deps/RediSearch/deps/snowball/src_c/stem_UTF_8_russian.c
FN:355,385,r_mark_regions
FN:387,390,r_R2
FN:392,419,r_perfective_gerund
FN:421,429,r_adjective
FN:431,465,r_adjectival
FN:467,476,r_reflexive
FN:478,505,r_verb
FN:507,515,r_noun
FN:517,529,r_derivational
FN:531,563,r_tidy_up
FN:565,673,russian_UTF_8_stem
FN:675,675,russian_UTF_8_create_env
FN:677,677,russian_UTF_8_close_env
FNDA:0,r_mark_regions
FNDA:0,r_R2
FNDA:0,r_perfective_gerund
FNDA:0,r_adjective
FNDA:0,r_adjectival
FNDA:0,r_reflexive
FNDA:0,r_verb
FNDA:0,r_noun
FNDA:0,r_derivational
FNDA:0,r_tidy_up
FNDA:0,russian_UTF_8_stem
FNDA:0,russian_UTF_8_create_env
FNDA:0,russian_UTF_8_close_env
FNF:13
FNH:0
DA:355,0
DA:356,0
DA:357,0
DA:358,0
DA:360,0
DA:361,0
DA:362,0
DA:364,0
DA:366,0
DA:367,0
DA:368,0
DA:371,0
DA:372,0
DA:373,0
DA:376,0
DA:377,0
DA:378,0
DA:380,0
DA:381,0
DA:382,0
DA:384,0
DA:387,0
DA:388,0
DA:389,0
DA:392,0
DA:394,0
DA:395,0
DA:396,0
DA:397,0
DA:398,0
DA:399,0
DA:400,0
DA:401,0
DA:402,0
DA:403,0
DA:404,0
DA:405,0
DA:407,0
DA:408,0
DA:409,0
DA:411,0
DA:412,0
DA:413,0
DA:414,0
DA:416,0
DA:418,0
DA:421,0
DA:422,0
DA:423,0
DA:424,0
DA:425,0
DA:426,0
DA:428,0
DA:431,0
DA:433,0
DA:434,0
DA:436,0
DA:437,0
DA:438,0
DA:439,0
DA:440,0
DA:441,0
DA:442,0
DA:443,0
DA:444,0
DA:445,0
DA:446,0
DA:447,0
DA:448,0
DA:450,0
DA:451,0
DA:452,0
DA:454,0
DA:455,0
DA:456,0
DA:457,0
DA:459,0
DA:461,0
DA:464,0
DA:467,0
DA:468,0
DA:469,0
DA:470,0
DA:471,0
DA:472,0
DA:473,0
DA:475,0
DA:478,0
DA:480,0
DA:481,0
DA:482,0
DA:483,0
DA:484,0
DA:485,0
DA:486,0
DA:487,0
DA:488,0
DA:489,0
DA:490,0
DA:491,0
DA:493,0
DA:494,0
DA:495,0
DA:497,0
DA:498,0
DA:499,0
DA:500,0
DA:502,0
DA:504,0
DA:507,0
DA:508,0
DA:509,0
DA:510,0
DA:511,0
DA:512,0
DA:514,0
DA:517,0
DA:518,0
DA:519,0
DA:520,0
DA:521,0
DA:522,0
DA:523,0
DA:525,0
DA:526,0
DA:528,0
DA:531,0
DA:533,0
DA:534,0
DA:535,0
DA:536,0
DA:537,0
DA:538,0
DA:539,0
DA:540,0
DA:542,0
DA:543,0
DA:544,0
DA:545,0
DA:546,0
DA:547,0
DA:549,0
DA:550,0
DA:551,0
DA:552,0
DA:553,0
DA:555,0
DA:556,0
DA:557,0
DA:558,0
DA:560,0
DA:562,0
DA:565,0
DA:566,0
DA:567,0
DA:568,0
DA:569,0
DA:570,0
DA:571,0
DA:572,0
DA:573,0
DA:574,0
DA:575,0
DA:576,0
DA:577,0
DA:578,0
DA:579,0
DA:580,0
DA:583,0
DA:584,0
DA:586,0
DA:587,0
DA:588,0
DA:589,0
DA:591,0
DA:594,0
DA:595,0
DA:597,0
DA:601,0
DA:602,0
DA:603,0
DA:604,0
DA:605,0
DA:606,0
DA:607,0
DA:609,0
DA:610,0
DA:611,0
DA:612,0
DA:613,0
DA:614,0
DA:615,0
DA:617,0
DA:620,0
DA:621,0
DA:622,0
DA:623,0
DA:625,0
DA:626,0
DA:627,0
DA:628,0
DA:629,0
DA:630,0
DA:632,0
DA:633,0
DA:634,0
DA:635,0
DA:636,0
DA:637,0
DA:640,0
DA:643,0
DA:644,0
DA:645,0
DA:647,0
DA:648,0
DA:649,0
DA:650,0
DA:651,0
DA:652,0
DA:654,0
DA:657,0
DA:658,0
DA:659,0
DA:661,0
DA:663,0
DA:664,0
DA:665,0
DA:667,0
DA:669,0
DA:671,0
DA:672,0
DA:675,0
DA:677,0
LF:233
LH:0
end_of_record
TN:
SF:/home/nn/redis/FalkorDB/deps/RediSearch/deps/snowball/src_c/stem_UTF_8_serbian.c
FN:4793,4973,r_cyr_to_lat
FN:4975,5062,r_prelude
FN:5064,5123,r_mark_regions
FN:5125,5128,r_R1
FN:5130,5603,r_Step_1
FN:5605,6481,r_Step_2
FN:6483,6495,r_Step_3
FN:6497,6538,serbian_UTF_8_stem
FN:6540,6540,serbian_UTF_8_create_env
FN:6542,6542,serbian_UTF_8_close_env
FNDA:0,r_cyr_to_lat
FNDA:0,r_prelude
FNDA:0,r_mark_regions
FNDA:0,r_R1
FNDA:0,r_Step_1
FNDA:0,r_Step_2
FNDA:0,r_Step_3
FNDA:0,serbian_UTF_8_stem
FNDA:0,serbian_UTF_8_create_env
FNDA:0,serbian_UTF_8_close_env
FNF:10
FNH:0
DA:4793,0
DA:4795,0
DA:4796,0
DA:4797,0
DA:4798,0
DA:4799,0
DA:4800,0
DA:4801,0
DA:4802,0
DA:4803,0
DA:4804,0
DA:4805,0
DA:4806,0
DA:4807,0
DA:4809,0
DA:4810,0
DA:4811,0
DA:4812,0
DA:4814,0
DA:4815,0
DA:4816,0
DA:4817,0
DA:4819,0
DA:4820,0
DA:4821,0
DA:4822,0
DA:4824,0
DA:4825,0
DA:4826,0
DA:4827,0
DA:4829,0
DA:4830,0
DA:4831,0
DA:4832,0
DA:4834,0
DA:4835,0
DA:4836,0
DA:4837,0
DA:4839,0
DA:4840,0
DA:4841,0
DA:4842,0
DA:4844,0
DA:4845,0
DA:4846,0
DA:4847,0
DA:4849,0
DA:4850,0
DA:4851,0
DA:4852,0
DA:4854,0
DA:4855,0
DA:4856,0
DA:4857,0
DA:4859,0
DA:4860,0
DA:4861,0
DA:4862,0
DA:4864,0
DA:4865,0
DA:4866,0
DA:4867,0
DA:4869,0
DA:4870,0
DA:4871,0
DA:4872,0
DA:4874,0
DA:4875,0
DA:4876,0
DA:4877,0
DA:4879,0
DA:4880,0
DA:4881,0
DA:4882,0
DA:4884,0
DA:4885,0
DA:4886,0
DA:4887,0
DA:4889,0
DA:4890,0
DA:4891,0
DA:4892,0
DA:4894,0
DA:4895,0
DA:4896,0
DA:4897,0
DA:4899,0
DA:4900,0
DA:4901,0
DA:4902,0
DA:4904,0
DA:4905,0
DA:4906,0
DA:4907,0
DA:4909,0
DA:4910,0
DA:4911,0
DA:4912,0
DA:4914,0
DA:4915,0
DA:4916,0
DA:4917,0
DA:4919,0
DA:4920,0
DA:4921,0
DA:4922,0
DA:4924,0
DA:4925,0
DA:4926,0
DA:4927,0
DA:4929,0
DA:4930,0
DA:4931,0
DA:4932,0
DA:4934,0
DA:4935,0
DA:4936,0
DA:4937,0
DA:4939,0
DA:4940,0
DA:4941,0
DA:4942,0
DA:4944,0
DA:4945,0
DA:4946,0
DA:4947,0
DA:4949,0
DA:4950,0
DA:4951,0
DA:4952,0
DA:4954,0
DA:4956,0
DA:4957,0
DA:4958,0
DA:4959,0
DA:4960,0
DA:4961,0
DA:4962,0
DA:4965,0
DA:4966,0
DA:4967,0
DA:4968,0
DA:4970,0
DA:4972,0
DA:4975,0
DA:4976,0
DA:4977,0
DA:4978,0
DA:4979,0
DA:4980,0
DA:4981,0
DA:4982,0
DA:4983,0
DA:4984,0
DA:4985,0
DA:4986,0
DA:4987,0
DA:4989,0
DA:4990,0
DA:4991,0
DA:4992,0
DA:4993,0
DA:4994,0
DA:4995,0
DA:4998,0
DA:4999,0
DA:5000,0
DA:5001,0
DA:5003,0
DA:5005,0
DA:5006,0
DA:5007,0
DA:5008,0
DA:5009,0
DA:5010,0
DA:5011,0
DA:5012,0
DA:5013,0
DA:5014,0
DA:5015,0
DA:5016,0
DA:5018,0
DA:5019,0
DA:5020,0
DA:5021,0
DA:5022,0
DA:5023,0
DA:5024,0
DA:5027,0
DA:5028,0
DA:5029,0
DA:5030,0
DA:5032,0
DA:5034,0
DA:5035,0
DA:5036,0
DA:5037,0
DA:5038,0
DA:5039,0
DA:5040,0
DA:5041,0
DA:5042,0
DA:5043,0
DA:5045,0
DA:5046,0
DA:5047,0
DA:5048,0
DA:5049,0
DA:5050,0
DA:5051,0
DA:5054,0
DA:5055,0
DA:5056,0
DA:5057,0
DA:5059,0
DA:5061,0
DA:5064,0
DA:5065,0
DA:5066,0
DA:5068,0
DA:5069,0
DA:5070,0
DA:5072,0
DA:5073,0
DA:5074,0
DA:5076,0
DA:5077,0
DA:5079,0
DA:5080,0
DA:5081,0
DA:5083,0
DA:5084,0
DA:5086,0
DA:5087,0
DA:5088,0
DA:5090,0
DA:5091,0
DA:5092,0
DA:5094,0
DA:5096,0
DA:5097,0
DA:5098,0
DA:5099,0
DA:5100,0
DA:5101,0
DA:5102,0
DA:5105,0
DA:5106,0
DA:5107,0
DA:5108,0
DA:5109,0
DA:5111,0
DA:5112,0
DA:5113,0
DA:5116,0
DA:5117,0
DA:5118,0
DA:5119,0
DA:5120,0
DA:5122,0
DA:5125,0
DA:5126,0
DA:5127,0
DA:5130,0
DA:5132,0
DA:5133,0
DA:5134,0
DA:5135,0
DA:5136,0
DA:5137,0
DA:5138,0
DA:5139,0
DA:5140,0
DA:5142,0
DA:5143,0
DA:5144,0
DA:5145,0
DA:5147,0
DA:5148,0
DA:5149,0
DA:5150,0
DA:5152,0
DA:5153,0
DA:5154,0
DA:5155,0
DA:5157,0
DA:5158,0
DA:5159,0
DA:5160,0
DA:5162,0
DA:5163,0
DA:5164,0
DA:5165,0
DA:5167,0
DA:5168,0
DA:5169,0
DA:5170,0
DA:5171,0
DA:5173,0
DA:5174,0
DA:5175,0
DA:5176,0
DA:5178,0
DA:5179,0
DA:5180,0
DA:5181,0
DA:5183,0
DA:5184,0
DA:5185,0
DA:5186,0
DA:5188,0
DA:5189,0
DA:5190,0
DA:5191,0
DA:5193,0
DA:5194,0
DA:5195,0
DA:5196,0
DA:5198,0
DA:5199,0
DA:5200,0
DA:5201,0
DA:5203,0
DA:5204,0
DA:5205,0
DA:5206,0
DA:5208,0
DA:5209,0
DA:5210,0
DA:5211,0
DA:5213,0
DA:5214,0
DA:5215,0
DA:5216,0
DA:5218,0
DA:5219,0
DA:5220,0
DA:5221,0
DA:5223,0
DA:5224,0
DA:5225,0
DA:5226,0
DA:5228,0
DA:5229,0
DA:5230,0
DA:5231,0
DA:5233,0
DA:5234,0
DA:5235,0
DA:5236,0
DA:5238,0
DA:5239,0
DA:5240,0
DA:5241,0
DA:5243,0
DA:5244,0
DA:5245,0
DA:5246,0
DA:5248,0
DA:5249,0
DA:5250,0
DA:5251,0
DA:5253,0
DA:5254,0
DA:5255,0
DA:5256,0
DA:5258,0
DA:5259,0
DA:5260,0
DA:5261,0
DA:5263,0
DA:5264,0
DA:5265,0
DA:5266,0
DA:5268,0
DA:5269,0
DA:5270,0
DA:5271,0
DA:5273,0
DA:5274,0
DA:5275,0
DA:5276,0
DA:5278,0
DA:5279,0
DA:5280,0
DA:5281,0
DA:5283,0
DA:5284,0
DA:5285,0
DA:5286,0
DA:5288,0
DA:5289,0
DA:5290,0
DA:5291,0
DA:5292,0
DA:5294,0
DA:5295,0
DA:5296,0
DA:5297,0
DA:5299,0
DA:5300,0
DA:5301,0
DA:5302,0
DA:5304,0
DA:5305,0
DA:5306,0
DA:5307,0
DA:5309,0
DA:5310,0
DA:5311,0
DA:5312,0
DA:5314,0
DA:5315,0
DA:5316,0
DA:5317,0
DA:5319,0
DA:5320,0
DA:5321,0
DA:5322,0
DA:5324,0
DA:5325,0
DA:5326,0
DA:5327,0
DA:5329,0
DA:5330,0
DA:5331,0
DA:5332,0
DA:5334,0
DA:5335,0
DA:5336,0
DA:5337,0
DA:5339,0
DA:5340,0
DA:5341,0
DA:5342,0
DA:5344,0
DA:5345,0
DA:5346,0
DA:5347,0
DA:5349,0
DA:5350,0
DA:5351,0
DA:5352,0
DA:5354,0
DA:5355,0
DA:5356,0
DA:5357,0
DA:5359,0
DA:5360,0
DA:5361,0
DA:5362,0
DA:5364,0
DA:5365,0
DA:5366,0
DA:5367,0
DA:5369,0
DA:5370,0
DA:5371,0
DA:5372,0
DA:5374,0
DA:5375,0
DA:5376,0
DA:5377,0
DA:5379,0
DA:5380,0
DA:5381,0
DA:5382,0
DA:5384,0
DA:5385,0
DA:5386,0
DA:5387,0
DA:5389,0
DA:5390,0
DA:5391,0
DA:5392,0
DA:5394,0
DA:5395,0
DA:5396,0
DA:5397,0
DA:5398,0
DA:5400,0
DA:5401,0
DA:5402,0
DA:5403,0
DA:5405,0
DA:5406,0
DA:5407,0
DA:5408,0
DA:5410,0
DA:5411,0
DA:5412,0
DA:5413,0
DA:5414,0
DA:5416,0
DA:5417,0
DA:5418,0
DA:5419,0
DA:5421,0
DA:5422,0
DA:5423,0
DA:5424,0
DA:5425,0
DA:5427,0
DA:5428,0
DA:5429,0
DA:5430,0
DA:5432,0
DA:5433,0
DA:5434,0
DA:5435,0
DA:5437,0
DA:5438,0
DA:5439,0
DA:5440,0
DA:5442,0
DA:5443,0
DA:5444,0
DA:5445,0
DA:5447,0
DA:5448,0
DA:5449,0
DA:5450,0
DA:5452,0
DA:5453,0
DA:5454,0
DA:5455,0
DA:5457,0
DA:5458,0
DA:5459,0
DA:5460,0
DA:5462,0
DA:5463,0
DA:5464,0
DA:5465,0
DA:5466,0
DA:5468,0
DA:5469,0
DA:5470,0
DA:5471,0
DA:5473,0
DA:5474,0
DA:5475,0
DA:5476,0
DA:5478,0
DA:5479,0
DA:5480,0
DA:5481,0
DA:5483,0
DA:5484,0
DA:5485,0
DA:5486,0
DA:5488,0
DA:5489,0
DA:5490,0
DA:5491,0
DA:5493,0
DA:5494,0
DA:5495,0
DA:5496,0
DA:5498,0
DA:5499,0
DA:5500,0
DA:5501,0
DA:5502,0
DA:5504,0
DA:5505,0
DA:5506,0
DA:5507,0
DA:5509,0
DA:5510,0
DA:5511,0
DA:5512,0
DA:5514,0
DA:5515,0
DA:5516,0
DA:5517,0
DA:5519,0
DA:5520,0
DA:5521,0
DA:5522,0
DA:5524,0
DA:5525,0
DA:5526,0
DA:5527,0
DA:5529,0
DA:5530,0
DA:5531,0
DA:5532,0
DA:5534,0
DA:5535,0
DA:5536,0
DA:5537,0
DA:5539,0
DA:5540,0
DA:5541,0
DA:5542,0
DA:5544,0
DA:5545,0
DA:5546,0
DA:5547,0
DA:5549,0
DA:5550,0
DA:5551,0
DA:5552,0
DA:5554,0
DA:5555,0
DA:5556,0
DA:5557,0
DA:5559,0
DA:5560,0
DA:5561,0
DA:5562,0
DA:5564,0
DA:5565,0
DA:5566,0
DA:5567,0
DA:5569,0
DA:5570,0
DA:5571,0
DA:5572,0
DA:5574,0
DA:5575,0
DA:5576,0
DA:5577,0
DA:5579,0
DA:5580,0
DA:5581,0
DA:5582,0
DA:5584,0
DA:5585,0
DA:5586,0
DA:5587,0
DA:5589,0
DA:5590,0
DA:5591,0
DA:5592,0
DA:5594,0
DA:5595,0
DA:5596,0
DA:5597,0
DA:5598,0
DA:5600,0
DA:5602,0
DA:5605,0
DA:5607,0
DA:5608,0
DA:5609,0
DA:5610,0
DA:5611,0
DA:5612,0
DA:5614,0
DA:5615,0
DA:5616,0
DA:5617,0
DA:5619,0
DA:5620,0
DA:5621,0
DA:5622,0
DA:5624,0
DA:5625,0
DA:5626,0
DA:5627,0
DA:5629,0
DA:5630,0
DA:5631,0
DA:5632,0
DA:5634,0
DA:5635,0
DA:5636,0
DA:5637,0
DA:5639,0
DA:5640,0
DA:5641,0
DA:5642,0
DA:5644,0
DA:5645,0
DA:5646,0
DA:5647,0
DA:5649,0
DA:5650,0
DA:5651,0
DA:5652,0
DA:5654,0
DA:5655,0
DA:5656,0
DA:5657,0
DA:5659,0
DA:5660,0
DA:5661,0
DA:5662,0
DA:5664,0
DA:5665,0
DA:5666,0
DA:5667,0
DA:5669,0
DA:5670,0
DA:5671,0
DA:5672,0
DA:5674,0
DA:5675,0
DA:5676,0
DA:5677,0
DA:5679,0
DA:5680,0
DA:5681,0
DA:5682,0
DA:5684,0
DA:5685,0
DA:5686,0
DA:5687,0
DA:5689,0
DA:5690,0
DA:5691,0
DA:5692,0
DA:5694,0
DA:5695,0
DA:5696,0
DA:5697,0
DA:5699,0
DA:5700,0
DA:5701,0
DA:5702,0
DA:5704,0
DA:5705,0
DA:5706,0
DA:5707,0
DA:5709,0
DA:5710,0
DA:5711,0
DA:5712,0
DA:5714,0
DA:5715,0
DA:5716,0
DA:5717,0
DA:5719,0
DA:5720,0
DA:5721,0
DA:5722,0
DA:5724,0
DA:5725,0
DA:5726,0
DA:5727,0
DA:5729,0
DA:5730,0
DA:5731,0
DA:5732,0
DA:5734,0
DA:5735,0
DA:5736,0
DA:5737,0
DA:5739,0
DA:5740,0
DA:5741,0
DA:5742,0
DA:5744,0
DA:5745,0
DA:5746,0
DA:5747,0
DA:5749,0
DA:5750,0
DA:5751,0
DA:5752,0
DA:5754,0
DA:5755,0
DA:5756,0
DA:5757,0
DA:5759,0
DA:5760,0
DA:5761,0
DA:5762,0
DA:5764,0
DA:5765,0
DA:5766,0
DA:5767,0
DA:5769,0
DA:5770,0
DA:5771,0
DA:5772,0
DA:5774,0
DA:5775,0
DA:5776,0
DA:5777,0
DA:5779,0
DA:5780,0
DA:5781,0
DA:5782,0
DA:5784,0
DA:5785,0
DA:5786,0
DA:5787,0
DA:5789,0
DA:5790,0
DA:5791,0
DA:5792,0
DA:5794,0
DA:5795,0
DA:5796,0
DA:5797,0
DA:5799,0
DA:5800,0
DA:5801,0
DA:5802,0
DA:5804,0
DA:5805,0
DA:5806,0
DA:5807,0
DA:5809,0
DA:5810,0
DA:5811,0
DA:5812,0
DA:5814,0
DA:5815,0
DA:5816,0
DA:5817,0
DA:5819,0
DA:5820,0
DA:5821,0
DA:5822,0
DA:5824,0
DA:5825,0
DA:5826,0
DA:5827,0
DA:5829,0
DA:5830,0
DA:5831,0
DA:5832,0
DA:5834,0
DA:5835,0
DA:5836,0
DA:5837,0
DA:5839,0
DA:5840,0
DA:5841,0
DA:5842,0
DA:5844,0
DA:5845,0
DA:5846,0
DA:5847,0
DA:5849,0
DA:5850,0
DA:5851,0
DA:5852,0
DA:5854,0
DA:5855,0
DA:5856,0
DA:5857,0
DA:5859,0
DA:5860,0
DA:5861,0
DA:5862,0
DA:5864,0
DA:5865,0
DA:5866,0
DA:5867,0
DA:5869,0
DA:5870,0
DA:5871,0
DA:5872,0
DA:5874,0
DA:5875,0
DA:5876,0
DA:5877,0
DA:5879,0
DA:5880,0
DA:5881,0
DA:5882,0
DA:5884,0
DA:5885,0
DA:5886,0
DA:5887,0
DA:5889,0
DA:5890,0
DA:5891,0
DA:5892,0
DA:5894,0
DA:5895,0
DA:5896,0
DA:5897,0
DA:5899,0
DA:5900,0
DA:5901,0
DA:5902,0
DA:5904,0
DA:5905,0
DA:5906,0
DA:5907,0
DA:5909,0
DA:5910,0
DA:5911,0
DA:5912,0
DA:5914,0
DA:5915,0
DA:5916,0
DA:5917,0
DA:5919,0
DA:5920,0
DA:5921,0
DA:5922,0
DA:5924,0
DA:5925,0
DA:5926,0
DA:5927,0
DA:5929,0
DA:5930,0
DA:5931,0
DA:5932,0
DA:5934,0
DA:5935,0
DA:5936,0
DA:5937,0
DA:5939,0
DA:5940,0
DA:5941,0
DA:5942,0
DA:5944,0
DA:5945,0
DA:5946,0
DA:5947,0
DA:5949,0
DA:5950,0
DA:5951,0
DA:5952,0
DA:5954,0
DA:5955,0
DA:5956,0
DA:5957,0
DA:5959,0
DA:5960,0
DA:5961,0
DA:5962,0
DA:5964,0
DA:5965,0
DA:5966,0
DA:5967,0
DA:5969,0
DA:5970,0
DA:5971,0
DA:5972,0
DA:5974,0
DA:5975,0
DA:5976,0
DA:5977,0
DA:5979,0
DA:5980,0
DA:5981,0
DA:5982,0
DA:5984,0
DA:5985,0
DA:5986,0
DA:5987,0
DA:5989,0
DA:5990,0
DA:5991,0
DA:5992,0
DA:5994,0
DA:5995,0
DA:5996,0
DA:5997,0
DA:5999,0
DA:6000,0
DA:6001,0
DA:6002,0
DA:6004,0
DA:6005,0
DA:6006,0
DA:6007,0
DA:6009,0
DA:6010,0
DA:6011,0
DA:6012,0
DA:6014,0
DA:6015,0
DA:6016,0
DA:6017,0
DA:6019,0
DA:6020,0
DA:6021,0
DA:6022,0
DA:6024,0
DA:6025,0
DA:6026,0
DA:6027,0
DA:6029,0
DA:6030,0
DA:6031,0
DA:6032,0
DA:6034,0
DA:6035,0
DA:6036,0
DA:6037,0
DA:6039,0
DA:6040,0
DA:6041,0
DA:6042,0
DA:6044,0
DA:6045,0
DA:6046,0
DA:6047,0
DA:6049,0
DA:6050,0
DA:6051,0
DA:6052,0
DA:6054,0
DA:6055,0
DA:6056,0
DA:6057,0
DA:6059,0
DA:6060,0
DA:6061,0
DA:6062,0
DA:6064,0
DA:6065,0
DA:6066,0
DA:6067,0
DA:6069,0
DA:6070,0
DA:6071,0
DA:6072,0
DA:6074,0
DA:6075,0
DA:6076,0
DA:6077,0
DA:6079,0
DA:6080,0
DA:6081,0
DA:6082,0
DA:6084,0
DA:6085,0
DA:6086,0
DA:6087,0
DA:6089,0
DA:6090,0
DA:6091,0
DA:6092,0
DA:6094,0
DA:6095,0
DA:6096,0
DA:6097,0
DA:6099,0
DA:6100,0
DA:6101,0
DA:6102,0
DA:6104,0
DA:6105,0
DA:6106,0
DA:6107,0
DA:6109,0
DA:6110,0
DA:6111,0
DA:6112,0
DA:6114,0
DA:6115,0
DA:6116,0
DA:6117,0
DA:6119,0
DA:6120,0
DA:6121,0
DA:6122,0
DA:6124,0
DA:6125,0
DA:6126,0
DA:6127,0
DA:6129,0
DA:6130,0
DA:6131,0
DA:6132,0
DA:6134,0
DA:6135,0
DA:6136,0
DA:6137,0
DA:6139,0
DA:6140,0
DA:6141,0
DA:6142,0
DA:6144,0
DA:6145,0
DA:6146,0
DA:6147,0
DA:6149,0
DA:6150,0
DA:6151,0
DA:6152,0
DA:6154,0
DA:6155,0
DA:6156,0
DA:6157,0
DA:6159,0
DA:6160,0
DA:6161,0
DA:6162,0
DA:6164,0
DA:6165,0
DA:6166,0
DA:6167,0
DA:6169,0
DA:6170,0
DA:6171,0
DA:6172,0
DA:6174,0
DA:6175,0
DA:6176,0
DA:6177,0
DA:6179,0
DA:6180,0
DA:6181,0
DA:6182,0
DA:6184,0
DA:6185,0
DA:6186,0
DA:6187,0
DA:6189,0
DA:6190,0
DA:6191,0
DA:6192,0
DA:6194,0
DA:6195,0
DA:6196,0
DA:6197,0
DA:6199,0
DA:6200,0
DA:6201,0
DA:6202,0
DA:6204,0
DA:6205,0
DA:6206,0
DA:6207,0
DA:6209,0
DA:6210,0
DA:6211,0
DA:6212,0
DA:6214,0
DA:6215,0
DA:6216,0
DA:6217,0
DA:6218,0
DA:6220,0
DA:6221,0
DA:6222,0
DA:6223,0
DA:6224,0
DA:6226,0
DA:6227,0
DA:6228,0
DA:6229,0
DA:6230,0
DA:6232,0
DA:6233,0
DA:6234,0
DA:6235,0
DA:6236,0
DA:6238,0
DA:6239,0
DA:6240,0
DA:6241,0
DA:6242,0
DA:6244,0
DA:6245,0
DA:6246,0
DA:6247,0
DA:6248,0
DA:6250,0
DA:6251,0
DA:6252,0
DA:6253,0
DA:6254,0
DA:6256,0
DA:6257,0
DA:6258,0
DA:6259,0
DA:6260,0
DA:6262,0
DA:6263,0
DA:6264,0
DA:6265,0
DA:6266,0
DA:6268,0
DA:6269,0
DA:6270,0
DA:6271,0
DA:6272,0
DA:6274,0
DA:6275,0
DA:6276,0
DA:6277,0
DA:6278,0
DA:6280,0
DA:6281,0
DA:6282,0
DA:6283,0
DA:6284,0
DA:6286,0
DA:6287,0
DA:6288,0
DA:6289,0
DA:6290,0
DA:6292,0
DA:6293,0
DA:6294,0
DA:6295,0
DA:6296,0
DA:6298,0
DA:6299,0
DA:6300,0
DA:6301,0
DA:6302,0
DA:6304,0
DA:6305,0
DA:6306,0
DA:6307,0
DA:6308,0
DA:6310,0
DA:6311,0
DA:6312,0
DA:6313,0
DA:6314,0
DA:6316,0
DA:6317,0
DA:6318,0
DA:6319,0
DA:6320,0
DA:6322,0
DA:6323,0
DA:6324,0
DA:6325,0
DA:6326,0
DA:6328,0
DA:6329,0
DA:6330,0
DA:6331,0
DA:6332,0
DA:6334,0
DA:6335,0
DA:6336,0
DA:6337,0
DA:6338,0
DA:6340,0
DA:6341,0
DA:6342,0
DA:6343,0
DA:6344,0
DA:6346,0
DA:6347,0
DA:6348,0
DA:6349,0
DA:6350,0
DA:6352,0
DA:6353,0
DA:6354,0
DA:6355,0
DA:6356,0
DA:6358,0
DA:6359,0
DA:6360,0
DA:6361,0
DA:6362,0
DA:6364,0
DA:6365,0
DA:6366,0
DA:6367,0
DA:6368,0
DA:6370,0
DA:6371,0
DA:6372,0
DA:6373,0
DA:6374,0
DA:6376,0
DA:6377,0
DA:6378,0
DA:6379,0
DA:6380,0
DA:6382,0
DA:6383,0
DA:6384,0
DA:6385,0
DA:6386,0
DA:6388,0
DA:6389,0
DA:6390,0
DA:6391,0
DA:6392,0
DA:6394,0
DA:6395,0
DA:6396,0
DA:6397,0
DA:6398,0
DA:6400,0
DA:6401,0
DA:6402,0
DA:6403,0
DA:6404,0
DA:6406,0
DA:6407,0
DA:6408,0
DA:6409,0
DA:6410,0
DA:6412,0
DA:6413,0
DA:6414,0
DA:6415,0
DA:6416,0
DA:6418,0
DA:6419,0
DA:6420,0
DA:6421,0
DA:6422,0
DA:6424,0
DA:6425,0
DA:6426,0
DA:6427,0
DA:6428,0
DA:6430,0
DA:6431,0
DA:6432,0
DA:6433,0
DA:6434,0
DA:6436,0
DA:6437,0
DA:6438,0
DA:6439,0
DA:6440,0
DA:6442,0
DA:6443,0
DA:6444,0
DA:6445,0
DA:6446,0
DA:6448,0
DA:6449,0
DA:6450,0
DA:6451,0
DA:6452,0
DA:6454,0
DA:6455,0
DA:6456,0
DA:6457,0
DA:6458,0
DA:6460,0
DA:6461,0
DA:6462,0
DA:6463,0
DA:6464,0
DA:6466,0
DA:6467,0
DA:6468,0
DA:6469,0
DA:6470,0
DA:6472,0
DA:6473,0
DA:6474,0
DA:6475,0
DA:6476,0
DA:6478,0
DA:6480,0
DA:6483,0
DA:6484,0
DA:6485,0
DA:6486,0
DA:6487,0
DA:6488,0
DA:6489,0
DA:6491,0
DA:6492,0
DA:6494,0
DA:6497,0
DA:6499,0
DA:6500,0
DA:6503,0
DA:6504,0
DA:6507,0
DA:6508,0
DA:6510,0
DA:6512,0
DA:6513,0
DA:6514,0
DA:6516,0
DA:6518,0
DA:6519,0
DA:6520,0
DA:6521,0
DA:6522,0
DA:6524,0
DA:6525,0
DA:6526,0
DA:6527,0
DA:6528,0
DA:6529,0
DA:6532,0
DA:6533,0
DA:6534,0
DA:6536,0
DA:6537,0
DA:6540,0
DA:6542,0
LF:1392
LH:0
end_of_record
TN:
SF:/home/nn/redis/FalkorDB/deps/RediSearch/deps/snowball/src_c/stem_UTF_8_spanish.c
FN:1042,1042,spanish_UTF_8_create_env
FN:1044,1044,spanish_UTF_8_close_env
FN:506,586,r_mark_regions
FN:588,636,r_postlude
FN:638,641,r_RV
FN:643,646,r_R1
FN:648,651,r_R2
FN:653,710,r_attached_pronoun
FN:712,882,r_standard_suffix
FN:884,900,r_y_verb_suffix
FN:902,939,r_verb_suffix
FN:941,986,r_residual_suffix
FN:988,1040,spanish_UTF_8_stem
FNDA:0,spanish_UTF_8_create_env
FNDA:0,spanish_UTF_8_close_env
FNDA:0,r_mark_regions
FNDA:0,r_postlude
FNDA:0,r_RV
FNDA:0,r_R1
FNDA:0,r_R2
FNDA:0,r_attached_pronoun
FNDA:0,r_standard_suffix
FNDA:0,r_y_verb_suffix
FNDA:0,r_verb_suffix
FNDA:0,r_residual_suffix
FNDA:0,spanish_UTF_8_stem
FNF:13
FNH:0
DA:506,0
DA:507,0
DA:508,0
DA:509,0
DA:510,0
DA:511,0
DA:512,0
DA:513,0
DA:514,0
DA:516,0
DA:517,0
DA:518,0
DA:520,0
DA:521,0
DA:522,0
DA:523,0
DA:525,0
DA:526,0
DA:527,0
DA:530,0
DA:531,0
DA:532,0
DA:533,0
DA:534,0
DA:535,0
DA:536,0
DA:538,0
DA:539,0
DA:540,0
DA:542,0
DA:543,0
DA:544,0
DA:545,0
DA:546,0
DA:547,0
DA:548,0
DA:551,0
DA:554,0
DA:555,0
DA:556,0
DA:557,0
DA:559,0
DA:561,0
DA:562,0
DA:563,0
DA:566,0
DA:567,0
DA:568,0
DA:570,0
DA:572,0
DA:573,0
DA:574,0
DA:577,0
DA:578,0
DA:579,0
DA:581,0
DA:582,0
DA:583,0
DA:585,0
DA:588,0
DA:590,0
DA:591,0
DA:592,0
DA:593,0
DA:594,0
DA:595,0
DA:596,0
DA:597,0
DA:598,0
DA:599,0
DA:600,0
DA:602,0
DA:603,0
DA:604,0
DA:605,0
DA:607,0
DA:608,0
DA:609,0
DA:610,0
DA:612,0
DA:613,0
DA:614,0
DA:615,0
DA:617,0
DA:618,0
DA:619,0
DA:620,0
DA:622,0
DA:623,0
DA:624,0
DA:625,0
DA:626,0
DA:628,0
DA:630,0
DA:631,0
DA:632,0
DA:633,0
DA:635,0
DA:638,0
DA:639,0
DA:640,0
DA:643,0
DA:644,0
DA:645,0
DA:648,0
DA:649,0
DA:650,0
DA:653,0
DA:655,0
DA:656,0
DA:657,0
DA:658,0
DA:659,0
DA:660,0
DA:661,0
DA:662,0
DA:663,0
DA:665,0
DA:666,0
DA:667,0
DA:668,0
DA:669,0
DA:671,0
DA:672,0
DA:673,0
DA:674,0
DA:675,0
DA:677,0
DA:678,0
DA:679,0
DA:680,0
DA:681,0
DA:683,0
DA:684,0
DA:685,0
DA:686,0
DA:687,0
DA:689,0
DA:690,0
DA:691,0
DA:692,0
DA:693,0
DA:695,0
DA:696,0
DA:697,0
DA:698,0
DA:700,0
DA:701,0
DA:702,0
DA:703,0
DA:704,0
DA:705,0
DA:707,0
DA:709,0
DA:712,0
DA:714,0
DA:715,0
DA:716,0
DA:717,0
DA:718,0
DA:719,0
DA:720,0
DA:721,0
DA:722,0
DA:724,0
DA:725,0
DA:727,0
DA:728,0
DA:729,0
DA:730,0
DA:732,0
DA:733,0
DA:735,0
DA:736,0
DA:737,0
DA:738,0
DA:739,0
DA:740,0
DA:741,0
DA:743,0
DA:744,0
DA:746,0
DA:749,0
DA:750,0
DA:751,0
DA:752,0
DA:754,0
DA:755,0
DA:757,0
DA:758,0
DA:759,0
DA:760,0
DA:762,0
DA:763,0
DA:765,0
DA:766,0
DA:767,0
DA:768,0
DA:770,0
DA:771,0
DA:773,0
DA:774,0
DA:775,0
DA:776,0
DA:778,0
DA:779,0
DA:781,0
DA:782,0
DA:783,0
DA:784,0
DA:785,0
DA:786,0
DA:787,0
DA:788,0
DA:789,0
DA:791,0
DA:792,0
DA:795,0
DA:796,0
DA:797,0
DA:798,0
DA:799,0
DA:800,0
DA:801,0
DA:803,0
DA:804,0
DA:806,0
DA:808,0
DA:811,0
DA:812,0
DA:813,0
DA:814,0
DA:816,0
DA:817,0
DA:819,0
DA:820,0
DA:821,0
DA:822,0
DA:823,0
DA:824,0
DA:825,0
DA:826,0
DA:828,0
DA:829,0
DA:831,0
DA:834,0
DA:835,0
DA:836,0
DA:837,0
DA:839,0
DA:840,0
DA:842,0
DA:843,0
DA:844,0
DA:845,0
DA:846,0
DA:847,0
DA:848,0
DA:849,0
DA:851,0
DA:852,0
DA:854,0
DA:857,0
DA:858,0
DA:859,0
DA:860,0
DA:862,0
DA:863,0
DA:865,0
DA:866,0
DA:867,0
DA:868,0
DA:869,0
DA:870,0
DA:871,0
DA:873,0
DA:874,0
DA:876,0
DA:879,0
DA:881,0
DA:884,0
DA:887,0
DA:888,0
DA:889,0
DA:890,0
DA:891,0
DA:892,0
DA:894,0
DA:895,0
DA:896,0
DA:897,0
DA:899,0
DA:902,0
DA:906,0
DA:907,0
DA:908,0
DA:909,0
DA:910,0
DA:911,0
DA:912,0
DA:914,0
DA:915,0
DA:916,0
DA:917,0
DA:918,0
DA:919,0
DA:920,0
DA:921,0
DA:922,0
DA:924,0
DA:927,0
DA:928,0
DA:929,0
DA:931,0
DA:932,0
DA:933,0
DA:934,0
DA:936,0
DA:938,0
DA:941,0
DA:943,0
DA:944,0
DA:945,0
DA:946,0
DA:947,0
DA:948,0
DA:949,0
DA:950,0
DA:952,0
DA:953,0
DA:955,0
DA:956,0
DA:957,0
DA:958,0
DA:960,0
DA:961,0
DA:963,0
DA:964,0
DA:965,0
DA:966,0
DA:967,0
DA:968,0
DA:969,0
DA:970,0
DA:971,0
DA:973,0
DA:974,0
DA:975,0
DA:977,0
DA:978,0
DA:980,0
DA:983,0
DA:985,0
DA:988,0
DA:990,0
DA:991,0
DA:993,0
DA:995,0
DA:996,0
DA:997,0
DA:999,0
DA:1001,0
DA:1002,0
DA:1003,0
DA:1004,0
DA:1005,0
DA:1007,0
DA:1008,0
DA:1009,0
DA:1010,0
DA:1011,0
DA:1012,0
DA:1014,0
DA:1015,0
DA:1016,0
DA:1017,0
DA:1018,0
DA:1019,0
DA:1022,0
DA:1023,0
DA:1024,0
DA:1026,0
DA:1027,0
DA:1028,0
DA:1030,0
DA:1032,0
DA:1033,0
DA:1034,0
DA:1035,0
DA:1037,0
DA:1039,0
DA:1042,0
DA:1044,0
LF:393
LH:0
end_of_record
TN:
SF:/home/nn/redis/FalkorDB/deps/RediSearch/deps/snowball/src_c/stem_UTF_8_swedish.c
FN:148,170,r_mark_regions
FN:172,199,r_main_suffix
FN:201,223,r_consonant_pair
FN:225,256,r_other_suffix
FN:258,287,swedish_UTF_8_stem
FN:289,289,swedish_UTF_8_create_env
FN:291,291,swedish_UTF_8_close_env
FNDA:0,r_mark_regions
FNDA:0,r_main_suffix
FNDA:0,r_consonant_pair
FNDA:0,r_other_suffix
FNDA:0,swedish_UTF_8_stem
FNDA:0,swedish_UTF_8_create_env
FNDA:0,swedish_UTF_8_close_env
FNF:7
FNH:0
DA:148,0
DA:149,0
DA:150,0
DA:151,0
DA:152,0
DA:153,0
DA:155,0
DA:156,0
DA:158,0
DA:160,0
DA:161,0
DA:162,0
DA:164,0
DA:166,0
DA:167,0
DA:168,0
DA:169,0
DA:172,0
DA:176,0
DA:177,0
DA:178,0
DA:179,0
DA:180,0
DA:181,0
DA:182,0
DA:183,0
DA:185,0
DA:186,0
DA:187,0
DA:188,0
DA:190,0
DA:191,0
DA:192,0
DA:193,0
DA:194,0
DA:196,0
DA:198,0
DA:201,0
DA:204,0
DA:205,0
DA:206,0
DA:207,0
DA:208,0
DA:209,0
DA:210,0
DA:211,0
DA:212,0
DA:213,0
DA:215,0
DA:216,0
DA:217,0
DA:220,0
DA:222,0
DA:225,0
DA:229,0
DA:230,0
DA:231,0
DA:232,0
DA:233,0
DA:234,0
DA:235,0
DA:236,0
DA:237,0
DA:238,0
DA:239,0
DA:241,0
DA:242,0
DA:243,0
DA:244,0
DA:246,0
DA:247,0
DA:248,0
DA:249,0
DA:251,0
DA:253,0
DA:255,0
DA:258,0
DA:259,0
DA:260,0
DA:261,0
DA:263,0
DA:265,0
DA:267,0
DA:268,0
DA:269,0
DA:271,0
DA:273,0
DA:274,0
DA:275,0
DA:277,0
DA:279,0
DA:280,0
DA:281,0
DA:283,0
DA:285,0
DA:286,0
DA:289,0
DA:291,0
LF:98
LH:0
end_of_record
TN:
SF:/home/nn/redis/FalkorDB/deps/RediSearch/deps/snowball/src_c/stem_UTF_8_tamil.c
FN:1004,1023,r_remove_pronoun_prefixes
FN:1025,1077,r_remove_plural_suffix
FN:1079,1103,r_remove_question_suffixes
FN:1105,1122,r_remove_command_suffixes
FN:1124,1146,r_remove_um
FN:1148,1251,r_remove_common_word_endings
FN:1253,1477,r_remove_vetrumai_urupukal
FN:1479,1496,r_remove_tense_suffixes
FN:1498,1805,r_remove_tense_suffix
FN:1807,1873,tamil_UTF_8_stem
FN:1875,1875,tamil_UTF_8_create_env
FN:1877,1877,tamil_UTF_8_close_env
FN:657,660,r_has_min_length
FN:662,732,r_fix_va_start
FN:734,750,r_fix_endings
FN:752,768,r_remove_question_prefixes
FN:770,1002,r_fix_ending
FNDA:0,r_remove_pronoun_prefixes
FNDA:0,r_remove_plural_suffix
FNDA:0,r_remove_question_suffixes
FNDA:0,r_remove_command_suffixes
FNDA:0,r_remove_um
FNDA:0,r_remove_common_word_endings
FNDA:0,r_remove_vetrumai_urupukal
FNDA:0,r_remove_tense_suffixes
FNDA:0,r_remove_tense_suffix
FNDA:0,tamil_UTF_8_stem
FNDA:0,tamil_UTF_8_create_env
FNDA:0,tamil_UTF_8_close_env
FNDA:0,r_has_min_length
FNDA:0,r_fix_va_start
FNDA:0,r_fix_endings
FNDA:0,r_remove_question_prefixes
FNDA:0,r_fix_ending
FNF:17
FNH:0
DA:657,0
DA:658,0
DA:659,0
DA:662,0
DA:663,0
DA:664,0
DA:665,0
DA:666,0
DA:667,0
DA:670,0
DA:671,0
DA:673,0
DA:674,0
DA:675,0
DA:676,0
DA:678,0
DA:679,0
DA:680,0
DA:681,0
DA:682,0
DA:683,0
DA:684,0
DA:687,0
DA:688,0
DA:690,0
DA:691,0
DA:692,0
DA:693,0
DA:695,0
DA:696,0
DA:697,0
DA:698,0
DA:699,0
DA:700,0
DA:701,0
DA:704,0
DA:705,0
DA:707,0
DA:708,0
DA:709,0
DA:710,0
DA:712,0
DA:713,0
DA:714,0
DA:715,0
DA:716,0
DA:717,0
DA:718,0
DA:721,0
DA:722,0
DA:724,0
DA:725,0
DA:726,0
DA:727,0
DA:730,0
DA:731,0
DA:734,0
DA:735,0
DA:736,0
DA:737,0
DA:738,0
DA:739,0
DA:740,0
DA:742,0
DA:743,0
DA:744,0
DA:745,0
DA:747,0
DA:749,0
DA:752,0
DA:753,0
DA:754,0
DA:755,0
DA:756,0
DA:757,0
DA:758,0
DA:759,0
DA:761,0
DA:762,0
DA:763,0
DA:765,0
DA:767,0
DA:770,0
DA:771,0
DA:772,0
DA:774,0
DA:775,0
DA:776,0
DA:777,0
DA:778,0
DA:779,0
DA:780,0
DA:782,0
DA:783,0
DA:784,0
DA:785,0
DA:786,0
DA:787,0
DA:788,0
DA:789,0
DA:791,0
DA:792,0
DA:793,0
DA:795,0
DA:796,0
DA:797,0
DA:798,0
DA:799,0
DA:800,0
DA:801,0
DA:802,0
DA:803,0
DA:804,0
DA:806,0
DA:807,0
DA:808,0
DA:809,0
DA:811,0
DA:812,0
DA:813,0
DA:814,0
DA:815,0
DA:816,0
DA:817,0
DA:818,0
DA:820,0
DA:821,0
DA:822,0
DA:823,0
DA:824,0
DA:825,0
DA:826,0
DA:827,0
DA:829,0
DA:830,0
DA:831,0
DA:832,0
DA:833,0
DA:834,0
DA:835,0
DA:836,0
DA:838,0
DA:839,0
DA:840,0
DA:841,0
DA:842,0
DA:843,0
DA:844,0
DA:845,0
DA:846,0
DA:847,0
DA:848,0
DA:849,0
DA:851,0
DA:853,0
DA:854,0
DA:855,0
DA:857,0
DA:858,0
DA:859,0
DA:860,0
DA:861,0
DA:862,0
DA:863,0
DA:864,0
DA:865,0
DA:866,0
DA:867,0
DA:869,0
DA:870,0
DA:871,0
DA:872,0
DA:874,0
DA:875,0
DA:876,0
DA:877,0
DA:878,0
DA:879,0
DA:880,0
DA:881,0
DA:882,0
DA:883,0
DA:884,0
DA:886,0
DA:887,0
DA:888,0
DA:889,0
DA:890,0
DA:891,0
DA:892,0
DA:893,0
DA:895,0
DA:896,0
DA:897,0
DA:898,0
DA:899,0
DA:900,0
DA:901,0
DA:902,0
DA:903,0
DA:905,0
DA:906,0
DA:907,0
DA:908,0
DA:909,0
DA:910,0
DA:911,0
DA:912,0
DA:913,0
DA:914,0
DA:915,0
DA:916,0
DA:918,0
DA:919,0
DA:920,0
DA:921,0
DA:922,0
DA:924,0
DA:925,0
DA:926,0
DA:927,0
DA:928,0
DA:929,0
DA:930,0
DA:931,0
DA:933,0
DA:934,0
DA:935,0
DA:936,0
DA:937,0
DA:938,0
DA:939,0
DA:940,0
DA:941,0
DA:942,0
DA:943,0
DA:945,0
DA:947,0
DA:948,0
DA:949,0
DA:951,0
DA:952,0
DA:953,0
DA:954,0
DA:955,0
DA:956,0
DA:957,0
DA:958,0
DA:959,0
DA:960,0
DA:961,0
DA:963,0
DA:965,0
DA:966,0
DA:967,0
DA:969,0
DA:970,0
DA:971,0
DA:972,0
DA:973,0
DA:974,0
DA:975,0
DA:976,0
DA:978,0
DA:979,0
DA:980,0
DA:981,0
DA:982,0
DA:983,0
DA:984,0
DA:985,0
DA:986,0
DA:987,0
DA:988,0
DA:989,0
DA:991,0
DA:992,0
DA:994,0
DA:995,0
DA:996,0
DA:999,0
DA:1000,0
DA:1001,0
DA:1004,0
DA:1005,0
DA:1006,0
DA:1007,0
DA:1008,0
DA:1009,0
DA:1010,0
DA:1011,0
DA:1012,0
DA:1013,0
DA:1015,0
DA:1016,0
DA:1017,0
DA:1018,0
DA:1020,0
DA:1022,0
DA:1025,0
DA:1026,0
DA:1027,0
DA:1029,0
DA:1030,0
DA:1031,0
DA:1032,0
DA:1033,0
DA:1034,0
DA:1035,0
DA:1036,0
DA:1037,0
DA:1039,0
DA:1041,0
DA:1042,0
DA:1043,0
DA:1045,0
DA:1046,0
DA:1047,0
DA:1048,0
DA:1049,0
DA:1050,0
DA:1051,0
DA:1052,0
DA:1054,0
DA:1055,0
DA:1056,0
DA:1057,0
DA:1058,0
DA:1059,0
DA:1060,0
DA:1061,0
DA:1063,0
DA:1064,0
DA:1065,0
DA:1066,0
DA:1067,0
DA:1068,0
DA:1069,0
DA:1070,0
DA:1073,0
DA:1074,0
DA:1075,0
DA:1076,0
DA:1079,0
DA:1080,0
DA:1081,0
DA:1083,0
DA:1084,0
DA:1086,0
DA:1087,0
DA:1088,0
DA:1089,0
DA:1090,0
DA:1091,0
DA:1093,0
DA:1094,0
DA:1095,0
DA:1097,0
DA:1099,0
DA:1100,0
DA:1102,0
DA:1105,0
DA:1106,0
DA:1107,0
DA:1109,0
DA:1110,0
DA:1112,0
DA:1113,0
DA:1114,0
DA:1115,0
DA:1116,0
DA:1117,0
DA:1119,0
DA:1120,0
DA:1121,0
DA:1124,0
DA:1125,0
DA:1126,0
DA:1127,0
DA:1129,0
DA:1131,0
DA:1132,0
DA:1133,0
DA:1134,0
DA:1135,0
DA:1137,0
DA:1138,0
DA:1139,0
DA:1140,0
DA:1141,0
DA:1143,0
DA:1145,0
DA:1148,0
DA:1149,0
DA:1150,0
DA:1151,0
DA:1153,0
DA:1155,0
DA:1156,0
DA:1157,0
DA:1158,0
DA:1159,0
DA:1160,0
DA:1161,0
DA:1162,0
DA:1163,0
DA:1164,0
DA:1165,0
DA:1166,0
DA:1167,0
DA:1168,0
DA:1169,0
DA:1170,0
DA:1171,0
DA:1172,0
DA:1173,0
DA:1174,0
DA:1175,0
DA:1176,0
DA:1177,0
DA:1178,0
DA:1179,0
DA:1180,0
DA:1181,0
DA:1182,0
DA:1183,0
DA:1184,0
DA:1185,0
DA:1186,0
DA:1187,0
DA:1188,0
DA:1189,0
DA:1190,0
DA:1191,0
DA:1192,0
DA:1193,0
DA:1194,0
DA:1195,0
DA:1196,0
DA:1197,0
DA:1198,0
DA:1199,0
DA:1200,0
DA:1201,0
DA:1202,0
DA:1203,0
DA:1204,0
DA:1205,0
DA:1206,0
DA:1207,0
DA:1208,0
DA:1209,0
DA:1211,0
DA:1213,0
DA:1214,0
DA:1215,0
DA:1216,0
DA:1217,0
DA:1218,0
DA:1219,0
DA:1220,0
DA:1222,0
DA:1223,0
DA:1224,0
DA:1225,0
DA:1227,0
DA:1228,0
DA:1230,0
DA:1231,0
DA:1232,0
DA:1233,0
DA:1234,0
DA:1235,0
DA:1236,0
DA:1237,0
DA:1238,0
DA:1240,0
DA:1241,0
DA:1244,0
DA:1245,0
DA:1247,0
DA:1248,0
DA:1250,0
DA:1253,0
DA:1254,0
DA:1255,0
DA:1256,0
DA:1257,0
DA:1259,0
DA:1261,0
DA:1262,0
DA:1263,0
DA:1264,0
DA:1265,0
DA:1266,0
DA:1267,0
DA:1269,0
DA:1271,0
DA:1272,0
DA:1273,0
DA:1274,0
DA:1275,0
DA:1276,0
DA:1277,0
DA:1278,0
DA:1279,0
DA:1280,0
DA:1281,0
DA:1282,0
DA:1284,0
DA:1285,0
DA:1286,0
DA:1287,0
DA:1288,0
DA:1289,0
DA:1290,0
DA:1292,0
DA:1294,0
DA:1295,0
DA:1296,0
DA:1297,0
DA:1298,0
DA:1299,0
DA:1300,0
DA:1301,0
DA:1304,0
DA:1305,0
DA:1306,0
DA:1307,0
DA:1309,0
DA:1311,0
DA:1312,0
DA:1313,0
DA:1314,0
DA:1315,0
DA:1316,0
DA:1317,0
DA:1318,0
DA:1319,0
DA:1320,0
DA:1321,0
DA:1322,0
DA:1323,0
DA:1324,0
DA:1325,0
DA:1326,0
DA:1327,0
DA:1328,0
DA:1329,0
DA:1330,0
DA:1331,0
DA:1332,0
DA:1333,0
DA:1334,0
DA:1335,0
DA:1336,0
DA:1337,0
DA:1338,0
DA:1339,0
DA:1341,0
DA:1343,0
DA:1344,0
DA:1345,0
DA:1346,0
DA:1347,0
DA:1348,0
DA:1349,0
DA:1350,0
DA:1351,0
DA:1352,0
DA:1353,0
DA:1354,0
DA:1355,0
DA:1356,0
DA:1357,0
DA:1358,0
DA:1359,0
DA:1360,0
DA:1361,0
DA:1362,0
DA:1363,0
DA:1364,0
DA:1365,0
DA:1366,0
DA:1367,0
DA:1368,0
DA:1369,0
DA:1370,0
DA:1371,0
DA:1372,0
DA:1373,0
DA:1374,0
DA:1375,0
DA:1376,0
DA:1377,0
DA:1378,0
DA:1379,0
DA:1380,0
DA:1381,0
DA:1383,0
DA:1385,0
DA:1386,0
DA:1387,0
DA:1388,0
DA:1390,0
DA:1391,0
DA:1392,0
DA:1393,0
DA:1395,0
DA:1397,0
DA:1398,0
DA:1399,0
DA:1400,0
DA:1401,0
DA:1402,0
DA:1403,0
DA:1404,0
DA:1405,0
DA:1406,0
DA:1407,0
DA:1408,0
DA:1409,0
DA:1410,0
DA:1411,0
DA:1412,0
DA:1413,0
DA:1414,0
DA:1415,0
DA:1416,0
DA:1417,0
DA:1418,0
DA:1419,0
DA:1420,0
DA:1421,0
DA:1422,0
DA:1423,0
DA:1424,0
DA:1425,0
DA:1426,0
DA:1427,0
DA:1428,0
DA:1429,0
DA:1430,0
DA:1431,0
DA:1432,0
DA:1433,0
DA:1435,0
DA:1438,0
DA:1439,0
DA:1440,0
DA:1441,0
DA:1443,0
DA:1445,0
DA:1446,0
DA:1447,0
DA:1448,0
DA:1449,0
DA:1450,0
DA:1451,0
DA:1452,0
DA:1453,0
DA:1455,0
DA:1458,0
DA:1459,0
DA:1460,0
DA:1461,0
DA:1462,0
DA:1463,0
DA:1464,0
DA:1465,0
DA:1466,0
DA:1468,0
DA:1469,0
DA:1471,0
DA:1473,0
DA:1474,0
DA:1476,0
DA:1479,0
DA:1480,0
DA:1481,0
DA:1482,0
DA:1483,0
DA:1484,0
DA:1485,0
DA:1486,0
DA:1488,0
DA:1490,0
DA:1491,0
DA:1492,0
DA:1493,0
DA:1495,0
DA:1498,0
DA:1499,0
DA:1500,0
DA:1501,0
DA:1503,0
DA:1505,0
DA:1506,0
DA:1507,0
DA:1508,0
DA:1509,0
DA:1510,0
DA:1511,0
DA:1512,0
DA:1513,0
DA:1515,0
DA:1516,0
DA:1518,0
DA:1519,0
DA:1520,0
DA:1521,0
DA:1522,0
DA:1523,0
DA:1524,0
DA:1525,0
DA:1526,0
DA:1527,0
DA:1528,0
DA:1529,0
DA:1530,0
DA:1531,0
DA:1532,0
DA:1533,0
DA:1534,0
DA:1535,0
DA:1536,0
DA:1537,0
DA:1538,0
DA:1539,0
DA:1540,0
DA:1541,0
DA:1542,0
DA:1543,0
DA:1544,0
DA:1545,0
DA:1546,0
DA:1547,0
DA:1548,0
DA:1549,0
DA:1550,0
DA:1551,0
DA:1552,0
DA:1553,0
DA:1554,0
DA:1555,0
DA:1557,0
DA:1559,0
DA:1560,0
DA:1561,0
DA:1562,0
DA:1563,0
DA:1564,0
DA:1565,0
DA:1566,0
DA:1567,0
DA:1568,0
DA:1569,0
DA:1570,0
DA:1571,0
DA:1572,0
DA:1573,0
DA:1574,0
DA:1575,0
DA:1576,0
DA:1577,0
DA:1578,0
DA:1579,0
DA:1580,0
DA:1581,0
DA:1582,0
DA:1583,0
DA:1584,0
DA:1585,0
DA:1586,0
DA:1587,0
DA:1588,0
DA:1589,0
DA:1590,0
DA:1591,0
DA:1592,0
DA:1593,0
DA:1594,0
DA:1595,0
DA:1596,0
DA:1597,0
DA:1598,0
DA:1599,0
DA:1600,0
DA:1601,0
DA:1602,0
DA:1603,0
DA:1604,0
DA:1605,0
DA:1606,0
DA:1607,0
DA:1608,0
DA:1609,0
DA:1610,0
DA:1611,0
DA:1612,0
DA:1613,0
DA:1614,0
DA:1615,0
DA:1616,0
DA:1618,0
DA:1620,0
DA:1621,0
DA:1622,0
DA:1623,0
DA:1624,0
DA:1625,0
DA:1626,0
DA:1627,0
DA:1628,0
DA:1629,0
DA:1630,0
DA:1631,0
DA:1632,0
DA:1633,0
DA:1634,0
DA:1635,0
DA:1636,0
DA:1637,0
DA:1638,0
DA:1639,0
DA:1640,0
DA:1641,0
DA:1642,0
DA:1643,0
DA:1644,0
DA:1645,0
DA:1646,0
DA:1647,0
DA:1648,0
DA:1649,0
DA:1650,0
DA:1651,0
DA:1652,0
DA:1653,0
DA:1654,0
DA:1655,0
DA:1657,0
DA:1658,0
DA:1659,0
DA:1660,0
DA:1662,0
DA:1663,0
DA:1665,0
DA:1666,0
DA:1667,0
DA:1668,0
DA:1669,0
DA:1670,0
DA:1671,0
DA:1672,0
DA:1673,0
DA:1674,0
DA:1675,0
DA:1676,0
DA:1677,0
DA:1679,0
DA:1681,0
DA:1682,0
DA:1683,0
DA:1684,0
DA:1685,0
DA:1686,0
DA:1687,0
DA:1688,0
DA:1689,0
DA:1690,0
DA:1691,0
DA:1692,0
DA:1693,0
DA:1694,0
DA:1695,0
DA:1696,0
DA:1697,0
DA:1698,0
DA:1699,0
DA:1700,0
DA:1701,0
DA:1702,0
DA:1703,0
DA:1704,0
DA:1705,0
DA:1706,0
DA:1707,0
DA:1708,0
DA:1709,0
DA:1710,0
DA:1711,0
DA:1712,0
DA:1713,0
DA:1714,0
DA:1715,0
DA:1716,0
DA:1717,0
DA:1718,0
DA:1719,0
DA:1720,0
DA:1721,0
DA:1722,0
DA:1723,0
DA:1724,0
DA:1725,0
DA:1726,0
DA:1727,0
DA:1728,0
DA:1729,0
DA:1730,0
DA:1731,0
DA:1732,0
DA:1733,0
DA:1734,0
DA:1735,0
DA:1736,0
DA:1737,0
DA:1738,0
DA:1739,0
DA:1740,0
DA:1741,0
DA:1742,0
DA:1743,0
DA:1744,0
DA:1745,0
DA:1746,0
DA:1747,0
DA:1748,0
DA:1750,0
DA:1751,0
DA:1752,0
DA:1753,0
DA:1755,0
DA:1756,0
DA:1758,0
DA:1759,0
DA:1760,0
DA:1761,0
DA:1762,0
DA:1763,0
DA:1764,0
DA:1765,0
DA:1766,0
DA:1767,0
DA:1768,0
DA:1770,0
DA:1771,0
DA:1772,0
DA:1773,0
DA:1775,0
DA:1776,0
DA:1777,0
DA:1779,0
DA:1780,0
DA:1783,0
DA:1784,0
DA:1785,0
DA:1787,0
DA:1788,0
DA:1789,0
DA:1790,0
DA:1791,0
DA:1792,0
DA:1793,0
DA:1795,0
DA:1796,0
DA:1797,0
DA:1799,0
DA:1801,0
DA:1802,0
DA:1804,0
DA:1807,0
DA:1808,0
DA:1809,0
DA:1810,0
DA:1811,0
DA:1813,0
DA:1815,0
DA:1816,0
DA:1818,0
DA:1819,0
DA:1820,0
DA:1822,0
DA:1824,0
DA:1825,0
DA:1826,0
DA:1828,0
DA:1830,0
DA:1831,0
DA:1832,0
DA:1834,0
DA:1836,0
DA:1837,0
DA:1838,0
DA:1840,0
DA:1842,0
DA:1843,0
DA:1844,0
DA:1846,0
DA:1848,0
DA:1849,0
DA:1850,0
DA:1852,0
DA:1854,0
DA:1855,0
DA:1856,0
DA:1858,0
DA:1860,0
DA:1861,0
DA:1862,0
DA:1864,0
DA:1866,0
DA:1867,0
DA:1868,0
DA:1870,0
DA:1872,0
DA:1875,0
DA:1877,0
LF:1019
LH:0
end_of_record
TN:
SF:/home/nn/redis/FalkorDB/deps/RediSearch/deps/snowball/src_c/stem_UTF_8_turkish.c
FN:1158,1352,r_stem_suffix_chain_before_ki
FN:1354,1862,r_stem_noun_suffixes
FN:1864,1893,r_post_process_last_consonants
FN:1895,2003,r_append_U_to_stems_ending_with_d_or_g
FN:2005,2014,r_is_reserved_word
FN:2016,2037,r_more_than_one_syllable_word
FN:2039,2065,r_postlude
FN:2067,2091,turkish_UTF_8_stem
FN:2093,2093,turkish_UTF_8_create_env
FN:2095,2095,turkish_UTF_8_close_env
FN:459,510,r_check_vowel_harmony
FN:512,544,r_mark_suffix_with_optional_n_consonant
FN:546,578,r_mark_suffix_with_optional_s_consonant
FN:580,612,r_mark_suffix_with_optional_y_consonant
FN:614,644,r_mark_suffix_with_optional_U_vowel
FN:646,653,r_mark_possessives
FN:655,664,r_mark_sU
FN:666,670,r_mark_lArI
FN:672,681,r_mark_yU
FN:683,689,r_mark_nU
FN:691,701,r_mark_nUn
FN:703,713,r_mark_yA
FN:715,722,r_mark_nA
FN:724,731,r_mark_DA
FN:733,740,r_mark_ndA
FN:742,749,r_mark_DAn
FN:751,758,r_mark_ndAn
FN:760,770,r_mark_ylA
FN:772,775,r_mark_ki
FN:777,787,r_mark_ncA
FN:789,799,r_mark_yUm
FN:801,808,r_mark_sUn
FN:810,820,r_mark_yUz
FN:822,826,r_mark_sUnUz
FN:828,835,r_mark_lAr
FN:837,844,r_mark_nUz
FN:846,853,r_mark_DUr
FN:855,859,r_mark_cAsInA
FN:861,870,r_mark_yDU
FN:872,879,r_mark_ysA
FN:881,891,r_mark_ymUs_
FN:893,899,r_mark_yken
FN:901,1156,r_stem_nominal_verb_suffixes
FNDA:0,r_stem_suffix_chain_before_ki
FNDA:0,r_stem_noun_suffixes
FNDA:0,r_post_process_last_consonants
FNDA:0,r_append_U_to_stems_ending_with_d_or_g
FNDA:0,r_is_reserved_word
FNDA:0,r_more_than_one_syllable_word
FNDA:0,r_postlude
FNDA:0,turkish_UTF_8_stem
FNDA:0,turkish_UTF_8_create_env
FNDA:0,turkish_UTF_8_close_env
FNDA:0,r_check_vowel_harmony
FNDA:0,r_mark_suffix_with_optional_n_consonant
FNDA:0,r_mark_suffix_with_optional_s_consonant
FNDA:0,r_mark_suffix_with_optional_y_consonant
FNDA:0,r_mark_suffix_with_optional_U_vowel
FNDA:0,r_mark_possessives
FNDA:0,r_mark_sU
FNDA:0,r_mark_lArI
FNDA:0,r_mark_yU
FNDA:0,r_mark_nU
FNDA:0,r_mark_nUn
FNDA:0,r_mark_yA
FNDA:0,r_mark_nA
FNDA:0,r_mark_DA
FNDA:0,r_mark_ndA
FNDA:0,r_mark_DAn
FNDA:0,r_mark_ndAn
FNDA:0,r_mark_ylA
FNDA:0,r_mark_ki
FNDA:0,r_mark_ncA
FNDA:0,r_mark_yUm
FNDA:0,r_mark_sUn
FNDA:0,r_mark_yUz
FNDA:0,r_mark_sUnUz
FNDA:0,r_mark_lAr
FNDA:0,r_mark_nUz
FNDA:0,r_mark_DUr
FNDA:0,r_mark_cAsInA
FNDA:0,r_mark_yDU
FNDA:0,r_mark_ysA
FNDA:0,r_mark_ymUs_
FNDA:0,r_mark_yken
FNDA:0,r_stem_nominal_verb_suffixes
FNF:43
FNH:0
DA:459,0
DA:460,0
DA:461,0
DA:462,0
DA:463,0
DA:464,0
DA:465,0
DA:466,0
DA:467,0
DA:468,0
DA:469,0
DA:470,0
DA:471,0
DA:472,0
DA:473,0
DA:474,0
DA:475,0
DA:476,0
DA:477,0
DA:478,0
DA:479,0
DA:480,0
DA:481,0
DA:482,0
DA:483,0
DA:484,0
DA:485,0
DA:486,0
DA:487,0
DA:488,0
DA:489,0
DA:490,0
DA:491,0
DA:492,0
DA:493,0
DA:494,0
DA:495,0
DA:496,0
DA:497,0
DA:498,0
DA:499,0
DA:500,0
DA:501,0
DA:502,0
DA:503,0
DA:504,0
DA:506,0
DA:507,0
DA:509,0
DA:512,0
DA:513,0
DA:514,0
DA:515,0
DA:516,0
DA:517,0
DA:518,0
DA:520,0
DA:521,0
DA:522,0
DA:523,0
DA:524,0
DA:525,0
DA:526,0
DA:527,0
DA:529,0
DA:530,0
DA:531,0
DA:533,0
DA:534,0
DA:535,0
DA:536,0
DA:538,0
DA:539,0
DA:542,0
DA:543,0
DA:546,0
DA:547,0
DA:548,0
DA:549,0
DA:550,0
DA:551,0
DA:552,0
DA:554,0
DA:555,0
DA:556,0
DA:557,0
DA:558,0
DA:559,0
DA:560,0
DA:561,0
DA:563,0
DA:564,0
DA:565,0
DA:567,0
DA:568,0
DA:569,0
DA:570,0
DA:572,0
DA:573,0
DA:576,0
DA:577,0
DA:580,0
DA:581,0
DA:582,0
DA:583,0
DA:584,0
DA:585,0
DA:586,0
DA:588,0
DA:589,0
DA:590,0
DA:591,0
DA:592,0
DA:593,0
DA:594,0
DA:595,0
DA:597,0
DA:598,0
DA:599,0
DA:601,0
DA:602,0
DA:603,0
DA:604,0
DA:606,0
DA:607,0
DA:610,0
DA:611,0
DA:614,0
DA:615,0
DA:616,0
DA:617,0
DA:618,0
DA:619,0
DA:621,0
DA:622,0
DA:623,0
DA:624,0
DA:625,0
DA:626,0
DA:627,0
DA:629,0
DA:630,0
DA:631,0
DA:633,0
DA:634,0
DA:635,0
DA:636,0
DA:638,0
DA:639,0
DA:642,0
DA:643,0
DA:646,0
DA:647,0
DA:648,0
DA:649,0
DA:650,0
DA:652,0
DA:655,0
DA:656,0
DA:657,0
DA:659,0
DA:660,0
DA:661,0
DA:663,0
DA:666,0
DA:667,0
DA:668,0
DA:669,0
DA:672,0
DA:673,0
DA:674,0
DA:676,0
DA:677,0
DA:678,0
DA:680,0
DA:683,0
DA:684,0
DA:685,0
DA:687,0
DA:688,0
DA:691,0
DA:692,0
DA:693,0
DA:695,0
DA:696,0
DA:697,0
DA:698,0
DA:700,0
DA:703,0
DA:704,0
DA:705,0
DA:707,0
DA:708,0
DA:709,0
DA:710,0
DA:712,0
DA:715,0
DA:716,0
DA:717,0
DA:719,0
DA:720,0
DA:721,0
DA:724,0
DA:725,0
DA:726,0
DA:728,0
DA:729,0
DA:730,0
DA:733,0
DA:734,0
DA:735,0
DA:737,0
DA:738,0
DA:739,0
DA:742,0
DA:743,0
DA:744,0
DA:746,0
DA:747,0
DA:748,0
DA:751,0
DA:752,0
DA:753,0
DA:755,0
DA:756,0
DA:757,0
DA:760,0
DA:761,0
DA:762,0
DA:764,0
DA:765,0
DA:766,0
DA:767,0
DA:769,0
DA:772,0
DA:773,0
DA:774,0
DA:777,0
DA:778,0
DA:779,0
DA:781,0
DA:782,0
DA:783,0
DA:784,0
DA:786,0
DA:789,0
DA:790,0
DA:791,0
DA:793,0
DA:794,0
DA:795,0
DA:796,0
DA:798,0
DA:801,0
DA:802,0
DA:803,0
DA:805,0
DA:806,0
DA:807,0
DA:810,0
DA:811,0
DA:812,0
DA:814,0
DA:815,0
DA:816,0
DA:817,0
DA:819,0
DA:822,0
DA:823,0
DA:824,0
DA:825,0
DA:828,0
DA:829,0
DA:830,0
DA:832,0
DA:833,0
DA:834,0
DA:837,0
DA:838,0
DA:839,0
DA:841,0
DA:842,0
DA:843,0
DA:846,0
DA:847,0
DA:848,0
DA:850,0
DA:851,0
DA:852,0
DA:855,0
DA:856,0
DA:857,0
DA:858,0
DA:861,0
DA:862,0
DA:863,0
DA:865,0
DA:866,0
DA:867,0
DA:869,0
DA:872,0
DA:873,0
DA:874,0
DA:875,0
DA:876,0
DA:878,0
DA:881,0
DA:882,0
DA:883,0
DA:885,0
DA:886,0
DA:887,0
DA:888,0
DA:890,0
DA:893,0
DA:894,0
DA:895,0
DA:896,0
DA:898,0
DA:901,0
DA:902,0
DA:903,0
DA:904,0
DA:905,0
DA:906,0
DA:907,0
DA:908,0
DA:910,0
DA:911,0
DA:912,0
DA:913,0
DA:914,0
DA:915,0
DA:917,0
DA:918,0
DA:919,0
DA:920,0
DA:921,0
DA:922,0
DA:924,0
DA:925,0
DA:926,0
DA:927,0
DA:928,0
DA:929,0
DA:932,0
DA:933,0
DA:934,0
DA:935,0
DA:936,0
DA:937,0
DA:938,0
DA:940,0
DA:941,0
DA:942,0
DA:943,0
DA:945,0
DA:946,0
DA:947,0
DA:948,0
DA:949,0
DA:950,0
DA:952,0
DA:953,0
DA:954,0
DA:955,0
DA:956,0
DA:957,0
DA:959,0
DA:960,0
DA:961,0
DA:962,0
DA:963,0
DA:964,0
DA:966,0
DA:967,0
DA:968,0
DA:969,0
DA:970,0
DA:971,0
DA:973,0
DA:974,0
DA:975,0
DA:977,0
DA:978,0
DA:979,0
DA:980,0
DA:982,0
DA:983,0
DA:984,0
DA:985,0
DA:986,0
DA:987,0
DA:989,0
DA:990,0
DA:991,0
DA:993,0
DA:994,0
DA:995,0
DA:996,0
DA:997,0
DA:998,0
DA:1000,0
DA:1001,0
DA:1002,0
DA:1003,0
DA:1004,0
DA:1005,0
DA:1007,0
DA:1008,0
DA:1009,0
DA:1010,0
DA:1011,0
DA:1012,0
DA:1014,0
DA:1015,0
DA:1016,0
DA:1017,0
DA:1018,0
DA:1019,0
DA:1022,0
DA:1023,0
DA:1026,0
DA:1027,0
DA:1028,0
DA:1029,0
DA:1030,0
DA:1031,0
DA:1032,0
DA:1034,0
DA:1035,0
DA:1036,0
DA:1037,0
DA:1039,0
DA:1040,0
DA:1041,0
DA:1042,0
DA:1043,0
DA:1044,0
DA:1047,0
DA:1048,0
DA:1049,0
DA:1050,0
DA:1051,0
DA:1052,0
DA:1053,0
DA:1054,0
DA:1056,0
DA:1057,0
DA:1058,0
DA:1059,0
DA:1060,0
DA:1061,0
DA:1063,0
DA:1064,0
DA:1065,0
DA:1066,0
DA:1067,0
DA:1068,0
DA:1070,0
DA:1071,0
DA:1072,0
DA:1073,0
DA:1074,0
DA:1075,0
DA:1078,0
DA:1079,0
DA:1080,0
DA:1081,0
DA:1083,0
DA:1084,0
DA:1085,0
DA:1086,0
DA:1087,0
DA:1089,0
DA:1092,0
DA:1093,0
DA:1094,0
DA:1095,0
DA:1096,0
DA:1098,0
DA:1099,0
DA:1100,0
DA:1102,0
DA:1103,0
DA:1104,0
DA:1105,0
DA:1106,0
DA:1107,0
DA:1109,0
DA:1110,0
DA:1111,0
DA:1112,0
DA:1113,0
DA:1114,0
DA:1116,0
DA:1117,0
DA:1118,0
DA:1119,0
DA:1120,0
DA:1121,0
DA:1123,0
DA:1124,0
DA:1125,0
DA:1126,0
DA:1127,0
DA:1128,0
DA:1130,0
DA:1131,0
DA:1132,0
DA:1133,0
DA:1134,0
DA:1135,0
DA:1137,0
DA:1138,0
DA:1139,0
DA:1141,0
DA:1142,0
DA:1143,0
DA:1144,0
DA:1146,0
DA:1150,0
DA:1151,0
DA:1152,0
DA:1153,0
DA:1155,0
DA:1158,0
DA:1159,0
DA:1160,0
DA:1161,0
DA:1163,0
DA:1164,0
DA:1165,0
DA:1166,0
DA:1168,0
DA:1169,0
DA:1170,0
DA:1172,0
DA:1173,0
DA:1174,0
DA:1175,0
DA:1176,0
DA:1177,0
DA:1179,0
DA:1180,0
DA:1181,0
DA:1183,0
DA:1184,0
DA:1185,0
DA:1186,0
DA:1188,0
DA:1191,0
DA:1192,0
DA:1193,0
DA:1194,0
DA:1195,0
DA:1196,0
DA:1198,0
DA:1199,0
DA:1200,0
DA:1202,0
DA:1203,0
DA:1204,0
DA:1205,0
DA:1206,0
DA:1208,0
DA:1209,0
DA:1210,0
DA:1212,0
DA:1213,0
DA:1214,0
DA:1216,0
DA:1220,0
DA:1221,0
DA:1224,0
DA:1225,0
DA:1226,0
DA:1227,0
DA:1228,0
DA:1229,0
DA:1231,0
DA:1232,0
DA:1233,0
DA:1235,0
DA:1236,0
DA:1237,0
DA:1238,0
DA:1239,0
DA:1240,0
DA:1242,0
DA:1243,0
DA:1244,0
DA:1246,0
DA:1247,0
DA:1248,0
DA:1249,0
DA:1250,0
DA:1251,0
DA:1252,0
DA:1253,0
DA:1255,0
DA:1256,0
DA:1257,0
DA:1258,0
DA:1259,0
DA:1260,0
DA:1263,0
DA:1264,0
DA:1265,0
DA:1266,0
DA:1268,0
DA:1269,0
DA:1270,0
DA:1271,0
DA:1272,0
DA:1274,0
DA:1275,0
DA:1276,0
DA:1278,0
DA:1279,0
DA:1280,0
DA:1282,0
DA:1285,0
DA:1286,0
DA:1287,0
DA:1288,0
DA:1289,0
DA:1290,0
DA:1293,0
DA:1294,0
DA:1297,0
DA:1298,0
DA:1299,0
DA:1300,0
DA:1301,0
DA:1303,0
DA:1304,0
DA:1305,0
DA:1306,0
DA:1308,0
DA:1309,0
DA:1310,0
DA:1312,0
DA:1313,0
DA:1314,0
DA:1315,0
DA:1316,0
DA:1317,0
DA:1319,0
DA:1320,0
DA:1321,0
DA:1323,0
DA:1324,0
DA:1325,0
DA:1326,0
DA:1327,0
DA:1329,0
DA:1330,0
DA:1331,0
DA:1333,0
DA:1334,0
DA:1335,0
DA:1337,0
DA:1340,0
DA:1341,0
DA:1342,0
DA:1343,0
DA:1344,0
DA:1347,0
DA:1350,0
DA:1351,0
DA:1354,0
DA:1355,0
DA:1356,0
DA:1357,0
DA:1358,0
DA:1359,0
DA:1361,0
DA:1362,0
DA:1363,0
DA:1365,0
DA:1366,0
DA:1367,0
DA:1368,0
DA:1370,0
DA:1373,0
DA:1374,0
DA:1375,0
DA:1376,0
DA:1377,0
DA:1378,0
DA:1379,0
DA:1381,0
DA:1382,0
DA:1383,0
DA:1385,0
DA:1386,0
DA:1387,0
DA:1388,0
DA:1389,0
DA:1390,0
DA:1392,0
DA:1393,0
DA:1394,0
DA:1396,0
DA:1397,0
DA:1398,0
DA:1399,0
DA:1400,0
DA:1401,0
DA:1402,0
DA:1403,0
DA:1405,0
DA:1406,0
DA:1407,0
DA:1408,0
DA:1409,0
DA:1410,0
DA:1413,0
DA:1414,0
DA:1415,0
DA:1416,0
DA:1418,0
DA:1419,0
DA:1420,0
DA:1421,0
DA:1422,0
DA:1424,0
DA:1425,0
DA:1426,0
DA:1428,0
DA:1429,0
DA:1430,0
DA:1432,0
DA:1435,0
DA:1436,0
DA:1437,0
DA:1438,0
DA:1439,0
DA:1440,0
DA:1441,0
DA:1443,0
DA:1444,0
DA:1445,0
DA:1447,0
DA:1448,0
DA:1449,0
DA:1452,0
DA:1453,0
DA:1456,0
DA:1457,0
DA:1458,0
DA:1459,0
DA:1460,0
DA:1461,0
DA:1462,0
DA:1463,0
DA:1465,0
DA:1466,0
DA:1467,0
DA:1468,0
DA:1469,0
DA:1470,0
DA:1473,0
DA:1474,0
DA:1475,0
DA:1476,0
DA:1477,0
DA:1479,0
DA:1480,0
DA:1481,0
DA:1483,0
DA:1484,0
DA:1485,0
DA:1486,0
DA:1487,0
DA:1488,0
DA:1490,0
DA:1491,0
DA:1492,0
DA:1494,0
DA:1495,0
DA:1496,0
DA:1497,0
DA:1498,0
DA:1500,0
DA:1501,0
DA:1502,0
DA:1504,0
DA:1505,0
DA:1506,0
DA:1508,0
DA:1511,0
DA:1512,0
DA:1513,0
DA:1514,0
DA:1515,0
DA:1516,0
DA:1519,0
DA:1520,0
DA:1521,0
DA:1522,0
DA:1523,0
DA:1524,0
DA:1525,0
DA:1526,0
DA:1527,0
DA:1529,0
DA:1530,0
DA:1531,0
DA:1532,0
DA:1533,0
DA:1534,0
DA:1537,0
DA:1538,0
DA:1539,0
DA:1540,0
DA:1541,0
DA:1543,0
DA:1544,0
DA:1545,0
DA:1547,0
DA:1548,0
DA:1549,0
DA:1550,0
DA:1551,0
DA:1553,0
DA:1554,0
DA:1555,0
DA:1557,0
DA:1558,0
DA:1559,0
DA:1561,0
DA:1564,0
DA:1565,0
DA:1566,0
DA:1567,0
DA:1568,0
DA:1569,0
DA:1572,0
DA:1573,0
DA:1574,0
DA:1575,0
DA:1576,0
DA:1577,0
DA:1578,0
DA:1579,0
DA:1581,0
DA:1582,0
DA:1583,0
DA:1585,0
DA:1586,0
DA:1587,0
DA:1588,0
DA:1589,0
DA:1590,0
DA:1592,0
DA:1593,0
DA:1594,0
DA:1596,0
DA:1597,0
DA:1598,0
DA:1599,0
DA:1600,0
DA:1602,0
DA:1603,0
DA:1604,0
DA:1606,0
DA:1607,0
DA:1608,0
DA:1610,0
DA:1613,0
DA:1614,0
DA:1615,0
DA:1616,0
DA:1617,0
DA:1618,0
DA:1620,0
DA:1621,0
DA:1622,0
DA:1624,0
DA:1625,0
DA:1626,0
DA:1627,0
DA:1629,0
DA:1632,0
DA:1633,0
DA:1634,0
DA:1635,0
DA:1636,0
DA:1637,0
DA:1640,0
DA:1641,0
DA:1644,0
DA:1645,0
DA:1646,0
DA:1647,0
DA:1648,0
DA:1649,0
DA:1650,0
DA:1651,0
DA:1653,0
DA:1654,0
DA:1655,0
DA:1656,0
DA:1657,0
DA:1658,0
DA:1661,0
DA:1662,0
DA:1663,0
DA:1664,0
DA:1666,0
DA:1667,0
DA:1668,0
DA:1669,0
DA:1670,0
DA:1671,0
DA:1673,0
DA:1674,0
DA:1675,0
DA:1677,0
DA:1678,0
DA:1679,0
DA:1681,0
DA:1682,0
DA:1683,0
DA:1684,0
DA:1685,0
DA:1686,0
DA:1687,0
DA:1688,0
DA:1690,0
DA:1691,0
DA:1692,0
DA:1693,0
DA:1694,0
DA:1695,0
DA:1698,0
DA:1699,0
DA:1700,0
DA:1701,0
DA:1703,0
DA:1704,0
DA:1705,0
DA:1706,0
DA:1707,0
DA:1709,0
DA:1710,0
DA:1711,0
DA:1713,0
DA:1714,0
DA:1715,0
DA:1717,0
DA:1720,0
DA:1721,0
DA:1722,0
DA:1723,0
DA:1724,0
DA:1725,0
DA:1728,0
DA:1729,0
DA:1732,0
DA:1733,0
DA:1734,0
DA:1735,0
DA:1736,0
DA:1737,0
DA:1738,0
DA:1740,0
DA:1741,0
DA:1742,0
DA:1744,0
DA:1745,0
DA:1746,0
DA:1747,0
DA:1748,0
DA:1749,0
DA:1751,0
DA:1752,0
DA:1753,0
DA:1754,0
DA:1755,0
DA:1756,0
DA:1757,0
DA:1758,0
DA:1760,0
DA:1761,0
DA:1762,0
DA:1763,0
DA:1764,0
DA:1765,0
DA:1767,0
DA:1768,0
DA:1769,0
DA:1770,0
DA:1771,0
DA:1772,0
DA:1775,0
DA:1776,0
DA:1777,0
DA:1778,0
DA:1780,0
DA:1781,0
DA:1782,0
DA:1783,0
DA:1784,0
DA:1785,0
DA:1787,0
DA:1788,0
DA:1789,0
DA:1791,0
DA:1792,0
DA:1793,0
DA:1794,0
DA:1795,0
DA:1797,0
DA:1800,0
DA:1801,0
DA:1802,0
DA:1803,0
DA:1804,0
DA:1805,0
DA:1808,0
DA:1809,0
DA:1810,0
DA:1811,0
DA:1813,0
DA:1814,0
DA:1815,0
DA:1816,0
DA:1818,0
DA:1821,0
DA:1822,0
DA:1823,0
DA:1824,0
DA:1825,0
DA:1826,0
DA:1827,0
DA:1828,0
DA:1830,0
DA:1831,0
DA:1832,0
DA:1833,0
DA:1834,0
DA:1837,0
DA:1838,0
DA:1839,0
DA:1840,0
DA:1842,0
DA:1843,0
DA:1844,0
DA:1845,0
DA:1846,0
DA:1848,0
DA:1849,0
DA:1850,0
DA:1852,0
DA:1853,0
DA:1854,0
DA:1856,0
DA:1860,0
DA:1861,0
DA:1864,0
DA:1866,0
DA:1867,0
DA:1868,0
DA:1869,0
DA:1870,0
DA:1871,0
DA:1872,0
DA:1873,0
DA:1875,0
DA:1876,0
DA:1877,0
DA:1878,0
DA:1880,0
DA:1881,0
DA:1882,0
DA:1883,0
DA:1885,0
DA:1886,0
DA:1887,0
DA:1888,0
DA:1890,0
DA:1892,0
DA:1895,0
DA:1896,0
DA:1897,0
DA:1898,0
DA:1899,0
DA:1900,0
DA:1901,0
DA:1902,0
DA:1903,0
DA:1904,0
DA:1906,0
DA:1907,0
DA:1909,0
DA:1910,0
DA:1911,0
DA:1912,0
DA:1913,0
DA:1914,0
DA:1915,0
DA:1916,0
DA:1917,0
DA:1918,0
DA:1920,0
DA:1921,0
DA:1924,0
DA:1925,0
DA:1926,0
DA:1928,0
DA:1930,0
DA:1931,0
DA:1932,0
DA:1933,0
DA:1934,0
DA:1935,0
DA:1936,0
DA:1937,0
DA:1938,0
DA:1939,0
DA:1940,0
DA:1941,0
DA:1942,0
DA:1944,0
DA:1945,0
DA:1948,0
DA:1949,0
DA:1950,0
DA:1952,0
DA:1954,0
DA:1955,0
DA:1956,0
DA:1957,0
DA:1958,0
DA:1959,0
DA:1960,0
DA:1961,0
DA:1962,0
DA:1963,0
DA:1964,0
DA:1965,0
DA:1966,0
DA:1968,0
DA:1969,0
DA:1972,0
DA:1973,0
DA:1974,0
DA:1976,0
DA:1978,0
DA:1979,0
DA:1980,0
DA:1981,0
DA:1982,0
DA:1983,0
DA:1984,0
DA:1985,0
DA:1986,0
DA:1987,0
DA:1988,0
DA:1990,0
DA:1991,0
DA:1994,0
DA:1995,0
DA:1996,0
DA:1998,0
DA:2001,0
DA:2002,0
DA:2005,0
DA:2006,0
DA:2007,0
DA:2008,0
DA:2009,0
DA:2012,0
DA:2013,0
DA:2016,0
DA:2017,0
DA:2018,0
DA:2019,0
DA:2020,0
DA:2022,0
DA:2023,0
DA:2024,0
DA:2026,0
DA:2027,0
DA:2028,0
DA:2029,0
DA:2030,0
DA:2032,0
DA:2034,0
DA:2036,0
DA:2039,0
DA:2040,0
DA:2042,0
DA:2043,0
DA:2044,0
DA:2045,0
DA:2047,0
DA:2048,0
DA:2049,0
DA:2051,0
DA:2052,0
DA:2053,0
DA:2055,0
DA:2057,0
DA:2058,0
DA:2059,0
DA:2061,0
DA:2063,0
DA:2064,0
DA:2067,0
DA:2068,0
DA:2069,0
DA:2071,0
DA:2073,0
DA:2074,0
DA:2075,0
DA:2077,0
DA:2079,0
DA:2080,0
DA:2081,0
DA:2082,0
DA:2084,0
DA:2086,0
DA:2087,0
DA:2088,0
DA:2090,0
DA:2093,0
DA:2095,0
LF:1231
LH:0
end_of_record
TN:
SF:/home/nn/redis/FalkorDB/deps/RediSearch/deps/snowball/src_c/stem_UTF_8_yiddish.c
FN:1344,1363,yiddish_UTF_8_stem
FN:1365,1365,yiddish_UTF_8_create_env
FN:1367,1367,yiddish_UTF_8_close_env
FN:458,598,r_prelude
FN:600,714,r_mark_regions
FN:716,719,r_R1
FN:721,724,r_R1plus3
FN:726,1342,r_standard_suffix
FNDA:0,yiddish_UTF_8_stem
FNDA:0,yiddish_UTF_8_create_env
FNDA:0,yiddish_UTF_8_close_env
FNDA:0,r_prelude
FNDA:0,r_mark_regions
FNDA:0,r_R1
FNDA:0,r_R1plus3
FNDA:0,r_standard_suffix
FNF:8
FNH:0
DA:458,0
DA:459,0
DA:460,0
DA:461,0
DA:462,0
DA:463,0
DA:464,0
DA:465,0
DA:466,0
DA:467,0
DA:468,0
DA:469,0
DA:470,0
DA:471,0
DA:472,0
DA:474,0
DA:475,0
DA:477,0
DA:478,0
DA:479,0
DA:480,0
DA:481,0
DA:482,0
DA:483,0
DA:484,0
DA:485,0
DA:486,0
DA:487,0
DA:489,0
DA:490,0
DA:492,0
DA:493,0
DA:494,0
DA:495,0
DA:496,0
DA:497,0
DA:498,0
DA:499,0
DA:500,0
DA:501,0
DA:502,0
DA:504,0
DA:505,0
DA:507,0
DA:508,0
DA:509,0
DA:510,0
DA:511,0
DA:512,0
DA:513,0
DA:514,0
DA:516,0
DA:517,0
DA:518,0
DA:519,0
DA:520,0
DA:521,0
DA:522,0
DA:523,0
DA:525,0
DA:526,0
DA:527,0
DA:528,0
DA:529,0
DA:530,0
DA:531,0
DA:532,0
DA:534,0
DA:535,0
DA:536,0
DA:537,0
DA:538,0
DA:539,0
DA:540,0
DA:541,0
DA:543,0
DA:544,0
DA:545,0
DA:546,0
DA:547,0
DA:548,0
DA:549,0
DA:550,0
DA:553,0
DA:554,0
DA:555,0
DA:556,0
DA:557,0
DA:558,0
DA:559,0
DA:560,0
DA:563,0
DA:564,0
DA:565,0
DA:566,0
DA:568,0
DA:570,0
DA:571,0
DA:572,0
DA:573,0
DA:574,0
DA:575,0
DA:576,0
DA:577,0
DA:578,0
DA:579,0
DA:581,0
DA:582,0
DA:583,0
DA:584,0
DA:585,0
DA:586,0
DA:587,0
DA:590,0
DA:591,0
DA:592,0
DA:593,0
DA:595,0
DA:597,0
DA:600,0
DA:601,0
DA:602,0
DA:603,0
DA:604,0
DA:605,0
DA:606,0
DA:607,0
DA:608,0
DA:609,0
DA:610,0
DA:612,0
DA:613,0
DA:615,0
DA:616,0
DA:617,0
DA:618,0
DA:619,0
DA:620,0
DA:621,0
DA:622,0
DA:625,0
DA:626,0
DA:629,0
DA:630,0
DA:631,0
DA:632,0
DA:633,0
DA:634,0
DA:635,0
DA:636,0
DA:637,0
DA:638,0
DA:639,0
DA:640,0
DA:641,0
DA:642,0
DA:644,0
DA:645,0
DA:646,0
DA:648,0
DA:649,0
DA:650,0
DA:651,0
DA:652,0
DA:653,0
DA:655,0
DA:656,0
DA:657,0
DA:658,0
DA:659,0
DA:660,0
DA:661,0
DA:662,0
DA:664,0
DA:665,0
DA:666,0
DA:667,0
DA:668,0
DA:669,0
DA:670,0
DA:671,0
DA:674,0
DA:675,0
DA:678,0
DA:679,0
DA:680,0
DA:681,0
DA:683,0
DA:684,0
DA:686,0
DA:687,0
DA:688,0
DA:689,0
DA:692,0
DA:693,0
DA:694,0
DA:695,0
DA:696,0
DA:697,0
DA:698,0
DA:699,0
DA:701,0
DA:703,0
DA:704,0
DA:705,0
DA:706,0
DA:708,0
DA:710,0
DA:711,0
DA:712,0
DA:713,0
DA:716,0
DA:717,0
DA:718,0
DA:721,0
DA:722,0
DA:723,0
DA:726,0
DA:728,0
DA:729,0
DA:730,0
DA:731,0
DA:732,0
DA:733,0
DA:734,0
DA:735,0
DA:736,0
DA:737,0
DA:739,0
DA:740,0
DA:742,0
DA:743,0
DA:744,0
DA:745,0
DA:746,0
DA:748,0
DA:749,0
DA:751,0
DA:752,0
DA:753,0
DA:754,0
DA:755,0
DA:757,0
DA:758,0
DA:760,0
DA:761,0
DA:762,0
DA:763,0
DA:764,0
DA:765,0
DA:767,0
DA:768,0
DA:769,0
DA:771,0
DA:772,0
DA:773,0
DA:774,0
DA:775,0
DA:776,0
DA:778,0
DA:779,0
DA:780,0
DA:782,0
DA:783,0
DA:784,0
DA:785,0
DA:786,0
DA:787,0
DA:789,0
DA:790,0
DA:791,0
DA:793,0
DA:794,0
DA:795,0
DA:796,0
DA:797,0
DA:798,0
DA:800,0
DA:801,0
DA:802,0
DA:804,0
DA:805,0
DA:806,0
DA:807,0
DA:808,0
DA:809,0
DA:811,0
DA:812,0
DA:813,0
DA:815,0
DA:816,0
DA:817,0
DA:818,0
DA:819,0
DA:820,0
DA:822,0
DA:823,0
DA:824,0
DA:826,0
DA:827,0
DA:828,0
DA:829,0
DA:830,0
DA:831,0
DA:833,0
DA:834,0
DA:835,0
DA:837,0
DA:838,0
DA:839,0
DA:840,0
DA:841,0
DA:842,0
DA:844,0
DA:845,0
DA:846,0
DA:848,0
DA:849,0
DA:850,0
DA:851,0
DA:852,0
DA:853,0
DA:855,0
DA:856,0
DA:857,0
DA:859,0
DA:860,0
DA:861,0
DA:862,0
DA:863,0
DA:864,0
DA:866,0
DA:867,0
DA:868,0
DA:870,0
DA:871,0
DA:872,0
DA:873,0
DA:874,0
DA:875,0
DA:877,0
DA:878,0
DA:879,0
DA:881,0
DA:882,0
DA:883,0
DA:884,0
DA:885,0
DA:886,0
DA:888,0
DA:889,0
DA:890,0
DA:892,0
DA:893,0
DA:894,0
DA:895,0
DA:896,0
DA:897,0
DA:899,0
DA:900,0
DA:901,0
DA:903,0
DA:904,0
DA:905,0
DA:906,0
DA:907,0
DA:908,0
DA:910,0
DA:911,0
DA:912,0
DA:914,0
DA:915,0
DA:916,0
DA:917,0
DA:918,0
DA:919,0
DA:921,0
DA:922,0
DA:923,0
DA:925,0
DA:926,0
DA:927,0
DA:928,0
DA:929,0
DA:930,0
DA:932,0
DA:933,0
DA:934,0
DA:936,0
DA:937,0
DA:938,0
DA:939,0
DA:940,0
DA:941,0
DA:943,0
DA:944,0
DA:945,0
DA:947,0
DA:948,0
DA:949,0
DA:950,0
DA:951,0
DA:952,0
DA:954,0
DA:955,0
DA:956,0
DA:958,0
DA:959,0
DA:960,0
DA:961,0
DA:962,0
DA:963,0
DA:965,0
DA:966,0
DA:967,0
DA:969,0
DA:970,0
DA:971,0
DA:972,0
DA:973,0
DA:974,0
DA:976,0
DA:977,0
DA:978,0
DA:980,0
DA:981,0
DA:982,0
DA:983,0
DA:984,0
DA:985,0
DA:987,0
DA:988,0
DA:989,0
DA:991,0
DA:992,0
DA:993,0
DA:994,0
DA:995,0
DA:996,0
DA:998,0
DA:999,0
DA:1000,0
DA:1002,0
DA:1003,0
DA:1004,0
DA:1005,0
DA:1006,0
DA:1007,0
DA:1009,0
DA:1010,0
DA:1011,0
DA:1013,0
DA:1014,0
DA:1015,0
DA:1016,0
DA:1017,0
DA:1018,0
DA:1020,0
DA:1021,0
DA:1022,0
DA:1024,0
DA:1025,0
DA:1026,0
DA:1027,0
DA:1028,0
DA:1029,0
DA:1031,0
DA:1032,0
DA:1033,0
DA:1035,0
DA:1036,0
DA:1037,0
DA:1038,0
DA:1039,0
DA:1040,0
DA:1042,0
DA:1043,0
DA:1044,0
DA:1046,0
DA:1047,0
DA:1048,0
DA:1049,0
DA:1050,0
DA:1051,0
DA:1053,0
DA:1054,0
DA:1056,0
DA:1057,0
DA:1058,0
DA:1059,0
DA:1060,0
DA:1063,0
DA:1064,0
DA:1065,0
DA:1066,0
DA:1067,0
DA:1068,0
DA:1071,0
DA:1072,0
DA:1073,0
DA:1075,0
DA:1076,0
DA:1077,0
DA:1078,0
DA:1080,0
DA:1081,0
DA:1082,0
DA:1083,0
DA:1085,0
DA:1086,0
DA:1087,0
DA:1088,0
DA:1090,0
DA:1091,0
DA:1092,0
DA:1093,0
DA:1095,0
DA:1096,0
DA:1097,0
DA:1098,0
DA:1100,0
DA:1101,0
DA:1102,0
DA:1103,0
DA:1105,0
DA:1106,0
DA:1107,0
DA:1108,0
DA:1110,0
DA:1111,0
DA:1112,0
DA:1113,0
DA:1115,0
DA:1116,0
DA:1117,0
DA:1118,0
DA:1120,0
DA:1121,0
DA:1122,0
DA:1123,0
DA:1125,0
DA:1126,0
DA:1127,0
DA:1128,0
DA:1130,0
DA:1131,0
DA:1132,0
DA:1133,0
DA:1135,0
DA:1136,0
DA:1137,0
DA:1138,0
DA:1140,0
DA:1141,0
DA:1142,0
DA:1143,0
DA:1145,0
DA:1146,0
DA:1147,0
DA:1148,0
DA:1150,0
DA:1151,0
DA:1152,0
DA:1153,0
DA:1155,0
DA:1156,0
DA:1157,0
DA:1158,0
DA:1160,0
DA:1161,0
DA:1162,0
DA:1163,0
DA:1165,0
DA:1166,0
DA:1167,0
DA:1168,0
DA:1170,0
DA:1171,0
DA:1172,0
DA:1173,0
DA:1175,0
DA:1176,0
DA:1177,0
DA:1178,0
DA:1180,0
DA:1181,0
DA:1182,0
DA:1183,0
DA:1185,0
DA:1186,0
DA:1187,0
DA:1188,0
DA:1190,0
DA:1191,0
DA:1192,0
DA:1193,0
DA:1195,0
DA:1196,0
DA:1197,0
DA:1198,0
DA:1200,0
DA:1201,0
DA:1202,0
DA:1203,0
DA:1205,0
DA:1206,0
DA:1207,0
DA:1208,0
DA:1210,0
DA:1211,0
DA:1212,0
DA:1213,0
DA:1214,0
DA:1216,0
DA:1217,0
DA:1219,0
DA:1220,0
DA:1221,0
DA:1222,0
DA:1223,0
DA:1224,0
DA:1225,0
DA:1226,0
DA:1227,0
DA:1229,0
DA:1230,0
DA:1231,0
DA:1232,0
DA:1233,0
DA:1235,0
DA:1236,0
DA:1238,0
DA:1241,0
DA:1242,0
DA:1243,0
DA:1244,0
DA:1245,0
DA:1246,0
DA:1248,0
DA:1249,0
DA:1252,0
DA:1253,0
DA:1255,0
DA:1256,0
DA:1258,0
DA:1259,0
DA:1260,0
DA:1261,0
DA:1262,0
DA:1263,0
DA:1264,0
DA:1265,0
DA:1266,0
DA:1267,0
DA:1268,0
DA:1270,0
DA:1271,0
DA:1273,0
DA:1274,0
DA:1275,0
DA:1276,0
DA:1277,0
DA:1279,0
DA:1280,0
DA:1281,0
DA:1283,0
DA:1285,0
DA:1286,0
DA:1288,0
DA:1289,0
DA:1290,0
DA:1291,0
DA:1292,0
DA:1293,0
DA:1294,0
DA:1295,0
DA:1296,0
DA:1297,0
DA:1299,0
DA:1300,0
DA:1302,0
DA:1304,0
DA:1305,0
DA:1307,0
DA:1308,0
DA:1309,0
DA:1310,0
DA:1311,0
DA:1312,0
DA:1313,0
DA:1314,0
DA:1315,0
DA:1316,0
DA:1317,0
DA:1318,0
DA:1320,0
DA:1321,0
DA:1322,0
DA:1323,0
DA:1325,0
DA:1326,0
DA:1327,0
DA:1328,0
DA:1329,0
DA:1330,0
DA:1331,0
DA:1334,0
DA:1335,0
DA:1336,0
DA:1337,0
DA:1339,0
DA:1341,0
DA:1344,0
DA:1346,0
DA:1347,0
DA:1349,0
DA:1350,0
DA:1351,0
DA:1353,0
DA:1355,0
DA:1358,0
DA:1359,0
DA:1361,0
DA:1362,0
DA:1365,0
DA:1367,0
LF:726
LH:0
end_of_record
TN:
SF:/home/nn/redis/FalkorDB/deps/RediSearch/deps/thpool/thpool.c
FN:107,159,redisearch_thpool_init
FN:162,179,redisearch_thpool_add_work
FN:182,188,redisearch_thpool_wait
FN:191,226,redisearch_thpool_destroy
FN:229,234,redisearch_thpool_pause
FN:237,244,redisearch_thpool_resume
FN:246,248,redisearch_thpool_num_threads_working
FN:258,272,thread_init
FN:275,281,thread_hold
FN:291,357,thread_do
FN:360,362,thread_destroy
FN:367,381,jobqueue_init
FN:384,394,jobqueue_clear
FN:398,418,jobqueue_push
FN:424,449,jobqueue_pull
FN:452,455,jobqueue_destroy
FN:460,468,bsem_init
FN:471,473,bsem_reset
FN:476,481,bsem_post
FN:484,489,bsem_post_all
FN:492,499,bsem_wait
FNDA:2,redisearch_thpool_init
FNDA:0,redisearch_thpool_add_work
FNDA:0,redisearch_thpool_wait
FNDA:0,redisearch_thpool_destroy
FNDA:0,redisearch_thpool_pause
FNDA:0,redisearch_thpool_resume
FNDA:0,redisearch_thpool_num_threads_working
FNDA:2,thread_init
FNDA:0,thread_hold
FNDA:2,thread_do
FNDA:0,thread_destroy
FNDA:2,jobqueue_init
FNDA:0,jobqueue_clear
FNDA:0,jobqueue_push
FNDA:0,jobqueue_pull
FNDA:0,jobqueue_destroy
FNDA:2,bsem_init
FNDA:0,bsem_reset
FNDA:0,bsem_post
FNDA:0,bsem_post_all
FNDA:2,bsem_wait
FNF:21
FNH:6
DA:107,2
DA:109,2
DA:111,2
DA:112,0
DA:117,2
DA:118,2
DA:119,0
DA:120,0
DA:122,2
DA:123,2
DA:124,2
DA:127,2
DA:128,0
DA:129,0
DA:130,0
DA:134,2
DA:135,2
DA:136,0
DA:137,0
DA:138,0
DA:139,0
DA:142,2
DA:143,2
DA:147,4
DA:148,2
DA:155,61842
DA:158,2
DA:162,0
DA:165,0
DA:166,0
DA:167,0
DA:168,0
DA:172,0
DA:173,0
DA:176,0
DA:178,0
DA:182,0
DA:183,0
DA:184,0
DA:185,0
DA:187,0
DA:188,0
DA:191,0
DA:193,0
DA:195,0
DA:198,0
DA:201,0
DA:203,0
DA:204,0
DA:205,0
DA:206,0
DA:207,0
DA:208,0
DA:212,0
DA:213,0
DA:214,0
DA:218,0
DA:221,0
DA:222,0
DA:224,0
DA:225,0
DA:229,0
DA:231,0
DA:232,0
DA:234,0
DA:237,0
DA:243,0
DA:244,0
DA:246,0
DA:247,0
DA:258,2
DA:260,2
DA:261,2
DA:262,0
DA:263,0
DA:266,2
DA:267,2
DA:269,2
DA:270,2
DA:271,2
DA:275,0
DA:277,0
DA:278,0
DA:279,0
DA:281,0
DA:291,2
DA:294,2
DA:295,2
DA:299,2
DA:307,2
DA:311,2
DA:312,2
DA:313,2
DA:314,2
DA:315,0
DA:319,2
DA:320,2
DA:321,2
DA:323,2
DA:325,2
DA:327,0
DA:329,0
DA:330,0
DA:331,0
DA:336,0
DA:337,0
DA:338,0
DA:339,0
DA:340,0
DA:341,0
DA:344,0
DA:345,0
DA:346,0
DA:347,0
DA:349,0
DA:352,0
DA:353,0
DA:354,0
DA:356,0
DA:360,0
DA:361,0
DA:362,0
DA:367,2
DA:368,2
DA:369,2
DA:370,2
DA:372,2
DA:373,2
DA:374,0
DA:377,2
DA:378,2
DA:380,2
DA:384,0
DA:386,0
DA:387,0
DA:390,0
DA:391,0
DA:392,0
DA:393,0
DA:394,0
DA:398,0
DA:400,0
DA:401,0
DA:403,0
DA:405,0
DA:406,0
DA:407,0
DA:408,0
DA:410,0
DA:411,0
DA:412,0
DA:414,0
DA:416,0
DA:417,0
DA:418,0
DA:424,0
DA:426,0
DA:427,0
DA:429,0
DA:431,0
DA:432,0
DA:434,0
DA:435,0
DA:436,0
DA:437,0
DA:438,0
DA:440,0
DA:441,0
DA:442,0
DA:444,0
DA:447,0
DA:448,0
DA:452,0
DA:453,0
DA:454,0
DA:455,0
DA:460,2
DA:461,2
DA:462,0
DA:463,0
DA:465,2
DA:466,2
DA:467,2
DA:468,2
DA:471,0
DA:472,0
DA:473,0
DA:476,0
DA:477,0
DA:478,0
DA:479,0
DA:480,0
DA:481,0
DA:484,0
DA:485,0
DA:486,0
DA:487,0
DA:488,0
DA:489,0
DA:492,2
DA:493,2
DA:494,2
DA:495,2
DA:497,0
DA:498,0
DA:499,0
LF:206
LH:58
end_of_record
TN:
SF:/home/nn/redis/FalkorDB/deps/RediSearch/deps/triemap/triemap.c
FN:1003,1063,TrieMapIterator_NextContains
FN:1065,1139,TrieMapIterator_NextWildcard
FN:1141,1146,TrieMap_Free
FN:1148,1205,TrieMapNode_RandomWalk
FN:1207,1222,TrieMap_RandomValueByPrefix
FN:123,198,TrieMapNode_Add
FN:200,206,TrieMap_Add
FN:209,211,__cmp_nodes
FN:213,215,__cmp_chars
FN:218,223,__trieNode_sortChildren
FN:225,267,TrieMapNode_Find
FN:269,315,TrieMapNode_FindPrefixes
FN:29,31,__trieMapNode_Sizeof
FN:319,363,TrieMapNode_FindNode
FN:33,41,__trieMapNode_resizeChildren
FN:365,367,TrieMap_Find
FN:369,371,TrieMap_FindPrefixes
FN:376,401,__trieMapNode_MergeWithSingleChild
FN:407,442,__trieMapNode_optimizeChildren
FN:444,509,TrieMapNode_Delete
FN:46,58,__newTrieMapNode
FN:511,517,TrieMap_Delete
FN:519,524,TrieMap_MemUsage
FN:526,540,TrieMapNode_Free
FN:551,561,__tmi_Push
FN:563,567,__tmi_Pop
FN:569,583,TrieMap_Iterate
FN:585,588,TrieMapIterator_SetTimeout
FN:590,597,TrieMapIterator_Free
FN:60,66,NewTrieMap
FN:614,635,nodecmp
FN:637,649,TrieMaprsbCompareCommon
FN:651,653,TrieMaprsbCompareExact
FN:655,657,TrieMaprsbComparePrefix
FN:659,674,TrieMaprangeIterateSubTree
FN:68,80,__trieMapNode_AddChild
FN:680,801,TrieMapRangeIterate
FN:803,839,TrieMap_IterateRange
FN:82,97,__trieMapNode_AddChildIdx
FN:841,914,TrieMapIterator_Next
FN:916,918,__fullmatch_Next
FN:926,1001,__partial_Next
FN:99,121,__trieMapNode_Split
FNDA:0,TrieMapIterator_NextContains
FNDA:0,TrieMapIterator_NextWildcard
FNDA:0,TrieMap_Free
FNDA:0,TrieMapNode_RandomWalk
FNDA:0,TrieMap_RandomValueByPrefix
FNDA:13,TrieMapNode_Add
FNDA:10,TrieMap_Add
FNDA:0,__cmp_nodes
FNDA:0,__cmp_chars
FNDA:2,__trieNode_sortChildren
FNDA:10,TrieMapNode_Find
FNDA:0,TrieMapNode_FindPrefixes
FNDA:27,__trieMapNode_Sizeof
FNDA:0,TrieMapNode_FindNode
FNDA:10,__trieMapNode_resizeChildren
FNDA:10,TrieMap_Find
FNDA:0,TrieMap_FindPrefixes
FNDA:0,__trieMapNode_MergeWithSingleChild
FNDA:0,__trieMapNode_optimizeChildren
FNDA:0,TrieMapNode_Delete
FNDA:15,__newTrieMapNode
FNDA:0,TrieMap_Delete
FNDA:0,TrieMap_MemUsage
FNDA:0,TrieMapNode_Free
FNDA:0,__tmi_Push
FNDA:0,__tmi_Pop
FNDA:0,TrieMap_Iterate
FNDA:0,TrieMapIterator_SetTimeout
FNDA:0,TrieMapIterator_Free
FNDA:3,NewTrieMap
FNDA:0,nodecmp
FNDA:0,TrieMaprsbCompareCommon
FNDA:0,TrieMaprsbCompareExact
FNDA:0,TrieMaprsbComparePrefix
FNDA:0,TrieMaprangeIterateSubTree
FNDA:0,__trieMapNode_AddChild
FNDA:0,TrieMapRangeIterate
FNDA:0,TrieMap_IterateRange
FNDA:10,__trieMapNode_AddChildIdx
FNDA:0,TrieMapIterator_Next
FNDA:0,__fullmatch_Next
FNDA:0,__partial_Next
FNDA:2,__trieMapNode_Split
FNF:43
FNH:11
DA:29,27
DA:30,27
DA:33,10
DA:34,10
DA:35,10
DA:38,10
DA:39,10
DA:40,10
DA:46,15
DA:48,15
DA:49,15
DA:50,15
DA:51,15
DA:52,15
DA:53,15
DA:55,15
DA:57,15
DA:60,3
DA:61,3
DA:62,3
DA:63,3
DA:64,3
DA:65,3
DA:68,0
DA:71,0
DA:74,0
DA:75,0
DA:77,0
DA:78,0
DA:79,0
DA:82,10
DA:85,10
DA:88,10
DA:90,10
DA:91,7
DA:92,7
DA:94,10
DA:95,10
DA:96,10
DA:99,2
DA:101,2
DA:102,2
DA:103,2
DA:105,2
DA:106,2
DA:107,2
DA:108,2
DA:110,2
DA:111,2
DA:112,2
DA:114,2
DA:116,2
DA:117,2
DA:118,2
DA:119,2
DA:120,2
DA:123,13
DA:124,13
DA:125,13
DA:127,13
DA:128,20
DA:129,9
DA:130,2
DA:134,13
DA:139,2
DA:140,2
DA:145,2
DA:146,0
DA:147,0
DA:150,2
DA:151,2
DA:152,2
DA:154,2
DA:155,2
DA:159,11
DA:160,0
DA:161,0
DA:163,0
DA:164,0
DA:166,0
DA:167,0
DA:169,0
DA:173,0
DA:175,0
DA:176,0
DA:178,0
DA:179,0
DA:183,11
DA:184,11
DA:185,11
DA:186,11
DA:187,3
DA:188,3
DA:189,3
DA:190,3
DA:191,3
DA:194,8
DA:195,10
DA:196,8
DA:197,8
DA:200,10
DA:201,10
DA:202,10
DA:203,10
DA:204,10
DA:205,10
DA:209,0
DA:210,0
DA:213,0
DA:214,0
DA:218,2
DA:219,2
DA:220,0
DA:221,0
DA:223,2
DA:225,10
DA:226,10
DA:227,21
DA:228,13
DA:229,13
DA:230,20
DA:231,9
DA:232,2
DA:234,7
DA:235,7
DA:239,13
DA:241,11
DA:243,0
DA:244,0
DA:246,0
DA:251,11
DA:252,11
DA:253,11
DA:254,11
DA:255,11
DA:256,11
DA:257,3
DA:258,3
DA:260,11
DA:262,2
DA:266,8
DA:269,0
DA:271,0
DA:273,0
DA:274,0
DA:275,0
DA:276,0
DA:277,0
DA:278,0
DA:279,0
DA:283,0
DA:284,0
DA:288,0
DA:290,0
DA:291,0
DA:293,0
DA:296,0
DA:297,0
DA:302,0
DA:303,0
DA:304,0
DA:305,0
DA:306,0
DA:307,0
DA:308,0
DA:309,0
DA:311,0
DA:314,0
DA:319,0
DA:320,0
DA:321,0
DA:322,0
DA:323,0
DA:324,0
DA:325,0
DA:326,0
DA:328,0
DA:329,0
DA:334,0
DA:336,0
DA:337,0
DA:339,0
DA:343,0
DA:346,0
DA:347,0
DA:349,0
DA:350,0
DA:351,0
DA:352,0
DA:353,0
DA:354,0
DA:356,0
DA:358,0
DA:362,0
DA:365,10
DA:366,10
DA:369,0
DA:370,0
DA:376,0
DA:378,0
DA:379,0
DA:382,0
DA:385,0
DA:386,0
DA:387,0
DA:388,0
DA:389,0
DA:391,0
DA:392,0
DA:394,0
DA:395,0
DA:396,0
DA:397,0
DA:398,0
DA:400,0
DA:407,0
DA:408,0
DA:409,0
DA:410,0
DA:412,0
DA:414,0
DA:415,0
DA:417,0
DA:418,0
DA:420,0
DA:421,0
DA:422,0
DA:423,0
DA:424,0
DA:428,0
DA:429,0
DA:430,0
DA:434,0
DA:435,0
DA:436,0
DA:439,0
DA:441,0
DA:444,0
DA:445,0
DA:446,0
DA:447,0
DA:448,0
DA:449,0
DA:450,0
DA:451,0
DA:452,0
DA:453,0
DA:454,0
DA:456,0
DA:457,0
DA:458,0
DA:459,0
DA:463,0
DA:466,0
DA:467,0
DA:468,0
DA:469,0
DA:471,0
DA:472,0
DA:473,0
DA:475,0
DA:477,0
DA:480,0
DA:482,0
DA:485,0
DA:486,0
DA:487,0
DA:489,0
DA:490,0
DA:491,0
DA:496,0
DA:498,0
DA:502,0
DA:504,0
DA:505,0
DA:507,0
DA:508,0
DA:511,0
DA:512,0
DA:513,0
DA:514,0
DA:515,0
DA:516,0
DA:519,0
DA:520,0
DA:526,0
DA:527,0
DA:528,0
DA:529,0
DA:531,0
DA:532,0
DA:533,0
DA:535,0
DA:539,0
DA:540,0
DA:551,0
DA:553,0
DA:560,0
DA:561,0
DA:563,0
DA:564,0
DA:565,0
DA:566,0
DA:567,0
DA:569,0
DA:570,0
DA:572,0
DA:573,0
DA:574,0
DA:575,0
DA:576,0
DA:578,0
DA:580,0
DA:582,0
DA:585,0
DA:586,0
DA:587,0
DA:588,0
DA:590,0
DA:591,0
DA:592,0
DA:594,0
DA:595,0
DA:596,0
DA:597,0
DA:614,0
DA:615,0
DA:616,0
DA:617,0
DA:618,0
DA:619,0
DA:620,0
DA:622,0
DA:626,0
DA:628,0
DA:629,0
DA:631,0
DA:634,0
DA:637,0
DA:638,0
DA:639,0
DA:642,0
DA:643,0
DA:644,0
DA:646,0
DA:648,0
DA:651,0
DA:652,0
DA:655,0
DA:656,0
DA:659,0
DA:660,0
DA:662,0
DA:663,0
DA:666,0
DA:668,0
DA:670,0
DA:673,0
DA:674,0
DA:680,0
DA:683,0
DA:685,0
DA:689,0
DA:690,0
DA:691,0
DA:692,0
DA:696,0
DA:697,0
DA:698,0
DA:700,0
DA:707,0
DA:708,0
DA:710,0
DA:711,0
DA:712,0
DA:715,0
DA:716,0
DA:718,0
DA:719,0
DA:720,0
DA:723,0
DA:726,0
DA:728,0
DA:729,0
DA:730,0
DA:731,0
DA:732,0
DA:735,0
DA:736,0
DA:737,0
DA:738,0
DA:739,0
DA:742,0
DA:743,0
DA:746,0
DA:750,0
DA:752,0
DA:753,0
DA:754,0
DA:755,0
DA:756,0
DA:759,0
DA:762,0
DA:763,0
DA:765,0
DA:766,0
DA:767,0
DA:770,0
DA:771,0
DA:773,0
DA:774,0
DA:775,0
DA:779,0
DA:780,0
DA:783,0
DA:787,0
DA:789,0
DA:790,0
DA:791,0
DA:792,0
DA:793,0
DA:796,0
DA:799,0
DA:800,0
DA:801,0
DA:803,0
DA:806,0
DA:807,0
DA:810,0
DA:812,0
DA:813,0
DA:815,0
DA:818,0
DA:820,0
DA:821,0
DA:822,0
DA:823,0
DA:826,0
DA:830,0
DA:836,0
DA:837,0
DA:838,0
DA:841,0
DA:842,0
DA:843,0
DA:844,0
DA:846,0
DA:847,0
DA:849,0
DA:850,0
DA:851,0
DA:852,0
DA:853,0
DA:854,0
DA:856,0
DA:857,0
DA:863,0
DA:865,0
DA:869,0
DA:870,0
DA:874,0
DA:877,0
DA:878,0
DA:879,0
DA:880,0
DA:881,0
DA:885,0
DA:887,0
DA:888,0
DA:889,0
DA:890,0
DA:891,0
DA:895,0
DA:898,0
DA:900,0
DA:903,0
DA:906,0
DA:908,0
DA:909,0
DA:910,0
DA:913,0
DA:916,0
DA:917,0
DA:926,0
DA:927,0
DA:928,0
DA:929,0
DA:930,0
DA:931,0
DA:932,0
DA:934,0
DA:935,0
DA:936,0
DA:938,0
DA:940,0
DA:941,0
DA:943,0
DA:946,0
DA:947,0
DA:948,0
DA:949,0
DA:950,0
DA:951,0
DA:952,0
DA:953,0
DA:957,0
DA:960,0
DA:963,0
DA:964,0
DA:965,0
DA:966,0
DA:967,0
DA:968,0
DA:969,0
DA:970,0
DA:971,0
DA:973,0
DA:976,0
DA:978,0
DA:983,0
DA:984,0
DA:985,0
DA:986,0
DA:989,0
DA:990,0
DA:991,0
DA:992,0
DA:993,0
DA:994,0
DA:997,0
DA:999,0
DA:1000,0
DA:1003,0
DA:1004,0
DA:1005,0
DA:1006,0
DA:1007,0
DA:1009,0
DA:1010,0
DA:1011,0
DA:1012,0
DA:1015,0
DA:1016,0
DA:1017,0
DA:1020,0
DA:1021,0
DA:1022,0
DA:1025,0
DA:1027,0
DA:1028,0
DA:1029,0
DA:1030,0
DA:1032,0
DA:1033,0
DA:1034,0
DA:1035,0
DA:1038,0
DA:1041,0
DA:1045,0
DA:1047,0
DA:1048,0
DA:1051,0
DA:1053,0
DA:1057,0
DA:1058,0
DA:1059,0
DA:1062,0
DA:1065,0
DA:1066,0
DA:1067,0
DA:1068,0
DA:1071,0
DA:1072,0
DA:1076,0
DA:1077,0
DA:1078,0
DA:1079,0
DA:1080,0
DA:1084,0
DA:1086,0
DA:1087,0
DA:1088,0
DA:1091,0
DA:1092,0
DA:1093,0
DA:1094,0
DA:1095,0
DA:1096,0
DA:1098,0
DA:1100,0
DA:1101,0
DA:1104,0
DA:1105,0
DA:1106,0
DA:1107,0
DA:1108,0
DA:1111,0
DA:1112,0
DA:1113,0
DA:1115,0
DA:1117,0
DA:1121,0
DA:1123,0
DA:1124,0
DA:1127,0
DA:1129,0
DA:1133,0
DA:1134,0
DA:1135,0
DA:1138,0
DA:1141,0
DA:1142,0
DA:1143,0
DA:1144,0
DA:1146,0
DA:1148,0
DA:1150,0
DA:1151,0
DA:1152,0
DA:1153,0
DA:1155,0
DA:1156,0
DA:1157,0
DA:1160,0
DA:1162,0
DA:1164,0
DA:1165,0
DA:1168,0
DA:1169,0
DA:1171,0
DA:1172,0
DA:1173,0
DA:1174,0
DA:1176,0
DA:1180,0
DA:1181,0
DA:1182,0
DA:1183,0
DA:1184,0
DA:1187,0
DA:1191,0
DA:1194,0
DA:1195,0
DA:1196,0
DA:1197,0
DA:1198,0
DA:1199,0
DA:1201,0
DA:1202,0
DA:1203,0
DA:1204,0
DA:1207,0
DA:1211,0
DA:1212,0
DA:1213,0
DA:1216,0
DA:1217,0
DA:1218,0
DA:1219,0
DA:1221,0
LF:660
LH:113
end_of_record
TN:
SF:/home/nn/redis/FalkorDB/deps/RediSearch/deps/wildcard/wildcard.c
FN:118,144,Wildcard_RemoveEscape
FN:51,92,Wildcard_MatchRune
FN:6,49,Wildcard_MatchChar
FN:94,116,Wildcard_TrimPattern
FNDA:0,Wildcard_RemoveEscape
FNDA:0,Wildcard_MatchRune
FNDA:0,Wildcard_MatchChar
FNDA:0,Wildcard_TrimPattern
FNF:4
FNH:0
DA:6,0
DA:7,0
DA:8,0
DA:9,0
DA:10,0
DA:12,0
DA:13,0
DA:14,0
DA:15,0
DA:17,0
DA:18,0
DA:19,0
DA:20,0
DA:21,0
DA:22,0
DA:23,0
DA:24,0
DA:25,0
DA:27,0
DA:28,0
DA:29,0
DA:31,0
DA:32,0
DA:33,0
DA:35,0
DA:36,0
DA:39,0
DA:40,0
DA:41,0
DA:42,0
DA:44,0
DA:45,0
DA:47,0
DA:51,0
DA:52,0
DA:53,0
DA:54,0
DA:55,0
DA:57,0
DA:58,0
DA:60,0
DA:61,0
DA:62,0
DA:63,0
DA:64,0
DA:65,0
DA:66,0
DA:67,0
DA:68,0
DA:70,0
DA:71,0
DA:72,0
DA:74,0
DA:75,0
DA:76,0
DA:78,0
DA:79,0
DA:82,0
DA:83,0
DA:84,0
DA:85,0
DA:87,0
DA:88,0
DA:94,0
DA:95,0
DA:96,0
DA:98,0
DA:99,0
DA:101,0
DA:102,0
DA:106,0
DA:107,0
DA:108,0
DA:111,0
DA:114,0
DA:115,0
DA:118,0
DA:119,0
DA:121,0
DA:122,0
DA:125,0
DA:126,0
DA:130,0
DA:131,0
DA:132,0
DA:133,0
DA:136,0
DA:137,0
DA:138,0
DA:142,0
DA:143,0
LF:91
LH:0
end_of_record
TN:
SF:/home/nn/redis/FalkorDB/deps/RediSearch/src/aggregate/aggregate_exec.c
FN:194,228,getResultsFactor
FN:233,321,sendChunk
FN:25,31,getReplyKey
FN:323,329,AREQ_Execute
FN:331,394,buildRequest
FN:39,79,reeval_key
FN:400,418,parseProfile
FN:420,459,execCommandCommon
FN:461,463,RSAggregateCommand
FN:464,466,RSSearchCommand
FN:470,478,_profileArgsDup
FN:480,516,RSProfileCommand
FN:518,527,RS_GetExplainOutput
FN:531,539,AREQ_StartCursor
FN:541,598,runCursor
FN:605,616,cursorRead
FN:618,663,RSCursorCommand
FN:665,668,Cursor_FreeExecState
FN:81,192,serializeResult
FNDA:0,getResultsFactor
FNDA:0,sendChunk
FNDA:0,getReplyKey
FNDA:0,AREQ_Execute
FNDA:0,buildRequest
FNDA:0,reeval_key
FNDA:0,parseProfile
FNDA:0,execCommandCommon
FNDA:0,RSAggregateCommand
FNDA:0,RSSearchCommand
FNDA:0,_profileArgsDup
FNDA:0,RSProfileCommand
FNDA:0,RS_GetExplainOutput
FNDA:0,AREQ_StartCursor
FNDA:0,runCursor
FNDA:0,cursorRead
FNDA:0,RSCursorCommand
FNDA:0,Cursor_FreeExecState
FNDA:0,serializeResult
FNF:19
FNH:0
DA:25,0
DA:26,0
DA:27,0
DA:29,0
DA:39,0
DA:40,0
DA:41,0
DA:42,0
DA:45,0
DA:46,0
DA:47,0
DA:48,0
DA:50,0
DA:51,0
DA:54,0
DA:55,0
DA:56,0
DA:58,0
DA:59,0
DA:60,0
DA:62,0
DA:63,0
DA:64,0
DA:65,0
DA:70,0
DA:72,0
DA:73,0
DA:74,0
DA:76,0
DA:79,0
DA:81,0
DA:83,0
DA:84,0
DA:85,0
DA:87,0
DA:89,0
DA:90,0
DA:91,0
DA:94,0
DA:95,0
DA:96,0
DA:98,0
DA:99,0
DA:100,0
DA:102,0
DA:105,0
DA:106,0
DA:107,0
DA:110,0
DA:111,0
DA:112,0
DA:113,0
DA:115,0
DA:121,0
DA:122,0
DA:123,0
DA:124,0
DA:125,0
DA:126,0
DA:128,0
DA:132,0
DA:134,0
DA:135,0
DA:136,0
DA:137,0
DA:138,0
DA:139,0
DA:140,0
DA:142,0
DA:145,0
DA:147,0
DA:148,0
DA:149,0
DA:151,0
DA:155,0
DA:156,0
DA:157,0
DA:159,0
DA:160,0
DA:161,0
DA:166,0
DA:167,0
DA:168,0
DA:169,0
DA:170,0
DA:171,0
DA:173,0
DA:174,0
DA:175,0
DA:176,0
DA:177,0
DA:179,0
DA:180,0
DA:182,0
DA:184,0
DA:187,0
DA:188,0
DA:191,0
DA:194,0
DA:195,0
DA:197,0
DA:198,0
DA:201,0
DA:202,0
DA:205,0
DA:206,0
DA:209,0
DA:210,0
DA:213,0
DA:214,0
DA:217,0
DA:218,0
DA:219,0
DA:220,0
DA:224,0
DA:225,0
DA:227,0
DA:233,0
DA:234,0
DA:235,0
DA:236,0
DA:237,0
DA:238,0
DA:240,0
DA:241,0
DA:242,0
DA:245,0
DA:246,0
DA:247,0
DA:249,0
DA:250,0
DA:251,0
DA:252,0
DA:253,0
DA:254,0
DA:255,0
DA:256,0
DA:257,0
DA:258,0
DA:259,0
DA:260,0
DA:262,0
DA:263,0
DA:265,0
DA:268,0
DA:270,0
DA:271,0
DA:272,0
DA:273,0
DA:275,0
DA:276,0
DA:278,0
DA:279,0
DA:280,0
DA:281,0
DA:282,0
DA:284,0
DA:286,0
DA:288,0
DA:289,0
DA:292,0
DA:293,0
DA:294,0
DA:297,0
DA:298,0
DA:299,0
DA:302,0
DA:305,0
DA:306,0
DA:307,0
DA:308,0
DA:312,0
DA:313,0
DA:314,0
DA:316,0
DA:317,0
DA:318,0
DA:321,0
DA:323,0
DA:324,0
DA:325,0
DA:326,0
DA:328,0
DA:329,0
DA:331,0
DA:334,0
DA:336,0
DA:337,0
DA:338,0
DA:340,0
DA:341,0
DA:343,0
DA:344,0
DA:347,0
DA:348,0
DA:349,0
DA:353,0
DA:354,0
DA:355,0
DA:356,0
DA:359,0
DA:360,0
DA:361,0
DA:362,0
DA:365,0
DA:366,0
DA:368,0
DA:369,0
DA:370,0
DA:373,0
DA:374,0
DA:375,0
DA:376,0
DA:379,0
DA:381,0
DA:382,0
DA:385,0
DA:386,0
DA:387,0
DA:388,0
DA:389,0
DA:390,0
DA:393,0
DA:400,0
DA:401,0
DA:405,0
DA:406,0
DA:407,0
DA:411,0
DA:412,0
DA:413,0
DA:415,0
DA:417,0
DA:420,0
DA:423,0
DA:424,0
DA:427,0
DA:428,0
DA:429,0
DA:430,0
DA:431,0
DA:434,0
DA:435,0
DA:438,0
DA:439,0
DA:441,0
DA:442,0
DA:443,0
DA:444,0
DA:447,0
DA:448,0
DA:450,0
DA:452,0
DA:454,0
DA:455,0
DA:456,0
DA:458,0
DA:461,0
DA:462,0
DA:464,0
DA:465,0
DA:470,0
DA:471,0
DA:473,0
DA:475,0
DA:476,0
DA:477,0
DA:480,0
DA:481,0
DA:482,0
DA:486,0
DA:487,0
DA:490,0
DA:491,0
DA:492,0
DA:493,0
DA:494,0
DA:496,0
DA:497,0
DA:500,0
DA:501,0
DA:502,0
DA:503,0
DA:506,0
DA:507,0
DA:508,0
DA:511,0
DA:512,0
DA:513,0
DA:514,0
DA:515,0
DA:518,0
DA:520,0
DA:521,0
DA:522,0
DA:524,0
DA:525,0
DA:526,0
DA:531,0
DA:532,0
DA:533,0
DA:534,0
DA:536,0
DA:537,0
DA:538,0
DA:541,0
DA:542,0
DA:545,0
DA:546,0
DA:550,0
DA:551,0
DA:552,0
DA:554,0
DA:555,0
DA:556,0
DA:557,0
DA:560,0
DA:561,0
DA:562,0
DA:563,0
DA:567,0
DA:568,0
DA:570,0
DA:572,0
DA:573,0
DA:574,0
DA:577,0
DA:578,0
DA:580,0
DA:584,0
DA:585,0
DA:588,0
DA:589,0
DA:592,0
DA:593,0
DA:594,0
DA:595,0
DA:597,0
DA:605,0
DA:606,0
DA:607,0
DA:608,0
DA:609,0
DA:611,0
DA:612,0
DA:613,0
DA:614,0
DA:615,0
DA:618,0
DA:619,0
DA:620,0
DA:623,0
DA:624,0
DA:630,0
DA:631,0
DA:632,0
DA:635,0
DA:637,0
DA:638,0
DA:639,0
DA:641,0
DA:642,0
DA:643,0
DA:646,0
DA:648,0
DA:649,0
DA:650,0
DA:651,0
DA:653,0
DA:656,0
DA:657,0
DA:658,0
DA:660,0
DA:662,0
DA:665,0
DA:666,0
DA:667,0
DA:668,0
LF:378
LH:0
end_of_record
TN:
SF:/home/nn/redis/FalkorDB/deps/RediSearch/src/aggregate/aggregate_plan.c
FN:119,126,arrangeDtor
FN:128,139,AGPLN_GetArrangeStep
FN:13,33,steptypeToString
FN:141,151,AGPLN_GetOrCreateArrangeStep
FN:153,194,AGPLN_GetLookup
FN:196,205,AGPLN_FreeSteps
FN:207,275,AGPLN_Dump
FN:279,282,append_string
FN:283,287,append_uint
FN:288,292,append_ac
FN:294,306,serializeMapFilter
FN:308,330,serializeArrange
FN:332,342,serializeLoad
FN:344,363,serializeGroup
FN:36,40,AGPLN_AddStep
FN:365,391,AGPLN_Serialize
FN:42,44,AGPLN_HasStep
FN:46,53,AGPLN_AddBefore
FN:55,62,AGPLN_AddAfter
FN:64,66,AGPLN_Prepend
FN:68,71,AGPLN_PopStep
FN:73,76,rootStepDtor
FN:77,79,rootStepLookup
FN:81,88,AGPLN_Init
FN:90,97,lookupFromNode
FN:99,117,AGPLN_FindStep
FNDA:0,arrangeDtor
FNDA:0,AGPLN_GetArrangeStep
FNDA:0,steptypeToString
FNDA:0,AGPLN_GetOrCreateArrangeStep
FNDA:0,AGPLN_GetLookup
FNDA:0,AGPLN_FreeSteps
FNDA:0,AGPLN_Dump
FNDA:0,append_string
FNDA:0,append_uint
FNDA:0,append_ac
FNDA:0,serializeMapFilter
FNDA:0,serializeArrange
FNDA:0,serializeLoad
FNDA:0,serializeGroup
FNDA:0,AGPLN_AddStep
FNDA:0,AGPLN_Serialize
FNDA:0,AGPLN_HasStep
FNDA:0,AGPLN_AddBefore
FNDA:0,AGPLN_AddAfter
FNDA:0,AGPLN_Prepend
FNDA:0,AGPLN_PopStep
FNDA:0,rootStepDtor
FNDA:0,rootStepLookup
FNDA:0,AGPLN_Init
FNDA:0,lookupFromNode
FNDA:0,AGPLN_FindStep
FNF:26
FNH:0
DA:13,0
DA:14,0
DA:15,0
DA:16,0
DA:17,0
DA:18,0
DA:19,0
DA:20,0
DA:21,0
DA:22,0
DA:23,0
DA:24,0
DA:25,0
DA:26,0
DA:27,0
DA:28,0
DA:29,0
DA:31,0
DA:36,0
DA:37,0
DA:38,0
DA:39,0
DA:40,0
DA:42,0
DA:43,0
DA:46,0
DA:47,0
DA:48,0
DA:49,0
DA:51,0
DA:53,0
DA:55,0
DA:56,0
DA:57,0
DA:58,0
DA:60,0
DA:62,0
DA:64,0
DA:65,0
DA:66,0
DA:68,0
DA:69,0
DA:71,0
DA:73,0
DA:74,0
DA:75,0
DA:76,0
DA:77,0
DA:78,0
DA:81,0
DA:82,0
DA:83,0
DA:84,0
DA:85,0
DA:86,0
DA:87,0
DA:88,0
DA:90,0
DA:91,0
DA:92,0
DA:93,0
DA:95,0
DA:99,0
DA:101,0
DA:102,0
DA:104,0
DA:105,0
DA:107,0
DA:108,0
DA:109,0
DA:110,0
DA:112,0
DA:113,0
DA:116,0
DA:119,0
DA:120,0
DA:121,0
DA:122,0
DA:124,0
DA:125,0
DA:126,0
DA:128,0
DA:130,0
DA:131,0
DA:132,0
DA:133,0
DA:134,0
DA:135,0
DA:138,0
DA:141,0
DA:142,0
DA:143,0
DA:144,0
DA:146,0
DA:147,0
DA:148,0
DA:149,0
DA:150,0
DA:153,0
DA:154,0
DA:155,0
DA:157,0
DA:158,0
DA:159,0
DA:160,0
DA:161,0
DA:162,0
DA:163,0
DA:164,0
DA:165,0
DA:166,0
DA:167,0
DA:168,0
DA:169,0
DA:170,0
DA:171,0
DA:172,0
DA:173,0
DA:174,0
DA:177,0
DA:178,0
DA:179,0
DA:180,0
DA:181,0
DA:185,0
DA:186,0
DA:187,0
DA:188,0
DA:191,0
DA:193,0
DA:196,0
DA:197,0
DA:198,0
DA:199,0
DA:200,0
DA:201,0
DA:202,0
DA:205,0
DA:207,0
DA:208,0
DA:209,0
DA:210,0
DA:211,0
DA:212,0
DA:213,0
DA:214,0
DA:215,0
DA:219,0
DA:220,0
DA:222,0
DA:223,0
DA:224,0
DA:226,0
DA:227,0
DA:228,0
DA:229,0
DA:230,0
DA:231,0
DA:233,0
DA:234,0
DA:235,0
DA:236,0
DA:237,0
DA:240,0
DA:242,0
DA:243,0
DA:244,0
DA:245,0
DA:247,0
DA:249,0
DA:250,0
DA:251,0
DA:252,0
DA:253,0
DA:255,0
DA:256,0
DA:257,0
DA:258,0
DA:259,0
DA:261,0
DA:262,0
DA:264,0
DA:266,0
DA:268,0
DA:272,0
DA:275,0
DA:279,0
DA:280,0
DA:281,0
DA:282,0
DA:283,0
DA:284,0
DA:285,0
DA:286,0
DA:287,0
DA:288,0
DA:289,0
DA:290,0
DA:292,0
DA:294,0
DA:295,0
DA:296,0
DA:297,0
DA:299,0
DA:301,0
DA:302,0
DA:303,0
DA:304,0
DA:306,0
DA:308,0
DA:309,0
DA:310,0
DA:311,0
DA:312,0
DA:313,0
DA:315,0
DA:316,0
DA:317,0
DA:318,0
DA:319,0
DA:321,0
DA:322,0
DA:323,0
DA:324,0
DA:326,0
DA:330,0
DA:332,0
DA:333,0
DA:334,0
DA:335,0
DA:336,0
DA:337,0
DA:338,0
DA:339,0
DA:340,0
DA:342,0
DA:344,0
DA:345,0
DA:346,0
DA:347,0
DA:348,0
DA:349,0
DA:351,0
DA:352,0
DA:353,0
DA:354,0
DA:355,0
DA:356,0
DA:357,0
DA:358,0
DA:359,0
DA:360,0
DA:363,0
DA:365,0
DA:366,0
DA:367,0
DA:368,0
DA:369,0
DA:370,0
DA:372,0
DA:373,0
DA:374,0
DA:375,0
DA:376,0
DA:377,0
DA:378,0
DA:379,0
DA:380,0
DA:381,0
DA:382,0
DA:383,0
DA:387,0
DA:390,0
LF:273
LH:0
end_of_record
TN:
SF:/home/nn/redis/FalkorDB/deps/RediSearch/src/aggregate/aggregate_plan.h
FN:241,249,PLN_IsReduce
FNDA:0,PLN_IsReduce
FNF:1
FNH:0
DA:241,0
DA:242,0
DA:243,0
DA:245,0
DA:246,0
DA:247,0
LF:6
LH:0
end_of_record
TN:
SF:/home/nn/redis/FalkorDB/deps/RediSearch/src/aggregate/aggregate_request.c
FN:1021,1085,getArrangeRP
FN:105,128,parseCursorSettings
FN:1087,1103,getScorerRP
FN:1105,1118,hasQuerySortby
FN:1128,1163,buildImplicitPipeline
FN:1169,1224,buildOutputPipeline
FN:1226,1372,AREQ_BuildPipeline
FN:130,156,parseRequiredFields
FN:1374,1434,AREQ_Free
FN:158,172,parseDialect
FN:178,259,handleCommonArgs
FN:261,364,parseSortby
FN:31,37,ensureSimpleMode
FN:366,384,parseQueryLegacyArgs
FN:386,513,parseQueryArgs
FN:44,53,ensureExtendedMode
FN:515,543,getReducerAlias
FN:545,558,groupStepFree
FN:560,562,groupStepGetLookup
FN:564,595,PLNGroupStep_AddReducer
FN:57,61,ReturnedField_Free
FN:597,599,genericStepFree
FN:601,609,PLNGroupStep_New
FN:611,639,parseGroupby
FN:63,69,FieldList_Free
FN:641,651,freeFilterStep
FN:653,659,PLNMapFilterStep_New
FN:661,693,handleApplyOrFilter
FN:695,699,loadDtor
FN:701,728,handleLoad
FN:71,85,FieldList_GetCreateField
FN:730,735,AREQ_New
FN:737,808,AREQ_Compile
FN:810,836,applyGlobalFilters
FN:838,910,AREQ_ApplyContext
FN:87,103,FieldList_RestrictReturn
FN:912,951,buildGroupRP
FN:959,964,pushRP
FN:966,996,getGroupRP
FN:998,1019,getAdditionalMetricsRP
FNDA:0,getArrangeRP
FNDA:0,parseCursorSettings
FNDA:0,getScorerRP
FNDA:0,hasQuerySortby
FNDA:0,buildImplicitPipeline
FNDA:0,buildOutputPipeline
FNDA:0,AREQ_BuildPipeline
FNDA:0,parseRequiredFields
FNDA:0,AREQ_Free
FNDA:0,parseDialect
FNDA:0,handleCommonArgs
FNDA:0,parseSortby
FNDA:0,ensureSimpleMode
FNDA:0,parseQueryLegacyArgs
FNDA:0,parseQueryArgs
FNDA:0,ensureExtendedMode
FNDA:0,getReducerAlias
FNDA:0,groupStepFree
FNDA:0,groupStepGetLookup
FNDA:0,PLNGroupStep_AddReducer
FNDA:0,ReturnedField_Free
FNDA:0,genericStepFree
FNDA:0,PLNGroupStep_New
FNDA:0,parseGroupby
FNDA:0,FieldList_Free
FNDA:0,freeFilterStep
FNDA:0,PLNMapFilterStep_New
FNDA:0,handleApplyOrFilter
FNDA:0,loadDtor
FNDA:0,handleLoad
FNDA:0,FieldList_GetCreateField
FNDA:0,AREQ_New
FNDA:0,AREQ_Compile
FNDA:0,applyGlobalFilters
FNDA:0,AREQ_ApplyContext
FNDA:0,FieldList_RestrictReturn
FNDA:0,buildGroupRP
FNDA:0,pushRP
FNDA:0,getGroupRP
FNDA:0,getAdditionalMetricsRP
FNF:40
FNH:0
DA:31,0
DA:32,0
DA:33,0
DA:35,0
DA:36,0
DA:44,0
DA:45,0
DA:46,0
DA:49,0
DA:51,0
DA:52,0
DA:57,0
DA:58,0
DA:59,0
DA:60,0
DA:61,0
DA:63,0
DA:64,0
DA:65,0
DA:67,0
DA:68,0
DA:69,0
DA:71,0
DA:72,0
DA:73,0
DA:74,0
DA:75,0
DA:79,0
DA:80,0
DA:81,0
DA:82,0
DA:83,0
DA:84,0
DA:87,0
DA:88,0
DA:89,0
DA:92,0
DA:93,0
DA:94,0
DA:95,0
DA:96,0
DA:97,0
DA:99,0
DA:102,0
DA:105,0
DA:106,0
DA:108,0
DA:112,0
DA:117,0
DA:118,0
DA:119,0
DA:120,0
DA:123,0
DA:124,0
DA:126,0
DA:127,0
DA:130,0
DA:132,0
DA:133,0
DA:134,0
DA:135,0
DA:136,0
DA:139,0
DA:142,0
DA:143,0
DA:144,0
DA:145,0
DA:146,0
DA:147,0
DA:150,0
DA:153,0
DA:155,0
DA:158,0
DA:159,0
DA:160,0
DA:161,0
DA:163,0
DA:164,0
DA:169,0
DA:171,0
DA:178,0
DA:181,0
DA:182,0
DA:183,0
DA:185,0
DA:186,0
DA:187,0
DA:189,0
DA:190,0
DA:191,0
DA:192,0
DA:195,0
DA:197,0
DA:198,0
DA:199,0
DA:200,0
DA:201,0
DA:203,0
DA:204,0
DA:205,0
DA:206,0
DA:208,0
DA:209,0
DA:210,0
DA:212,0
DA:214,0
DA:215,0
DA:216,0
DA:217,0
DA:220,0
DA:221,0
DA:223,0
DA:224,0
DA:225,0
DA:226,0
DA:228,0
DA:229,0
DA:230,0
DA:232,0
DA:233,0
DA:234,0
DA:236,0
DA:237,0
DA:238,0
DA:239,0
DA:240,0
DA:241,0
DA:242,0
DA:244,0
DA:245,0
DA:246,0
DA:248,0
DA:250,0
DA:251,0
DA:252,0
DA:255,0
DA:258,0
DA:261,0
DA:263,0
DA:264,0
DA:265,0
DA:267,0
DA:269,0
DA:273,0
DA:275,0
DA:279,0
DA:280,0
DA:282,0
DA:283,0
DA:285,0
DA:286,0
DA:287,0
DA:288,0
DA:289,0
DA:292,0
DA:295,0
DA:296,0
DA:297,0
DA:298,0
DA:302,0
DA:304,0
DA:307,0
DA:308,0
DA:310,0
DA:311,0
DA:314,0
DA:316,0
DA:317,0
DA:318,0
DA:319,0
DA:320,0
DA:322,0
DA:323,0
DA:324,0
DA:327,0
DA:328,0
DA:329,0
DA:330,0
DA:333,0
DA:334,0
DA:342,0
DA:343,0
DA:344,0
DA:345,0
DA:347,0
DA:348,0
DA:349,0
DA:350,0
DA:352,0
DA:355,0
DA:356,0
DA:357,0
DA:358,0
DA:359,0
DA:360,0
DA:361,0
DA:363,0
DA:366,0
DA:367,0
DA:369,0
DA:370,0
DA:371,0
DA:372,0
DA:374,0
DA:375,0
DA:376,0
DA:377,0
DA:378,0
DA:381,0
DA:383,0
DA:386,0
DA:389,0
DA:390,0
DA:391,0
DA:392,0
DA:393,0
DA:397,0
DA:400,0
DA:402,0
DA:404,0
DA:405,0
DA:406,0
DA:407,0
DA:408,0
DA:409,0
DA:410,0
DA:411,0
DA:414,0
DA:415,0
DA:418,0
DA:419,0
DA:420,0
DA:421,0
DA:422,0
DA:425,0
DA:426,0
DA:427,0
DA:431,0
DA:432,0
DA:433,0
DA:434,0
DA:436,0
DA:437,0
DA:438,0
DA:440,0
DA:442,0
DA:443,0
DA:444,0
DA:445,0
DA:448,0
DA:449,0
DA:450,0
DA:452,0
DA:454,0
DA:455,0
DA:456,0
DA:457,0
DA:460,0
DA:461,0
DA:463,0
DA:464,0
DA:466,0
DA:471,0
DA:472,0
DA:473,0
DA:476,0
DA:477,0
DA:478,0
DA:479,0
DA:480,0
DA:482,0
DA:483,0
DA:484,0
DA:485,0
DA:488,0
DA:489,0
DA:490,0
DA:493,0
DA:494,0
DA:495,0
DA:496,0
DA:497,0
DA:498,0
DA:499,0
DA:500,0
DA:501,0
DA:502,0
DA:503,0
DA:506,0
DA:507,0
DA:511,0
DA:512,0
DA:515,0
DA:517,0
DA:518,0
DA:521,0
DA:522,0
DA:524,0
DA:525,0
DA:527,0
DA:528,0
DA:530,0
DA:531,0
DA:532,0
DA:537,0
DA:540,0
DA:541,0
DA:542,0
DA:545,0
DA:546,0
DA:547,0
DA:548,0
DA:549,0
DA:550,0
DA:551,0
DA:553,0
DA:556,0
DA:557,0
DA:558,0
DA:560,0
DA:561,0
DA:564,0
DA:567,0
DA:569,0
DA:570,0
DA:571,0
DA:572,0
DA:573,0
DA:576,0
DA:578,0
DA:579,0
DA:580,0
DA:581,0
DA:582,0
DA:585,0
DA:586,0
DA:588,0
DA:590,0
DA:592,0
DA:593,0
DA:594,0
DA:597,0
DA:598,0
DA:599,0
DA:601,0
DA:602,0
DA:603,0
DA:604,0
DA:605,0
DA:606,0
DA:607,0
DA:608,0
DA:611,0
DA:612,0
DA:614,0
DA:615,0
DA:616,0
DA:617,0
DA:618,0
DA:622,0
DA:623,0
DA:625,0
DA:627,0
DA:628,0
DA:629,0
DA:631,0
DA:632,0
DA:635,0
DA:637,0
DA:638,0
DA:641,0
DA:642,0
DA:643,0
DA:644,0
DA:646,0
DA:647,0
DA:649,0
DA:650,0
DA:651,0
DA:653,0
DA:654,0
DA:655,0
DA:656,0
DA:657,0
DA:658,0
DA:661,0
DA:663,0
DA:664,0
DA:665,0
DA:666,0
DA:667,0
DA:670,0
DA:671,0
DA:673,0
DA:674,0
DA:676,0
DA:677,0
DA:678,0
DA:680,0
DA:682,0
DA:685,0
DA:687,0
DA:688,0
DA:689,0
DA:690,0
DA:692,0
DA:695,0
DA:696,0
DA:697,0
DA:698,0
DA:699,0
DA:701,0
DA:702,0
DA:703,0
DA:704,0
DA:705,0
DA:706,0
DA:707,0
DA:708,0
DA:709,0
DA:711,0
DA:714,0
DA:715,0
DA:716,0
DA:717,0
DA:718,0
DA:719,0
DA:722,0
DA:723,0
DA:726,0
DA:727,0
DA:730,0
DA:731,0
DA:732,0
DA:733,0
DA:734,0
DA:737,0
DA:738,0
DA:739,0
DA:740,0
DA:742,0
DA:743,0
DA:747,0
DA:748,0
DA:750,0
DA:751,0
DA:752,0
DA:755,0
DA:756,0
DA:758,0
DA:759,0
DA:760,0
DA:761,0
DA:764,0
DA:768,0
DA:769,0
DA:770,0
DA:771,0
DA:772,0
DA:773,0
DA:776,0
DA:777,0
DA:778,0
DA:780,0
DA:781,0
DA:783,0
DA:784,0
DA:785,0
DA:787,0
DA:788,0
DA:789,0
DA:791,0
DA:792,0
DA:793,0
DA:796,0
DA:797,0
DA:802,0
DA:804,0
DA:806,0
DA:807,0
DA:810,0
DA:812,0
DA:813,0
DA:814,0
DA:815,0
DA:817,0
DA:820,0
DA:821,0
DA:822,0
DA:825,0
DA:826,0
DA:827,0
DA:828,0
DA:829,0
DA:830,0
DA:833,0
DA:834,0
DA:836,0
DA:838,0
DA:840,0
DA:841,0
DA:842,0
DA:843,0
DA:844,0
DA:846,0
DA:847,0
DA:850,0
DA:855,0
DA:856,0
DA:857,0
DA:858,0
DA:859,0
DA:860,0
DA:864,0
DA:865,0
DA:866,0
DA:868,0
DA:869,0
DA:870,0
DA:872,0
DA:873,0
DA:874,0
DA:877,0
DA:879,0
DA:880,0
DA:881,0
DA:884,0
DA:885,0
DA:887,0
DA:888,0
DA:891,0
DA:892,0
DA:893,0
DA:897,0
DA:898,0
DA:900,0
DA:902,0
DA:903,0
DA:904,0
DA:906,0
DA:909,0
DA:912,0
DA:913,0
DA:914,0
DA:915,0
DA:916,0
DA:917,0
DA:918,0
DA:919,0
DA:921,0
DA:924,0
DA:926,0
DA:927,0
DA:929,0
DA:930,0
DA:931,0
DA:932,0
DA:934,0
DA:935,0
DA:936,0
DA:938,0
DA:939,0
DA:940,0
DA:941,0
DA:946,0
DA:947,0
DA:950,0
DA:959,0
DA:960,0
DA:961,0
DA:962,0
DA:963,0
DA:966,0
DA:968,0
DA:969,0
DA:970,0
DA:972,0
DA:973,0
DA:977,0
DA:979,0
DA:981,0
DA:982,0
DA:983,0
DA:984,0
DA:987,0
DA:988,0
DA:989,0
DA:990,0
DA:991,0
DA:995,0
DA:998,0
DA:999,0
DA:1000,0
DA:1001,0
DA:1002,0
DA:1003,0
DA:1004,0
DA:1006,0
DA:1007,0
DA:1008,0
DA:1009,0
DA:1015,0
DA:1016,0
DA:1018,0
DA:1021,0
DA:1023,0
DA:1024,0
DA:1025,0
DA:1026,0
DA:1028,0
DA:1029,0
DA:1032,0
DA:1033,0
DA:1034,0
DA:1035,0
DA:1038,0
DA:1039,0
DA:1040,0
DA:1043,0
DA:1044,0
DA:1047,0
DA:1048,0
DA:1052,0
DA:1053,0
DA:1054,0
DA:1056,0
DA:1058,0
DA:1060,0
DA:1061,0
DA:1062,0
DA:1063,0
DA:1064,0
DA:1065,0
DA:1069,0
DA:1070,0
DA:1074,0
DA:1075,0
DA:1076,0
DA:1079,0
DA:1080,0
DA:1081,0
DA:1084,0
DA:1087,0
DA:1088,0
DA:1089,0
DA:1090,0
DA:1092,0
DA:1093,0
DA:1094,0
DA:1096,0
DA:1097,0
DA:1098,0
DA:1099,0
DA:1100,0
DA:1101,0
DA:1102,0
DA:1105,0
DA:1106,0
DA:1107,0
DA:1108,0
DA:1109,0
DA:1110,0
DA:1114,0
DA:1115,0
DA:1117,0
DA:1128,0
DA:1129,0
DA:1130,0
DA:1131,0
DA:1132,0
DA:1134,0
DA:1135,0
DA:1136,0
DA:1138,0
DA:1140,0
DA:1141,0
DA:1142,0
DA:1143,0
DA:1147,0
DA:1148,0
DA:1149,0
DA:1150,0
DA:1152,0
DA:1158,0
DA:1159,0
DA:1160,0
DA:1161,0
DA:1169,0
DA:1170,0
DA:1171,0
DA:1173,0
DA:1175,0
DA:1176,0
DA:1178,0
DA:1179,0
DA:1180,0
DA:1181,0
DA:1183,0
DA:1184,0
DA:1185,0
DA:1189,0
DA:1191,0
DA:1193,0
DA:1196,0
DA:1197,0
DA:1198,0
DA:1200,0
DA:1202,0
DA:1203,0
DA:1204,0
DA:1205,0
DA:1206,0
DA:1207,0
DA:1208,0
DA:1209,0
DA:1210,0
DA:1212,0
DA:1213,0
DA:1215,0
DA:1217,0
DA:1218,0
DA:1221,0
DA:1222,0
DA:1223,0
DA:1226,0
DA:1227,0
DA:1228,0
DA:1229,0
DA:1230,0
DA:1234,0
DA:1235,0
DA:1238,0
DA:1240,0
DA:1241,0
DA:1243,0
DA:1244,0
DA:1245,0
DA:1246,0
DA:1247,0
DA:1249,0
DA:1252,0
DA:1253,0
DA:1254,0
DA:1255,0
DA:1257,0
DA:1258,0
DA:1259,0
DA:1262,0
DA:1264,0
DA:1266,0
DA:1267,0
DA:1268,0
DA:1269,0
DA:1272,0
DA:1273,0
DA:1276,0
DA:1278,0
DA:1279,0
DA:1281,0
DA:1283,0
DA:1284,0
DA:1287,0
DA:1288,0
DA:1289,0
DA:1290,0
DA:1291,0
DA:1292,0
DA:1294,0
DA:1297,0
DA:1298,0
DA:1299,0
DA:1300,0
DA:1302,0
DA:1304,0
DA:1305,0
DA:1308,0
DA:1311,0
DA:1312,0
DA:1313,0
DA:1314,0
DA:1315,0
DA:1316,0
DA:1317,0
DA:1318,0
DA:1323,0
DA:1324,0
DA:1325,0
DA:1327,0
DA:1328,0
DA:1329,0
DA:1331,0
DA:1333,0
DA:1335,0
DA:1336,0
DA:1338,0
DA:1339,0
DA:1342,0
DA:1348,0
DA:1349,0
DA:1350,0
DA:1351,0
DA:1353,0
DA:1358,0
DA:1359,0
DA:1360,0
DA:1365,0
DA:1366,0
DA:1369,0
DA:1370,0
DA:1371,0
DA:1374,0
DA:1376,0
DA:1377,0
DA:1378,0
DA:1379,0
DA:1380,0
DA:1382,0
DA:1383,0
DA:1384,0
DA:1388,0
DA:1390,0
DA:1392,0
DA:1393,0
DA:1396,0
DA:1401,0
DA:1402,0
DA:1403,0
DA:1404,0
DA:1405,0
DA:1407,0
DA:1409,0
DA:1410,0
DA:1412,0
DA:1413,0
DA:1414,0
DA:1415,0
DA:1416,0
DA:1419,0
DA:1421,0
DA:1422,0
DA:1423,0
DA:1425,0
DA:1426,0
DA:1427,0
DA:1429,0
DA:1430,0
DA:1432,0
DA:1433,0
DA:1434,0
LF:849
LH:0
end_of_record
TN:
SF:/home/nn/redis/FalkorDB/deps/RediSearch/src/aggregate/expr/exprast.c
FN:101,106,RS_NewProp
FN:108,112,RS_NewInverted
FN:114,120,RSArgList_Free
FN:12,17,RS_NewArgList
FN:122,147,RSExpr_Free
FN:150,174,RSExpr_GetProperties
FN:176,217,RSExpr_Print
FN:19,23,RSArgList_Append
FN:219,221,ExprAST_Free
FN:223,225,ExprAST_Print
FN:227,237,ExprAST_Parse
FN:25,29,newExpr
FN:32,48,unescpeStringDup
FN:49,56,RS_NewStringLiteral
FN:58,62,RS_NewNullLiteral
FN:64,70,RS_NewNumberLiteral
FN:72,78,RS_NewOp
FN:80,91,RS_NewPredicate
FN:93,99,RS_NewFunc
FNDA:0,RS_NewProp
FNDA:0,RS_NewInverted
FNDA:0,RSArgList_Free
FNDA:0,RS_NewArgList
FNDA:0,RSExpr_Free
FNDA:0,RSExpr_GetProperties
FNDA:0,RSExpr_Print
FNDA:0,RSArgList_Append
FNDA:0,ExprAST_Free
FNDA:0,ExprAST_Print
FNDA:0,ExprAST_Parse
FNDA:0,newExpr
FNDA:0,unescpeStringDup
FNDA:0,RS_NewStringLiteral
FNDA:0,RS_NewNullLiteral
FNDA:0,RS_NewNumberLiteral
FNDA:0,RS_NewOp
FNDA:0,RS_NewPredicate
FNDA:0,RS_NewFunc
FNF:19
FNH:0
DA:12,0
DA:13,0
DA:14,0
DA:15,0
DA:16,0
DA:19,0
DA:20,0
DA:21,0
DA:22,0
DA:25,0
DA:26,0
DA:27,0
DA:28,0
DA:32,0
DA:34,0
DA:35,0
DA:36,0
DA:37,0
DA:38,0
DA:40,0
DA:41,0
DA:42,0
DA:44,0
DA:46,0
DA:47,0
DA:49,0
DA:50,0
DA:51,0
DA:52,0
DA:53,0
DA:54,0
DA:55,0
DA:58,0
DA:59,0
DA:60,0
DA:61,0
DA:64,0
DA:65,0
DA:67,0
DA:68,0
DA:69,0
DA:72,0
DA:73,0
DA:74,0
DA:75,0
DA:76,0
DA:77,0
DA:80,0
DA:81,0
DA:82,0
DA:83,0
DA:84,0
DA:90,0
DA:93,0
DA:94,0
DA:95,0
DA:96,0
DA:97,0
DA:98,0
DA:101,0
DA:102,0
DA:103,0
DA:104,0
DA:105,0
DA:108,0
DA:109,0
DA:110,0
DA:111,0
DA:114,0
DA:115,0
DA:116,0
DA:117,0
DA:119,0
DA:122,0
DA:123,0
DA:124,0
DA:125,0
DA:126,0
DA:127,0
DA:128,0
DA:129,0
DA:130,0
DA:131,0
DA:132,0
DA:133,0
DA:134,0
DA:135,0
DA:136,0
DA:137,0
DA:138,0
DA:139,0
DA:140,0
DA:141,0
DA:142,0
DA:143,0
DA:144,0
DA:146,0
DA:150,0
DA:151,0
DA:152,0
DA:153,0
DA:154,0
DA:155,0
DA:156,0
DA:157,0
DA:158,0
DA:159,0
DA:160,0
DA:162,0
DA:163,0
DA:164,0
DA:165,0
DA:166,0
DA:167,0
DA:168,0
DA:169,0
DA:170,0
DA:171,0
DA:172,0
DA:176,0
DA:177,0
DA:178,0
DA:179,0
DA:181,0
DA:182,0
DA:183,0
DA:184,0
DA:185,0
DA:186,0
DA:187,0
DA:188,0
DA:189,0
DA:191,0
DA:192,0
DA:193,0
DA:194,0
DA:195,0
DA:196,0
DA:197,0
DA:198,0
DA:199,0
DA:201,0
DA:202,0
DA:203,0
DA:204,0
DA:205,0
DA:206,0
DA:208,0
DA:209,0
DA:210,0
DA:211,0
DA:212,0
DA:213,0
DA:214,0
DA:215,0
DA:219,0
DA:220,0
DA:221,0
DA:223,0
DA:224,0
DA:225,0
DA:227,0
DA:228,0
DA:229,0
DA:231,0
DA:232,0
DA:233,0
DA:235,0
DA:236,0
LF:169
LH:0
end_of_record
TN:
SF:/home/nn/redis/FalkorDB/deps/RediSearch/src/aggregate/expr/expression.c
FN:117,158,getPredicateBoolean
FN:16,18,setReferenceValue
FN:160,171,evalInverted
FN:173,204,evalPredicate
FN:206,230,evalProperty
FN:22,51,evalFunc
FN:232,250,evalInternal
FN:252,254,ExprEval_Eval
FN:256,295,ExprAST_GetLookupKeys
FN:298,300,ExprEval_UnalignedAlloc
FN:302,307,ExprEval_Strndup
FN:311,331,EvalCtx_Create
FN:333,338,EvalCtx_FromExpr
FN:340,356,EvalCtx_FromString
FN:358,365,EvalCtx_Destroy
FN:369,375,EvalCtx_Set
FN:379,388,EvalCtx_Eval
FN:390,398,EvalCtx_EvalExpr
FN:400,408,EvalCtx_EvalExprStr
FN:426,448,rpevalCommon
FN:450,460,rpevalNext_project
FN:462,478,rpevalNext_filter
FN:480,487,rpevalFree
FN:488,499,RPEvaluator_NewCommon
FN:501,504,RPEvaluator_NewProjector
FN:506,508,RPEvaluator_NewFilter
FN:510,541,RPEvaluator_Reply
FN:53,115,evalOp
FNDA:0,getPredicateBoolean
FNDA:0,setReferenceValue
FNDA:0,evalInverted
FNDA:0,evalPredicate
FNDA:0,evalProperty
FNDA:0,evalFunc
FNDA:0,evalInternal
FNDA:0,ExprEval_Eval
FNDA:0,ExprAST_GetLookupKeys
FNDA:0,ExprEval_UnalignedAlloc
FNDA:0,ExprEval_Strndup
FNDA:0,EvalCtx_Create
FNDA:0,EvalCtx_FromExpr
FNDA:0,EvalCtx_FromString
FNDA:0,EvalCtx_Destroy
FNDA:0,EvalCtx_Set
FNDA:0,EvalCtx_Eval
FNDA:0,EvalCtx_EvalExpr
FNDA:0,EvalCtx_EvalExprStr
FNDA:0,rpevalCommon
FNDA:0,rpevalNext_project
FNDA:0,rpevalNext_filter
FNDA:0,rpevalFree
FNDA:0,RPEvaluator_NewCommon
FNDA:0,RPEvaluator_NewProjector
FNDA:0,RPEvaluator_NewFilter
FNDA:0,RPEvaluator_Reply
FNDA:0,evalOp
FNF:28
FNH:0
DA:16,0
DA:17,0
DA:18,0
DA:22,0
DA:23,0
DA:26,0
DA:27,0
DA:28,0
DA:29,0
DA:31,0
DA:32,0
DA:33,0
DA:34,0
DA:35,0
DA:36,0
DA:38,0
DA:40,0
DA:44,0
DA:46,0
DA:47,0
DA:48,0
DA:50,0
DA:53,0
DA:54,0
DA:55,0
DA:57,0
DA:58,0
DA:60,0
DA:61,0
DA:65,0
DA:67,0
DA:68,0
DA:69,0
DA:73,0
DA:74,0
DA:75,0
DA:76,0
DA:77,0
DA:78,0
DA:79,0
DA:81,0
DA:83,0
DA:84,0
DA:85,0
DA:86,0
DA:87,0
DA:88,0
DA:89,0
DA:90,0
DA:92,0
DA:93,0
DA:94,0
DA:95,0
DA:97,0
DA:99,0
DA:100,0
DA:101,0
DA:102,0
DA:103,0
DA:104,0
DA:107,0
DA:108,0
DA:109,0
DA:111,0
DA:112,0
DA:113,0
DA:114,0
DA:117,0
DA:118,0
DA:120,0
DA:121,0
DA:123,0
DA:124,0
DA:125,0
DA:127,0
DA:128,0
DA:131,0
DA:132,0
DA:135,0
DA:136,0
DA:139,0
DA:140,0
DA:143,0
DA:144,0
DA:147,0
DA:148,0
DA:151,0
DA:152,0
DA:154,0
DA:155,0
DA:160,0
DA:161,0
DA:162,0
DA:163,0
DA:166,0
DA:167,0
DA:169,0
DA:170,0
DA:173,0
DA:175,0
DA:176,0
DA:177,0
DA:178,0
DA:179,0
DA:180,0
DA:181,0
DA:182,0
DA:183,0
DA:184,0
DA:185,0
DA:186,0
DA:189,0
DA:191,0
DA:192,0
DA:193,0
DA:194,0
DA:195,0
DA:197,0
DA:200,0
DA:201,0
DA:202,0
DA:203,0
DA:206,0
DA:207,0
DA:212,0
DA:213,0
DA:215,0
DA:219,0
DA:220,0
DA:221,0
DA:222,0
DA:224,0
DA:225,0
DA:228,0
DA:229,0
DA:232,0
DA:233,0
DA:234,0
DA:235,0
DA:236,0
DA:237,0
DA:238,0
DA:239,0
DA:240,0
DA:241,0
DA:242,0
DA:243,0
DA:244,0
DA:245,0
DA:246,0
DA:247,0
DA:249,0
DA:252,0
DA:253,0
DA:256,0
DA:266,0
DA:267,0
DA:268,0
DA:269,0
DA:270,0
DA:272,0
DA:274,0
DA:275,0
DA:276,0
DA:277,0
DA:279,0
DA:280,0
DA:281,0
DA:282,0
DA:283,0
DA:284,0
DA:285,0
DA:286,0
DA:287,0
DA:288,0
DA:289,0
DA:290,0
DA:291,0
DA:292,0
DA:294,0
DA:298,0
DA:299,0
DA:302,0
DA:303,0
DA:304,0
DA:305,0
DA:306,0
DA:311,0
DA:312,0
DA:314,0
DA:315,0
DA:316,0
DA:317,0
DA:318,0
DA:319,0
DA:320,0
DA:322,0
DA:323,0
DA:324,0
DA:326,0
DA:328,0
DA:330,0
DA:333,0
DA:334,0
DA:335,0
DA:336,0
DA:337,0
DA:340,0
DA:341,0
DA:342,0
DA:343,0
DA:345,0
DA:346,0
DA:347,0
DA:349,0
DA:351,0
DA:353,0
DA:354,0
DA:355,0
DA:358,0
DA:359,0
DA:360,0
DA:362,0
DA:363,0
DA:364,0
DA:365,0
DA:369,0
DA:370,0
DA:371,0
DA:372,0
DA:374,0
DA:379,0
DA:380,0
DA:381,0
DA:383,0
DA:384,0
DA:385,0
DA:387,0
DA:390,0
DA:391,0
DA:392,0
DA:394,0
DA:395,0
DA:397,0
DA:400,0
DA:401,0
DA:402,0
DA:404,0
DA:405,0
DA:407,0
DA:426,0
DA:428,0
DA:429,0
DA:430,0
DA:433,0
DA:434,0
DA:437,0
DA:439,0
DA:440,0
DA:443,0
DA:444,0
DA:445,0
DA:447,0
DA:450,0
DA:451,0
DA:452,0
DA:454,0
DA:455,0
DA:457,0
DA:458,0
DA:459,0
DA:462,0
DA:463,0
DA:465,0
DA:467,0
DA:468,0
DA:470,0
DA:471,0
DA:475,0
DA:477,0
DA:480,0
DA:481,0
DA:482,0
DA:483,0
DA:485,0
DA:486,0
DA:487,0
DA:488,0
DA:490,0
DA:491,0
DA:492,0
DA:493,0
DA:494,0
DA:495,0
DA:496,0
DA:497,0
DA:498,0
DA:501,0
DA:503,0
DA:506,0
DA:507,0
DA:510,0
DA:511,0
DA:512,0
DA:513,0
DA:516,0
DA:517,0
DA:518,0
DA:519,0
DA:520,0
DA:522,0
DA:523,0
DA:524,0
DA:525,0
DA:526,0
DA:527,0
DA:528,0
DA:529,0
DA:530,0
DA:531,0
DA:532,0
DA:533,0
DA:534,0
DA:535,0
DA:536,0
DA:537,0
DA:538,0
DA:541,0
LF:328
LH:0
end_of_record
TN:
SF:/home/nn/redis/FalkorDB/deps/RediSearch/src/aggregate/expr/expression.h
FN:61,75,getRSConditionStrings
FNDA:0,getRSConditionStrings
FNF:1
FNH:0
DA:61,0
DA:62,0
DA:63,0
DA:64,0
DA:65,0
DA:66,0
DA:67,0
DA:68,0
DA:69,0
DA:70,0
DA:71,0
DA:72,0
LF:12
LH:0
end_of_record
TN:
SF:/home/nn/redis/FalkorDB/deps/RediSearch/src/aggregate/expr/lexer.c
FN:170,701,RSExpr_Parse
FNDA:0,RSExpr_Parse
FNF:1
FNH:0
DA:170,0
DA:171,0
DA:178,0
DA:182,0
DA:183,0
DA:187,0
DA:188,0
DA:189,0
DA:190,0
DA:194,0
DA:197,0
DA:198,0
DA:199,0
DA:210,0
DA:211,0
DA:212,0
DA:213,0
DA:214,0
DA:215,0
DA:216,0
DA:217,0
DA:218,0
DA:219,0
DA:221,0
DA:222,0
DA:227,0
DA:228,0
DA:230,0
DA:231,0
DA:232,0
DA:234,0
DA:236,0
DA:237,0
DA:239,0
DA:240,0
DA:241,0
DA:242,0
DA:243,0
DA:245,0
DA:246,0
DA:249,0
DA:250,0
DA:253,0
DA:254,0
DA:255,0
DA:257,0
DA:259,0
DA:260,0
DA:262,0
DA:263,0
DA:264,0
DA:265,0
DA:266,0
DA:268,0
DA:269,0
DA:272,0
DA:275,0
DA:276,0
DA:277,0
DA:278,0
DA:280,0
DA:281,0
DA:283,0
DA:284,0
DA:285,0
DA:287,0
DA:289,0
DA:291,0
DA:292,0
DA:293,0
DA:295,0
DA:296,0
DA:297,0
DA:299,0
DA:300,0
DA:301,0
DA:303,0
DA:304,0
DA:305,0
DA:307,0
DA:308,0
DA:309,0
DA:311,0
DA:312,0
DA:313,0
DA:315,0
DA:316,0
DA:317,0
DA:319,0
DA:320,0
DA:321,0
DA:322,0
DA:324,0
DA:325,0
DA:326,0
DA:327,0
DA:330,0
DA:331,0
DA:333,0
DA:334,0
DA:335,0
DA:336,0
DA:337,0
DA:340,0
DA:341,0
DA:343,0
DA:344,0
DA:345,0
DA:346,0
DA:347,0
DA:350,0
DA:351,0
DA:353,0
DA:354,0
DA:355,0
DA:356,0
DA:357,0
DA:360,0
DA:361,0
DA:363,0
DA:364,0
DA:365,0
DA:366,0
DA:367,0
DA:370,0
DA:371,0
DA:373,0
DA:374,0
DA:375,0
DA:376,0
DA:377,0
DA:380,0
DA:381,0
DA:383,0
DA:384,0
DA:385,0
DA:386,0
DA:387,0
DA:390,0
DA:391,0
DA:393,0
DA:394,0
DA:395,0
DA:396,0
DA:397,0
DA:400,0
DA:401,0
DA:403,0
DA:404,0
DA:405,0
DA:406,0
DA:407,0
DA:410,0
DA:411,0
DA:413,0
DA:414,0
DA:415,0
DA:416,0
DA:417,0
DA:420,0
DA:421,0
DA:423,0
DA:424,0
DA:425,0
DA:426,0
DA:427,0
DA:430,0
DA:431,0
DA:433,0
DA:434,0
DA:435,0
DA:436,0
DA:437,0
DA:440,0
DA:441,0
DA:443,0
DA:444,0
DA:445,0
DA:446,0
DA:447,0
DA:450,0
DA:451,0
DA:453,0
DA:454,0
DA:455,0
DA:456,0
DA:457,0
DA:460,0
DA:461,0
DA:463,0
DA:465,0
DA:466,0
DA:467,0
DA:468,0
DA:470,0
DA:471,0
DA:472,0
DA:475,0
DA:476,0
DA:478,0
DA:479,0
DA:480,0
DA:482,0
DA:483,0
DA:484,0
DA:486,0
DA:487,0
DA:488,0
DA:490,0
DA:491,0
DA:492,0
DA:493,0
DA:494,0
DA:495,0
DA:496,0
DA:497,0
DA:498,0
DA:502,0
DA:503,0
DA:505,0
DA:506,0
DA:507,0
DA:508,0
DA:509,0
DA:510,0
DA:511,0
DA:514,0
DA:515,0
DA:517,0
DA:518,0
DA:519,0
DA:520,0
DA:521,0
DA:524,0
DA:525,0
DA:527,0
DA:528,0
DA:529,0
DA:530,0
DA:531,0
DA:534,0
DA:535,0
DA:537,0
DA:538,0
DA:539,0
DA:540,0
DA:541,0
DA:544,0
DA:545,0
DA:547,0
DA:548,0
DA:549,0
DA:550,0
DA:551,0
DA:554,0
DA:555,0
DA:557,0
DA:558,0
DA:559,0
DA:560,0
DA:561,0
DA:564,0
DA:565,0
DA:567,0
DA:568,0
DA:569,0
DA:571,0
DA:572,0
DA:573,0
DA:574,0
DA:575,0
DA:576,0
DA:577,0
DA:578,0
DA:579,0
DA:583,0
DA:584,0
DA:586,0
DA:587,0
DA:588,0
DA:591,0
DA:592,0
DA:593,0
DA:594,0
DA:595,0
DA:596,0
DA:597,0
DA:598,0
DA:601,0
DA:602,0
DA:603,0
DA:604,0
DA:605,0
DA:606,0
DA:608,0
DA:609,0
DA:610,0
DA:611,0
DA:614,0
DA:615,0
DA:616,0
DA:617,0
DA:618,0
DA:619,0
DA:620,0
DA:623,0
DA:624,0
DA:625,0
DA:626,0
DA:627,0
DA:628,0
DA:629,0
DA:632,0
DA:633,0
DA:634,0
DA:636,0
DA:637,0
DA:638,0
DA:639,0
DA:641,0
DA:642,0
DA:643,0
DA:646,0
DA:647,0
DA:648,0
DA:649,0
DA:652,0
DA:657,0
DA:658,0
DA:659,0
DA:660,0
DA:661,0
DA:662,0
DA:664,0
DA:665,0
DA:670,0
DA:671,0
DA:672,0
DA:673,0
DA:674,0
DA:675,0
DA:677,0
DA:678,0
DA:679,0
DA:683,0
DA:689,0
DA:690,0
DA:691,0
DA:692,0
DA:693,0
DA:695,0
DA:696,0
DA:697,0
DA:700,0
LF:354
LH:0
end_of_record
TN:
SF:/home/nn/redis/FalkorDB/deps/RediSearch/src/aggregate/expr/parser.c
FN:1120,1137,yy_parse_failed
FN:1143,1159,yy_syntax_error
FN:1164,1184,yy_accept
FN:1205,1374,RSExprParser_Parse
FN:348,353,RSExprParser_ParseTrace
FN:470,494,RSExprParser_ParseInit
FN:509,517,RSExprParser_ParseAlloc
FN:528,567,yy_destructor
FN:575,588,yy_pop_parser_stack
FN:593,599,RSExprParser_ParseFinalize
FN:610,619,RSExprParser_ParseFree
FN:673,735,yy_find_shift_action
FN:741,765,yy_find_reduce_action
FN:770,785,yyStackOverflow
FN:791,803,yyTraceShift
FN:811,848,yy_shift
FN:898,1114,yy_reduce
FNDA:0,yy_parse_failed
FNDA:0,yy_syntax_error
FNDA:0,yy_accept
FNDA:0,RSExprParser_Parse
FNDA:0,RSExprParser_ParseTrace
FNDA:0,RSExprParser_ParseInit
FNDA:0,RSExprParser_ParseAlloc
FNDA:0,yy_destructor
FNDA:0,yy_pop_parser_stack
FNDA:0,RSExprParser_ParseFinalize
FNDA:0,RSExprParser_ParseFree
FNDA:0,yy_find_shift_action
FNDA:0,yy_find_reduce_action
FNDA:0,yyStackOverflow
FNDA:0,yyTraceShift
FNDA:0,yy_shift
FNDA:0,yy_reduce
FNF:17
FNH:0
DA:348,0
DA:349,0
DA:350,0
DA:351,0
DA:352,0
DA:353,0
DA:470,0
DA:471,0
DA:486,0
DA:488,0
DA:489,0
DA:490,0
DA:492,0
DA:494,0
DA:509,0
DA:511,0
DA:512,0
DA:514,0
DA:516,0
DA:528,0
DA:533,0
DA:535,0
DA:548,0
DA:551,0
DA:553,0
DA:554,0
DA:558,0
DA:559,0
DA:561,0
DA:563,0
DA:565,0
DA:567,0
DA:575,0
DA:577,0
DA:578,0
DA:579,0
DA:581,0
DA:582,0
DA:584,0
DA:587,0
DA:588,0
DA:593,0
DA:594,0
DA:595,0
DA:599,0
DA:610,0
DA:615,0
DA:617,0
DA:618,0
DA:673,0
DA:679,0
DA:680,0
DA:685,0
DA:686,0
DA:687,0
DA:688,0
DA:689,0
DA:690,0
DA:691,0
DA:730,0
DA:732,0
DA:741,0
DA:751,0
DA:753,0
DA:754,0
DA:755,0
DA:761,0
DA:762,0
DA:764,0
DA:770,0
DA:771,0
DA:774,0
DA:775,0
DA:778,0
DA:783,0
DA:785,0
DA:791,0
DA:792,0
DA:793,0
DA:794,0
DA:795,0
DA:798,0
DA:799,0
DA:803,0
DA:811,0
DA:818,0
DA:826,0
DA:827,0
DA:828,0
DA:829,0
DA:840,0
DA:841,0
DA:843,0
DA:844,0
DA:845,0
DA:846,0
DA:847,0
DA:898,0
DA:909,0
DA:912,0
DA:914,0
DA:915,0
DA:916,0
DA:917,0
DA:919,0
DA:921,0
DA:922,0
DA:930,0
DA:938,0
DA:939,0
DA:943,0
DA:959,0
DA:970,0
DA:971,0
DA:972,0
DA:973,0
DA:974,0
DA:975,0
DA:976,0
DA:977,0
DA:978,0
DA:979,0
DA:980,0
DA:981,0
DA:982,0
DA:983,0
DA:984,0
DA:985,0
DA:986,0
DA:987,0
DA:988,0
DA:989,0
DA:990,0
DA:991,0
DA:992,0
DA:993,0
DA:994,0
DA:995,0
DA:996,0
DA:997,0
DA:998,0
DA:999,0
DA:1000,0
DA:1001,0
DA:1002,0
DA:1003,0
DA:1004,0
DA:1005,0
DA:1006,0
DA:1007,0
DA:1008,0
DA:1009,0
DA:1010,0
DA:1011,0
DA:1012,0
DA:1013,0
DA:1014,0
DA:1015,0
DA:1016,0
DA:1017,0
DA:1018,0
DA:1019,0
DA:1020,0
DA:1021,0
DA:1022,0
DA:1023,0
DA:1024,0
DA:1025,0
DA:1026,0
DA:1027,0
DA:1028,0
DA:1029,0
DA:1030,0
DA:1031,0
DA:1032,0
DA:1033,0
DA:1034,0
DA:1035,0
DA:1036,0
DA:1037,0
DA:1038,0
DA:1039,0
DA:1040,0
DA:1041,0
DA:1042,0
DA:1043,0
DA:1044,0
DA:1045,0
DA:1046,0
DA:1047,0
DA:1048,0
DA:1049,0
DA:1050,0
DA:1051,0
DA:1052,0
DA:1053,0
DA:1054,0
DA:1056,0
DA:1057,0
DA:1058,0
DA:1059,0
DA:1060,0
DA:1062,0
DA:1065,0
DA:1066,0
DA:1067,0
DA:1069,0
DA:1070,0
DA:1072,0
DA:1073,0
DA:1074,0
DA:1077,0
DA:1078,0
DA:1079,0
DA:1080,0
DA:1081,0
DA:1082,0
DA:1083,0
DA:1084,0
DA:1085,0
DA:1086,0
DA:1088,0
DA:1090,0
DA:1091,0
DA:1092,0
DA:1093,0
DA:1096,0
DA:1097,0
DA:1098,0
DA:1099,0
DA:1103,0
DA:1106,0
DA:1108,0
DA:1109,0
DA:1110,0
DA:1111,0
DA:1112,0
DA:1113,0
DA:1120,0
DA:1123,0
DA:1126,0
DA:1127,0
DA:1130,0
DA:1135,0
DA:1137,0
DA:1143,0
DA:1148,0
DA:1154,0
DA:1155,0
DA:1157,0
DA:1159,0
DA:1164,0
DA:1167,0
DA:1170,0
DA:1171,0
DA:1175,0
DA:1177,0
DA:1182,0
DA:1184,0
DA:1205,0
DA:1219,0
DA:1221,0
DA:1223,0
DA:1225,0
DA:1228,0
DA:1230,0
DA:1231,0
DA:1232,0
DA:1233,0
DA:1235,0
DA:1236,0
DA:1242,0
DA:1243,0
DA:1244,0
DA:1245,0
DA:1247,0
DA:1248,0
DA:1250,0
DA:1252,0
DA:1253,0
DA:1254,0
DA:1255,0
DA:1256,0
DA:1258,0
DA:1259,0
DA:1264,0
DA:1265,0
DA:1346,0
DA:1347,0
DA:1349,0
DA:1350,0
DA:1351,0
DA:1352,0
DA:1354,0
DA:1357,0
DA:1360,0
DA:1362,0
DA:1364,0
DA:1365,0
DA:1366,0
DA:1367,0
DA:1368,0
DA:1370,0
DA:1373,0
LF:304
LH:0
end_of_record
TN:
SF:/home/nn/redis/FalkorDB/deps/RediSearch/src/aggregate/functions/date.c
FN:104,119,func_minute
FN:122,144,func_day
FN:146,165,func_dayofmonth
FN:167,186,func_dayofweek
FN:188,207,func_dayofyear
FN:19,59,timeFormat
FN:209,226,func_year
FN:229,252,func_month
FN:254,272,func_monthofyear
FN:274,294,parseTime
FN:296,309,RegisterDateFunctions
FN:63,78,fast_timegm
FN:80,102,func_hour
FNDA:0,func_minute
FNDA:0,func_day
FNDA:0,func_dayofmonth
FNDA:0,func_dayofweek
FNDA:0,func_dayofyear
FNDA:0,timeFormat
FNDA:0,func_year
FNDA:0,func_month
FNDA:0,func_monthofyear
FNDA:0,parseTime
FNDA:1,RegisterDateFunctions
FNDA:0,fast_timegm
FNDA:0,func_hour
FNF:13
FNH:1
DA:19,0
DA:21,0
DA:22,0
DA:23,0
DA:24,0
DA:25,0
DA:28,0
DA:31,0
DA:32,0
DA:34,0
DA:36,0
DA:38,0
DA:41,0
DA:42,0
DA:44,0
DA:48,0
DA:52,0
DA:53,0
DA:54,0
DA:57,0
DA:58,0
DA:63,0
DA:65,0
DA:68,0
DA:69,0
DA:72,0
DA:74,0
DA:75,0
DA:77,0
DA:80,0
DA:81,0
DA:84,0
DA:85,0
DA:87,0
DA:90,0
DA:91,0
DA:92,0
DA:93,0
DA:94,0
DA:96,0
DA:97,0
DA:100,0
DA:101,0
DA:104,0
DA:106,0
DA:109,0
DA:110,0
DA:112,0
DA:113,0
DA:114,0
DA:117,0
DA:118,0
DA:122,0
DA:123,0
DA:126,0
DA:127,0
DA:129,0
DA:132,0
DA:133,0
DA:134,0
DA:135,0
DA:136,0
DA:137,0
DA:138,0
DA:139,0
DA:142,0
DA:143,0
DA:146,0
DA:148,0
DA:151,0
DA:152,0
DA:154,0
DA:156,0
DA:158,0
DA:159,0
DA:160,0
DA:163,0
DA:164,0
DA:167,0
DA:169,0
DA:172,0
DA:173,0
DA:175,0
DA:177,0
DA:179,0
DA:180,0
DA:181,0
DA:184,0
DA:185,0
DA:188,0
DA:190,0
DA:193,0
DA:194,0
DA:196,0
DA:198,0
DA:200,0
DA:201,0
DA:202,0
DA:205,0
DA:206,0
DA:209,0
DA:210,0
DA:213,0
DA:214,0
DA:216,0
DA:218,0
DA:220,0
DA:221,0
DA:222,0
DA:224,0
DA:225,0
DA:229,0
DA:231,0
DA:234,0
DA:235,0
DA:237,0
DA:239,0
DA:240,0
DA:241,0
DA:242,0
DA:243,0
DA:244,0
DA:245,0
DA:246,0
DA:247,0
DA:250,0
DA:251,0
DA:254,0
DA:256,0
DA:259,0
DA:260,0
DA:262,0
DA:264,0
DA:265,0
DA:266,0
DA:267,0
DA:270,0
DA:271,0
DA:274,0
DA:275,0
DA:276,0
DA:277,0
DA:279,0
DA:280,0
DA:282,0
DA:283,0
DA:284,0
DA:285,0
DA:287,0
DA:288,0
DA:289,0
DA:291,0
DA:292,0
DA:293,0
DA:296,1
DA:297,1
DA:298,1
DA:299,1
DA:300,1
DA:301,1
DA:302,1
DA:303,1
DA:305,1
DA:306,1
DA:307,1
DA:308,1
DA:309,1
LF:167
LH:13
end_of_record
TN:
SF:/home/nn/redis/FalkorDB/deps/RediSearch/src/aggregate/functions/function.c
FN:12,21,RSFunctionRegistry_Get
FN:23,33,RSFunctionRegistry_RegisterFunction
FN:35,40,RegisterAllFunctions
FN:42,45,FunctionRegistry_Free
FNDA:0,RSFunctionRegistry_Get
FNDA:31,RSFunctionRegistry_RegisterFunction
FNDA:1,RegisterAllFunctions
FNDA:0,FunctionRegistry_Free
FNF:4
FNH:2
DA:12,0
DA:14,0
DA:15,0
DA:16,0
DA:17,0
DA:20,0
DA:23,31
DA:24,31
DA:25,5
DA:26,5
DA:28,31
DA:29,31
DA:30,31
DA:31,31
DA:32,31
DA:35,1
DA:36,1
DA:37,1
DA:38,1
DA:39,1
DA:40,1
DA:42,0
DA:43,0
DA:44,0
DA:45,0
LF:25
LH:15
end_of_record
TN:
SF:/home/nn/redis/FalkorDB/deps/RediSearch/src/aggregate/functions/geo.c
FN:15,34,parseField
FN:37,42,parseLonLat
FN:45,71,geofunc_distance
FN:73,75,RegisterGeoFunctions
FNDA:0,parseField
FNDA:0,parseLonLat
FNDA:0,geofunc_distance
FNDA:1,RegisterGeoFunctions
FNF:4
FNH:1
DA:15,0
DA:16,0
DA:17,0
DA:19,0
DA:21,0
DA:22,0
DA:23,0
DA:25,0
DA:26,0
DA:27,0
DA:30,0
DA:33,0
DA:37,0
DA:38,0
DA:39,0
DA:41,0
DA:45,0
DA:47,0
DA:52,0
DA:53,0
DA:54,0
DA:55,0
DA:57,0
DA:58,0
DA:60,0
DA:63,0
DA:64,0
DA:65,0
DA:66,0
DA:68,0
DA:69,0
DA:70,0
DA:73,1
DA:74,1
DA:75,1
LF:35
LH:3
end_of_record
TN:
SF:/home/nn/redis/FalkorDB/deps/RediSearch/src/aggregate/functions/math.c
FN:29,29,mathfunc_log
FN:30,30,mathfunc_floor
FN:31,31,mathfunc_fabs
FN:32,32,mathfunc_ceil
FN:33,33,mathfunc_sqrt
FN:34,34,mathfunc_log2
FN:35,35,mathfunc_exp
FN:40,48,RegisterMathFunctions
FNDA:0,mathfunc_log
FNDA:0,mathfunc_floor
FNDA:0,mathfunc_fabs
FNDA:0,mathfunc_ceil
FNDA:0,mathfunc_sqrt
FNDA:0,mathfunc_log2
FNDA:0,mathfunc_exp
FNDA:1,RegisterMathFunctions
FNF:8
FNH:1
DA:29,0
DA:30,0
DA:31,0
DA:32,0
DA:33,0
DA:34,0
DA:35,0
DA:40,1
DA:41,1
DA:42,1
DA:43,1
DA:44,1
DA:45,1
DA:46,1
DA:47,1
DA:48,1
LF:16
LH:9
end_of_record
TN:
SF:/home/nn/redis/FalkorDB/deps/RediSearch/src/aggregate/functions/string.c
FN:100,133,stringfunc_substr
FN:135,148,func_to_number
FN:150,155,func_to_str
FN:157,239,stringfunc_format
FN:21,53,func_matchedTerms
FN:241,251,strtrim
FN:252,309,stringfunc_split
FN:311,322,func_exists
FN:324,338,stringfunc_startswith
FN:340,366,stringfunc_contains
FN:368,379,stringfunc_strlen
FN:381,394,RegisterStringFunctions
FN:56,75,stringfunc_tolower
FN:78,97,stringfunc_toupper
FNDA:0,stringfunc_substr
FNDA:0,func_to_number
FNDA:0,func_to_str
FNDA:0,stringfunc_format
FNDA:0,func_matchedTerms
FNDA:0,strtrim
FNDA:0,stringfunc_split
FNDA:0,func_exists
FNDA:0,stringfunc_startswith
FNDA:0,stringfunc_contains
FNDA:0,stringfunc_strlen
FNDA:1,RegisterStringFunctions
FNDA:0,stringfunc_tolower
FNDA:0,stringfunc_toupper
FNF:14
FNH:1
DA:21,0
DA:23,0
DA:24,0
DA:26,0
DA:27,0
DA:28,0
DA:33,0
DA:34,0
DA:35,0
DA:38,0
DA:39,0
DA:40,0
DA:41,0
DA:42,0
DA:43,0
DA:44,0
DA:46,0
DA:47,0
DA:48,0
DA:51,0
DA:52,0
DA:56,0
DA:59,0
DA:60,0
DA:61,0
DA:62,0
DA:63,0
DA:66,0
DA:67,0
DA:68,0
DA:69,0
DA:70,0
DA:72,0
DA:73,0
DA:74,0
DA:78,0
DA:80,0
DA:82,0
DA:83,0
DA:84,0
DA:85,0
DA:88,0
DA:89,0
DA:90,0
DA:91,0
DA:92,0
DA:94,0
DA:95,0
DA:96,0
DA:100,0
DA:102,0
DA:104,0
DA:105,0
DA:108,0
DA:109,0
DA:110,0
DA:111,0
DA:114,0
DA:115,0
DA:118,0
DA:119,0
DA:121,0
DA:123,0
DA:124,0
DA:126,0
DA:127,0
DA:130,0
DA:131,0
DA:132,0
DA:135,0
DA:136,0
DA:139,0
DA:140,0
DA:141,0
DA:142,0
DA:143,0
DA:146,0
DA:147,0
DA:150,0
DA:151,0
DA:153,0
DA:154,0
DA:157,0
DA:159,0
DA:160,0
DA:161,0
DA:163,0
DA:165,0
DA:166,0
DA:167,0
DA:168,0
DA:169,0
DA:171,0
DA:172,0
DA:173,0
DA:176,0
DA:178,0
DA:179,0
DA:183,0
DA:184,0
DA:186,0
DA:187,0
DA:189,0
DA:190,0
DA:193,0
DA:194,0
DA:195,0
DA:198,0
DA:199,0
DA:200,0
DA:202,0
DA:203,0
DA:204,0
DA:206,0
DA:207,0
DA:209,0
DA:210,0
DA:211,0
DA:213,0
DA:215,0
DA:218,0
DA:219,0
DA:222,0
DA:223,0
DA:227,0
DA:228,0
DA:231,0
DA:232,0
DA:234,0
DA:235,0
DA:236,0
DA:237,0
DA:238,0
DA:241,0
DA:244,0
DA:245,0
DA:246,0
DA:247,0
DA:248,0
DA:250,0
DA:252,0
DA:254,0
DA:255,0
DA:256,0
DA:258,0
DA:259,0
DA:260,0
DA:261,0
DA:262,0
DA:263,0
DA:265,0
DA:266,0
DA:267,0
DA:271,0
DA:272,0
DA:273,0
DA:275,0
DA:279,0
DA:280,0
DA:281,0
DA:283,0
DA:286,0
DA:287,0
DA:288,0
DA:293,0
DA:295,0
DA:302,0
DA:303,0
DA:304,0
DA:306,0
DA:307,0
DA:308,0
DA:311,0
DA:312,0
DA:314,0
DA:315,0
DA:316,0
DA:318,0
DA:319,0
DA:321,0
DA:324,0
DA:325,0
DA:326,0
DA:327,0
DA:329,0
DA:330,0
DA:332,0
DA:334,0
DA:335,0
DA:336,0
DA:337,0
DA:340,0
DA:341,0
DA:342,0
DA:343,0
DA:345,0
DA:346,0
DA:349,0
DA:351,0
DA:352,0
DA:355,0
DA:356,0
DA:357,0
DA:358,0
DA:359,0
DA:362,0
DA:364,0
DA:365,0
DA:368,0
DA:369,0
DA:370,0
DA:372,0
DA:375,0
DA:376,0
DA:377,0
DA:378,0
DA:381,1
DA:382,1
DA:383,1
DA:384,1
DA:385,1
DA:386,1
DA:387,1
DA:388,1
DA:389,1
DA:390,1
DA:391,1
DA:392,1
DA:393,1
DA:394,1
LF:230
LH:14
end_of_record
TN:
SF:/home/nn/redis/FalkorDB/deps/RediSearch/src/aggregate/group_by.c
FN:103,111,writeGroupValues
FN:113,146,Grouper_rpYield
FN:148,153,invokeReducers
FN:171,222,extractGroups
FN:224,238,invokeGroupReducers
FN:240,257,Grouper_rpAccum
FN:259,269,cleanCallback
FN:271,292,Grouper_rpFree
FN:294,296,Grouper_Free
FN:298,315,Grouper_New
FN:317,321,Grouper_AddReducer
FN:323,325,Grouper_GetRP
FN:41,41,kh_destroy_khid
FN:41,41,kh_get_khid
FN:41,41,kh_init_khid
FN:41,41,kh_put_khid
FN:41,41,kh_resize_khid
FN:82,101,createGroup
FNDA:0,writeGroupValues
FNDA:0,Grouper_rpYield
FNDA:0,invokeReducers
FNDA:0,extractGroups
FNDA:0,invokeGroupReducers
FNDA:0,Grouper_rpAccum
FNDA:0,cleanCallback
FNDA:0,Grouper_rpFree
FNDA:0,Grouper_Free
FNDA:0,Grouper_New
FNDA:0,Grouper_AddReducer
FNDA:0,Grouper_GetRP
FNDA:0,kh_destroy_khid
FNDA:0,kh_get_khid
FNDA:0,kh_init_khid
FNDA:0,kh_put_khid
FNDA:0,kh_resize_khid
FNDA:0,createGroup
FNF:18
FNH:0
DA:41,0
DA:82,0
DA:83,0
DA:84,0
DA:85,0
DA:86,0
DA:88,0
DA:89,0
DA:93,0
DA:94,0
DA:95,0
DA:100,0
DA:103,0
DA:104,0
DA:105,0
DA:106,0
DA:107,0
DA:108,0
DA:111,0
DA:113,0
DA:114,0
DA:116,0
DA:117,0
DA:118,0
DA:119,0
DA:122,0
DA:125,0
DA:126,0
DA:129,0
DA:130,0
DA:131,0
DA:132,0
DA:133,0
DA:134,0
DA:141,0
DA:142,0
DA:145,0
DA:148,0
DA:149,0
DA:150,0
DA:151,0
DA:153,0
DA:171,0
DA:174,0
DA:175,0
DA:178,0
DA:179,0
DA:180,0
DA:181,0
DA:183,0
DA:187,0
DA:188,0
DA:192,0
DA:194,0
DA:195,0
DA:196,0
DA:199,0
DA:202,0
DA:203,0
DA:205,0
DA:208,0
DA:209,0
DA:211,0
DA:213,0
DA:214,0
DA:215,0
DA:218,0
DA:219,0
DA:224,0
DA:225,0
DA:226,0
DA:227,0
DA:229,0
DA:230,0
DA:231,0
DA:232,0
DA:233,0
DA:235,0
DA:237,0
DA:238,0
DA:240,0
DA:241,0
DA:245,0
DA:246,0
DA:247,0
DA:249,0
DA:250,0
DA:251,0
DA:252,0
DA:253,0
DA:255,0
DA:259,0
DA:260,0
DA:261,0
DA:263,0
DA:264,0
DA:265,0
DA:266,0
DA:269,0
DA:271,0
DA:272,0
DA:273,0
DA:274,0
DA:275,0
DA:277,0
DA:278,0
DA:280,0
DA:281,0
DA:283,0
DA:284,0
DA:286,0
DA:287,0
DA:289,0
DA:290,0
DA:291,0
DA:292,0
DA:294,0
DA:295,0
DA:296,0
DA:298,0
DA:299,0
DA:300,0
DA:301,0
DA:303,0
DA:304,0
DA:305,0
DA:306,0
DA:307,0
DA:308,0
DA:311,0
DA:312,0
DA:313,0
DA:314,0
DA:317,0
DA:318,0
DA:319,0
DA:320,0
DA:321,0
DA:323,0
DA:324,0
LF:140
LH:0
end_of_record
TN:
SF:/home/nn/redis/FalkorDB/deps/RediSearch/src/aggregate/reducer.c
FN:16,20,RDCR_RegisterFactory
FN:24,36,RDCR_GetFactory
FN:54,58,RDCR_RegisterBuiltins
FN:60,79,ReducerOpts_GetKey
FN:81,87,ReducerOpts_EnsureArgsConsumed
FN:89,91,Reducer_BlkAlloc
FNDA:0,RDCR_RegisterFactory
FNDA:0,RDCR_GetFactory
FNDA:0,RDCR_RegisterBuiltins
FNDA:0,ReducerOpts_GetKey
FNDA:0,ReducerOpts_EnsureArgsConsumed
FNDA:0,Reducer_BlkAlloc
FNF:6
FNH:0
DA:16,0
DA:17,0
DA:18,0
DA:19,0
DA:20,0
DA:24,0
DA:25,0
DA:26,0
DA:27,0
DA:29,0
DA:30,0
DA:31,0
DA:32,0
DA:35,0
DA:54,0
DA:56,0
DA:58,0
DA:60,0
DA:61,0
DA:63,0
DA:64,0
DA:65,0
DA:69,0
DA:70,0
DA:72,0
DA:73,0
DA:74,0
DA:76,0
DA:78,0
DA:81,0
DA:82,0
DA:83,0
DA:84,0
DA:86,0
DA:89,0
DA:90,0
LF:36
LH:0
end_of_record
TN:
SF:/home/nn/redis/FalkorDB/deps/RediSearch/src/aggregate/reducer.h
FN:91,94,Reducer_GenericFree
FNDA:0,Reducer_GenericFree
FNF:1
FNH:0
DA:91,0
DA:92,0
DA:93,0
DA:94,0
LF:4
LH:0
end_of_record
TN:
SF:/home/nn/redis/FalkorDB/deps/RediSearch/src/aggregate/reducers/count.c
FN:16,20,counterNewInstance
FN:22,25,counterAdd
FN:27,30,counterFinalize
FN:32,43,RDCRCount_New
FNDA:0,counterNewInstance
FNDA:0,counterAdd
FNDA:0,counterFinalize
FNDA:0,RDCRCount_New
FNF:4
FNH:0
DA:16,0
DA:17,0
DA:18,0
DA:19,0
DA:22,0
DA:23,0
DA:24,0
DA:27,0
DA:28,0
DA:29,0
DA:32,0
DA:33,0
DA:34,0
DA:35,0
DA:37,0
DA:38,0
DA:39,0
DA:40,0
DA:41,0
DA:42,0
LF:20
LH:0
end_of_record
TN:
SF:/home/nn/redis/FalkorDB/deps/RediSearch/src/aggregate/reducers/count_distinct.c
FN:108,111,distinctishFinalize
FN:113,116,distinctishFreeInstance
FN:125,136,hllFinalize
FN:138,157,newHllCommon
FN:159,161,RDCRCountDistinctish_New
FN:163,165,RDCRHLL_New
FN:172,221,hllsumAdd
FN:18,18,kh_destroy_khid
FN:18,18,kh_get_khid
FN:18,18,kh_init_khid
FN:18,18,kh_put_khid
FN:18,18,kh_resize_khid
FN:223,226,hllsumFinalize
FN:228,234,hllsumNewInstance
FN:236,239,hllsumFreeInstance
FN:241,254,RDCRHLLSum_New
FN:26,34,distinctNewInstance
FN:36,52,distinctAdd
FN:54,57,distinctFinalize
FN:59,64,distinctFreeInstance
FN:66,79,RDCRCountDistinct_New
FN:86,93,distinctishNewInstance
FN:95,106,distinctishAdd
FNDA:0,distinctishFinalize
FNDA:0,distinctishFreeInstance
FNDA:0,hllFinalize
FNDA:0,newHllCommon
FNDA:0,RDCRCountDistinctish_New
FNDA:0,RDCRHLL_New
FNDA:0,hllsumAdd
FNDA:0,kh_destroy_khid
FNDA:0,kh_get_khid
FNDA:0,kh_init_khid
FNDA:0,kh_put_khid
FNDA:0,kh_resize_khid
FNDA:0,hllsumFinalize
FNDA:0,hllsumNewInstance
FNDA:0,hllsumFreeInstance
FNDA:0,RDCRHLLSum_New
FNDA:0,distinctNewInstance
FNDA:0,distinctAdd
FNDA:0,distinctFinalize
FNDA:0,distinctFreeInstance
FNDA:0,RDCRCountDistinct_New
FNDA:0,distinctishNewInstance
FNDA:0,distinctishAdd
FNF:23
FNH:0
DA:18,0
DA:26,0
DA:27,0
DA:29,0
DA:30,0
DA:31,0
DA:32,0
DA:33,0
DA:36,0
DA:37,0
DA:38,0
DA:39,0
DA:40,0
DA:43,0
DA:45,0
DA:46,0
DA:47,0
DA:49,0
DA:51,0
DA:54,0
DA:55,0
DA:56,0
DA:59,0
DA:60,0
DA:63,0
DA:64,0
DA:66,0
DA:67,0
DA:68,0
DA:69,0
DA:70,0
DA:72,0
DA:73,0
DA:74,0
DA:75,0
DA:76,0
DA:77,0
DA:78,0
DA:86,0
DA:87,0
DA:89,0
DA:90,0
DA:91,0
DA:92,0
DA:95,0
DA:96,0
DA:97,0
DA:98,0
DA:99,0
DA:102,0
DA:103,0
DA:104,0
DA:105,0
DA:108,0
DA:109,0
DA:110,0
DA:113,0
DA:114,0
DA:115,0
DA:116,0
DA:125,0
DA:126,0
DA:129,0
DA:130,0
DA:131,0
DA:132,0
DA:133,0
DA:134,0
DA:135,0
DA:138,0
DA:139,0
DA:140,0
DA:141,0
DA:142,0
DA:144,0
DA:145,0
DA:146,0
DA:147,0
DA:149,0
DA:150,0
DA:151,0
DA:153,0
DA:154,0
DA:156,0
DA:159,0
DA:160,0
DA:163,0
DA:164,0
DA:172,0
DA:173,0
DA:174,0
DA:176,0
DA:178,0
DA:182,0
DA:185,0
DA:186,0
DA:189,0
DA:190,0
DA:194,0
DA:195,0
DA:196,0
DA:201,0
DA:202,0
DA:205,0
DA:206,0
DA:207,0
DA:210,0
DA:211,0
DA:212,0
DA:213,0
DA:217,0
DA:218,0
DA:220,0
DA:223,0
DA:224,0
DA:225,0
DA:228,0
DA:229,0
DA:230,0
DA:231,0
DA:232,0
DA:233,0
DA:236,0
DA:237,0
DA:238,0
DA:239,0
DA:241,0
DA:242,0
DA:243,0
DA:244,0
DA:245,0
DA:247,0
DA:248,0
DA:249,0
DA:250,0
DA:251,0
DA:252,0
DA:253,0
LF:138
LH:0
end_of_record
TN:
SF:/home/nn/redis/FalkorDB/deps/RediSearch/src/aggregate/reducers/deviation.c
FN:18,23,stddevNewInstance
FN:25,39,stddevAddInternal
FN:41,60,stddevAdd
FN:62,67,stddevFinalize
FN:69,81,RDCRStdDev_New
FNDA:0,stddevNewInstance
FNDA:0,stddevAddInternal
FNDA:0,stddevAdd
FNDA:0,stddevFinalize
FNDA:0,RDCRStdDev_New
FNF:5
FNH:0
DA:18,0
DA:19,0
DA:20,0
DA:21,0
DA:22,0
DA:25,0
DA:27,0
DA:28,0
DA:29,0
DA:30,0
DA:32,0
DA:33,0
DA:36,0
DA:37,0
DA:39,0
DA:41,0
DA:42,0
DA:44,0
DA:45,0
DA:46,0
DA:47,0
DA:48,0
DA:51,0
DA:52,0
DA:53,0
DA:54,0
DA:59,0
DA:62,0
DA:63,0
DA:64,0
DA:65,0
DA:66,0
DA:69,0
DA:70,0
DA:71,0
DA:72,0
DA:73,0
DA:75,0
DA:76,0
DA:77,0
DA:78,0
DA:79,0
DA:80,0
LF:43
LH:0
end_of_record
TN:
SF:/home/nn/redis/FalkorDB/deps/RediSearch/src/aggregate/reducers/first_value.c
FN:23,34,fvNewInstance
FN:36,49,fvAdd_noSort
FN:51,79,fvAdd_sort
FN:81,88,fvFinalize
FN:90,94,fvFreeInstance
FN:96,131,RDCRFirstValue_New
FNDA:0,fvNewInstance
FNDA:0,fvAdd_noSort
FNDA:0,fvAdd_sort
FNDA:0,fvFinalize
FNDA:0,fvFreeInstance
FNDA:0,RDCRFirstValue_New
FNF:6
FNH:0
DA:23,0
DA:24,0
DA:25,0
DA:26,0
DA:27,0
DA:28,0
DA:29,0
DA:31,0
DA:32,0
DA:33,0
DA:36,0
DA:37,0
DA:38,0
DA:39,0
DA:42,0
DA:43,0
DA:44,0
DA:45,0
DA:47,0
DA:48,0
DA:51,0
DA:52,0
DA:53,0
DA:54,0
DA:55,0
DA:58,0
DA:59,0
DA:60,0
DA:63,0
DA:65,0
DA:66,0
DA:67,0
DA:70,0
DA:71,0
DA:73,0
DA:74,0
DA:75,0
DA:78,0
DA:81,0
DA:82,0
DA:83,0
DA:84,0
DA:86,0
DA:90,0
DA:91,0
DA:92,0
DA:93,0
DA:94,0
DA:96,0
DA:97,0
DA:98,0
DA:100,0
DA:101,0
DA:102,0
DA:105,0
DA:107,0
DA:108,0
DA:109,0
DA:111,0
DA:112,0
DA:113,0
DA:114,0
DA:118,0
DA:119,0
DA:120,0
DA:123,0
DA:125,0
DA:126,0
DA:127,0
DA:128,0
DA:129,0
DA:130,0
LF:72
LH:0
end_of_record
TN:
SF:/home/nn/redis/FalkorDB/deps/RediSearch/src/aggregate/reducers/minmax.c
FN:24,38,minmaxNewInstance
FN:40,56,minmaxAdd
FN:58,61,minmaxFinalize
FN:63,75,newMinMax
FN:77,79,RDCRMin_New
FN:81,83,RDCRMax_New
FNDA:0,minmaxNewInstance
FNDA:0,minmaxAdd
FNDA:0,minmaxFinalize
FNDA:0,newMinMax
FNDA:0,RDCRMin_New
FNDA:0,RDCRMax_New
FNF:6
FNH:0
DA:24,0
DA:25,0
DA:26,0
DA:27,0
DA:28,0
DA:29,0
DA:30,0
DA:31,0
DA:32,0
DA:33,0
DA:35,0
DA:37,0
DA:40,0
DA:41,0
DA:43,0
DA:44,0
DA:45,0
DA:48,0
DA:49,0
DA:50,0
DA:51,0
DA:54,0
DA:55,0
DA:58,0
DA:59,0
DA:60,0
DA:63,0
DA:64,0
DA:65,0
DA:66,0
DA:67,0
DA:69,0
DA:70,0
DA:71,0
DA:72,0
DA:73,0
DA:74,0
DA:77,0
DA:78,0
DA:81,0
DA:82,0
LF:41
LH:0
end_of_record
TN:
SF:/home/nn/redis/FalkorDB/deps/RediSearch/src/aggregate/reducers/quantile.c
FN:16,19,quantileNewInstance
FN:21,43,quantileAdd
FN:45,50,quantileFinalize
FN:52,54,quantileFreeInstance
FN:56,98,RDCRQuantile_New
FNDA:0,quantileNewInstance
FNDA:0,quantileAdd
FNDA:0,quantileFinalize
FNDA:0,quantileFreeInstance
FNDA:0,RDCRQuantile_New
FNF:5
FNH:0
DA:16,0
DA:17,0
DA:18,0
DA:21,0
DA:23,0
DA:24,0
DA:25,0
DA:26,0
DA:27,0
DA:30,0
DA:31,0
DA:32,0
DA:35,0
DA:36,0
DA:37,0
DA:38,0
DA:42,0
DA:45,0
DA:46,0
DA:47,0
DA:48,0
DA:49,0
DA:52,0
DA:53,0
DA:54,0
DA:56,0
DA:57,0
DA:58,0
DA:60,0
DA:61,0
DA:64,0
DA:65,0
DA:66,0
DA:68,0
DA:69,0
DA:70,0
DA:73,0
DA:74,0
DA:75,0
DA:76,0
DA:78,0
DA:79,0
DA:80,0
DA:84,0
DA:85,0
DA:88,0
DA:89,0
DA:90,0
DA:91,0
DA:92,0
DA:93,0
DA:95,0
DA:96,0
DA:97,0
LF:54
LH:0
end_of_record
TN:
SF:/home/nn/redis/FalkorDB/deps/RediSearch/src/aggregate/reducers/random_sample.c
FN:19,26,sampleNewInstance
FN:28,48,sampleAdd
FN:50,57,sampleFinalize
FN:59,65,sampleFreeInstance
FN:67,94,RDCRRandomSample_New
FNDA:0,sampleNewInstance
FNDA:0,sampleAdd
FNDA:0,sampleFinalize
FNDA:0,sampleFreeInstance
FNDA:0,RDCRRandomSample_New
FNF:5
FNH:0
DA:19,0
DA:20,0
DA:21,0
DA:22,0
DA:23,0
DA:24,0
DA:25,0
DA:28,0
DA:29,0
DA:30,0
DA:31,0
DA:32,0
DA:33,0
DA:36,0
DA:37,0
DA:38,0
DA:39,0
DA:41,0
DA:42,0
DA:43,0
DA:46,0
DA:47,0
DA:50,0
DA:51,0
DA:52,0
DA:53,0
DA:54,0
DA:55,0
DA:56,0
DA:59,0
DA:60,0
DA:61,0
DA:62,0
DA:63,0
DA:65,0
DA:67,0
DA:68,0
DA:69,0
DA:70,0
DA:71,0
DA:75,0
DA:76,0
DA:77,0
DA:78,0
DA:79,0
DA:81,0
DA:82,0
DA:83,0
DA:84,0
DA:86,0
DA:87,0
DA:88,0
DA:89,0
DA:90,0
DA:91,0
DA:92,0
DA:93,0
LF:57
LH:0
end_of_record
TN:
SF:/home/nn/redis/FalkorDB/deps/RediSearch/src/aggregate/reducers/sum.c
FN:22,27,sumNewInstance
FN:29,43,sumAdd
FN:45,57,sumFinalize
FN:59,71,newReducerCommon
FN:73,75,RDCRSum_New
FN:77,79,RDCRAvg_New
FNDA:0,sumNewInstance
FNDA:0,sumAdd
FNDA:0,sumFinalize
FNDA:0,newReducerCommon
FNDA:0,RDCRSum_New
FNDA:0,RDCRAvg_New
FNF:6
FNH:0
DA:22,0
DA:23,0
DA:24,0
DA:25,0
DA:26,0
DA:29,0
DA:30,0
DA:31,0
DA:32,0
DA:33,0
DA:34,0
DA:35,0
DA:37,0
DA:38,0
DA:39,0
DA:42,0
DA:45,0
DA:46,0
DA:47,0
DA:48,0
DA:49,0
DA:50,0
DA:51,0
DA:54,0
DA:56,0
DA:59,0
DA:60,0
DA:61,0
DA:62,0
DA:63,0
DA:65,0
DA:66,0
DA:67,0
DA:68,0
DA:69,0
DA:70,0
DA:73,0
DA:74,0
DA:77,0
DA:78,0
LF:40
LH:0
end_of_record
TN:
SF:/home/nn/redis/FalkorDB/deps/RediSearch/src/aggregate/reducers/to_list.c
FN:14,19,tolistNewInstance
FN:21,49,tolistAdd
FN:51,68,tolistFinalize
FN:70,72,freeValues
FN:74,77,tolistFreeInstance
FN:79,91,RDCRToList_New
FNDA:0,tolistNewInstance
FNDA:0,tolistAdd
FNDA:0,tolistFinalize
FNDA:0,freeValues
FNDA:0,tolistFreeInstance
FNDA:0,RDCRToList_New
FNF:6
FNH:0
DA:14,0
DA:15,0
DA:16,0
DA:17,0
DA:18,0
DA:21,0
DA:22,0
DA:23,0
DA:24,0
DA:25,0
DA:29,0
DA:30,0
DA:31,0
DA:33,0
DA:34,0
DA:37,0
DA:38,0
DA:39,0
DA:40,0
DA:41,0
DA:43,0
DA:44,0
DA:48,0
DA:51,0
DA:52,0
DA:53,0
DA:57,0
DA:58,0
DA:59,0
DA:60,0
DA:61,0
DA:65,0
DA:66,0
DA:67,0
DA:70,0
DA:71,0
DA:72,0
DA:74,0
DA:75,0
DA:76,0
DA:77,0
DA:79,0
DA:80,0
DA:81,0
DA:82,0
DA:83,0
DA:85,0
DA:86,0
DA:87,0
DA:88,0
DA:89,0
DA:90,0
LF:52
LH:0
end_of_record
TN:
SF:/home/nn/redis/FalkorDB/deps/RediSearch/src/alias.c
FN:101,103,IndexAlias_Add
FN:105,107,IndexAlias_Del
FN:109,111,IndexAlias_Get
FN:113,127,IndexSpec_ClearAliases
FN:14,18,AliasTable_New
FN:20,22,IndexAlias_InitGlobal
FN:24,31,IndexAlias_DestroyGlobal
FN:33,52,AliasTable_Add
FN:54,90,AliasTable_Del
FN:92,99,AliasTable_Get
FNDA:0,IndexAlias_Add
FNDA:0,IndexAlias_Del
FNDA:0,IndexAlias_Get
FNDA:0,IndexSpec_ClearAliases
FNDA:1,AliasTable_New
FNDA:1,IndexAlias_InitGlobal
FNDA:0,IndexAlias_DestroyGlobal
FNDA:0,AliasTable_Add
FNDA:0,AliasTable_Del
FNDA:0,AliasTable_Get
FNF:10
FNH:2
DA:14,1
DA:15,1
DA:16,1
DA:17,1
DA:20,1
DA:21,1
DA:22,1
DA:24,0
DA:25,0
DA:26,0
DA:28,0
DA:29,0
DA:30,0
DA:33,0
DA:36,0
DA:37,0
DA:38,0
DA:39,0
DA:40,0
DA:42,0
DA:43,0
DA:44,0
DA:45,0
DA:46,0
DA:48,0
DA:49,0
DA:51,0
DA:54,0
DA:56,0
DA:58,0
DA:59,0
DA:60,0
DA:63,0
DA:64,0
DA:66,0
DA:67,0
DA:68,0
DA:71,0
DA:72,0
DA:73,0
DA:76,0
DA:77,0
DA:78,0
DA:80,0
DA:81,0
DA:82,0
DA:83,0
DA:86,0
DA:87,0
DA:89,0
DA:92,0
DA:93,0
DA:94,0
DA:95,0
DA:97,0
DA:101,0
DA:102,0
DA:105,0
DA:106,0
DA:109,0
DA:110,0
DA:113,0
DA:114,0
DA:115,0
DA:117,0
DA:118,0
DA:119,0
DA:120,0
DA:121,0
DA:122,0
DA:124,0
DA:126,0
LF:72
LH:7
end_of_record
TN:
SF:/home/nn/redis/FalkorDB/deps/RediSearch/src/buffer.c
FN:102,108,Buffer_Seek
FN:11,17,Buffer_Grow
FN:22,36,Buffer_Truncate
FN:38,41,NewBufferWriter
FN:43,46,NewBufferReader
FN:49,53,Buffer_Init
FN:55,61,Buffer_Wrap
FN:63,65,Buffer_Free
FN:71,78,Buffer_ReadByte
FN:80,88,BufferWriter_Seek
FN:90,97,Buffer_WriteAt
FNDA:0,Buffer_Seek
FNDA:0,Buffer_Grow
FNDA:0,Buffer_Truncate
FNDA:0,NewBufferWriter
FNDA:0,NewBufferReader
FNDA:0,Buffer_Init
FNDA:0,Buffer_Wrap
FNDA:0,Buffer_Free
FNDA:0,Buffer_ReadByte
FNDA:0,BufferWriter_Seek
FNDA:0,Buffer_WriteAt
FNF:11
FNH:0
DA:11,0
DA:13,0
DA:14,0
DA:16,0
DA:17,0
DA:22,0
DA:23,0
DA:24,0
DA:28,0
DA:29,0
DA:30,0
DA:32,0
DA:34,0
DA:35,0
DA:38,0
DA:39,0
DA:40,0
DA:43,0
DA:44,0
DA:45,0
DA:49,0
DA:50,0
DA:51,0
DA:52,0
DA:53,0
DA:55,0
DA:56,0
DA:57,0
DA:58,0
DA:59,0
DA:60,0
DA:63,0
DA:64,0
DA:65,0
DA:71,0
DA:75,0
DA:77,0
DA:80,0
DA:81,0
DA:82,0
DA:84,0
DA:85,0
DA:87,0
DA:90,0
DA:91,0
DA:92,0
DA:94,0
DA:95,0
DA:96,0
DA:102,0
DA:103,0
DA:105,0
DA:107,0
LF:53
LH:0
end_of_record
TN:
SF:/home/nn/redis/FalkorDB/deps/RediSearch/src/buffer.h
FN:116,122,Buffer_Reserve
FN:124,134,Buffer_Write
FN:139,142,Buffer_WriteU32
FN:147,149,Buffer_WriteU8
FN:150,154,Buffer_ReadU32
FN:160,164,Buffer_ReadU8
FN:171,173,BufferWriter_Offset
FN:175,177,BufferWriter_PtrAt
FN:59,71,Buffer_Read
FN:84,86,Buffer_Offset
FNDA:0,Buffer_Reserve
FNDA:0,Buffer_Write
FNDA:0,Buffer_WriteU32
FNDA:0,Buffer_WriteU8
FNDA:0,Buffer_ReadU32
FNDA:0,Buffer_ReadU8
FNDA:0,BufferWriter_Offset
FNDA:0,BufferWriter_PtrAt
FNDA:0,Buffer_Read
FNDA:0,Buffer_Offset
FNF:10
FNH:0
DA:59,0
DA:66,0
DA:67,0
DA:70,0
DA:84,0
DA:85,0
DA:116,0
DA:117,0
DA:118,0
DA:120,0
DA:121,0
DA:124,0
DA:126,0
DA:127,0
DA:128,0
DA:130,0
DA:131,0
DA:132,0
DA:133,0
DA:139,0
DA:140,0
DA:141,0
DA:147,0
DA:148,0
DA:150,0
DA:152,0
DA:153,0
DA:160,0
DA:162,0
DA:163,0
DA:171,0
DA:172,0
DA:175,0
DA:176,0
LF:34
LH:0
end_of_record
TN:
SF:/home/nn/redis/FalkorDB/deps/RediSearch/src/byte_offsets.c
FN:10,13,NewByteOffsets
FN:117,124,RSByteOffsetIterator_Next
FN:15,19,RSByteOffsets_Free
FN:21,23,RSByteOffsets_ReserveFields
FN:25,31,RSByteOffsets_AddField
FN:33,37,ByteOffsetWriter_Move
FN:39,52,RSByteOffsets_Serialize
FN:54,79,LoadByteOffsets
FN:81,115,RSByteOffset_Iterate
FNDA:0,NewByteOffsets
FNDA:0,RSByteOffsetIterator_Next
FNDA:0,RSByteOffsets_Free
FNDA:0,RSByteOffsets_ReserveFields
FNDA:0,RSByteOffsets_AddField
FNDA:0,ByteOffsetWriter_Move
FNDA:0,RSByteOffsets_Serialize
FNDA:0,LoadByteOffsets
FNDA:0,RSByteOffset_Iterate
FNF:9
FNH:0
DA:10,0
DA:11,0
DA:12,0
DA:15,0
DA:16,0
DA:17,0
DA:18,0
DA:19,0
DA:21,0
DA:22,0
DA:23,0
DA:25,0
DA:27,0
DA:28,0
DA:29,0
DA:30,0
DA:33,0
DA:34,0
DA:35,0
DA:36,0
DA:37,0
DA:39,0
DA:40,0
DA:42,0
DA:44,0
DA:45,0
DA:46,0
DA:47,0
DA:50,0
DA:51,0
DA:52,0
DA:54,0
DA:55,0
DA:57,0
DA:58,0
DA:59,0
DA:61,0
DA:62,0
DA:63,0
DA:64,0
DA:65,0
DA:66,0
DA:69,0
DA:70,0
DA:71,0
DA:72,0
DA:73,0
DA:75,0
DA:78,0
DA:81,0
DA:83,0
DA:84,0
DA:85,0
DA:86,0
DA:87,0
DA:90,0
DA:91,0
DA:97,0
DA:98,0
DA:99,0
DA:100,0
DA:101,0
DA:102,0
DA:104,0
DA:106,0
DA:108,0
DA:109,0
DA:113,0
DA:114,0
DA:117,0
DA:118,0
DA:119,0
DA:122,0
DA:123,0
LF:74
LH:0
end_of_record
TN:
SF:/home/nn/redis/FalkorDB/deps/RediSearch/src/byte_offsets.h
FN:56,58,ByteOffsetWriter_Init
FN:60,62,ByteOffsetWriter_Cleanup
FNDA:0,ByteOffsetWriter_Init
FNDA:0,ByteOffsetWriter_Cleanup
FNF:2
FNH:0
DA:56,0
DA:57,0
DA:58,0
DA:60,0
DA:61,0
DA:62,0
LF:6
LH:0
end_of_record
TN:
SF:/home/nn/redis/FalkorDB/deps/RediSearch/src/cndict_loader.c
FN:29,78,readRecord
FN:81,115,ChineseDictLoad
FNDA:0,readRecord
FNDA:0,ChineseDictLoad
FNF:2
FNH:0
DA:29,0
DA:30,0
DA:33,0
DA:34,0
DA:35,0
DA:38,0
DA:41,0
DA:42,0
DA:44,0
DA:45,0
DA:47,0
DA:48,0
DA:49,0
DA:52,0
DA:54,0
DA:55,0
DA:58,0
DA:59,0
DA:61,0
DA:62,0
DA:64,0
DA:69,0
DA:70,0
DA:71,0
DA:72,0
DA:76,0
DA:77,0
DA:81,0
DA:84,0
DA:85,0
DA:86,0
DA:87,0
DA:90,0
DA:91,0
DA:92,0
DA:94,0
DA:95,0
DA:97,0
DA:98,0
DA:103,0
DA:104,0
DA:105,0
DA:106,0
DA:108,0
DA:109,0
DA:113,0
DA:114,0
LF:47
LH:0
end_of_record
TN:
SF:/home/nn/redis/FalkorDB/deps/RediSearch/src/concurrent_ctx.c
FN:102,121,ConcurrentSearch_HandleRedisCommandEx
FN:123,126,ConcurrentSearch_HandleRedisCommand
FN:128,135,ConcurrentSearchCtx_ReopenKeys
FN:138,159,ConcurrentSearch_CheckTimer
FN:161,164,ConcurrentSearchCtx_ResetClock
FN:167,173,ConcurrentSearchCtx_Init
FN:175,181,ConcurrentSearchCtx_InitSingle
FN:18,25,ConcurrentSearch_CreatePool
FN:183,196,ConcurrentSearchCtx_Free
FN:211,218,ConcurrentSearch_AddKey
FN:220,225,ConcurrentSearchCtx_Lock
FN:227,230,ConcurrentSearchCtx_Unlock
FN:28,43,ConcurrentSearch_ThreadPoolStart
FN:46,55,ConcurrentSearch_ThreadPoolDestroy
FN:67,70,ConcurrentSearch_ThreadPoolRun
FN:72,95,threadHandleCommand
FN:97,99,ConcurrentCmdCtx_KeepRedisCtx
FNDA:0,ConcurrentSearch_HandleRedisCommandEx
FNDA:0,ConcurrentSearch_HandleRedisCommand
FNDA:0,ConcurrentSearchCtx_ReopenKeys
FNDA:0,ConcurrentSearch_CheckTimer
FNDA:0,ConcurrentSearchCtx_ResetClock
FNDA:0,ConcurrentSearchCtx_Init
FNDA:0,ConcurrentSearchCtx_InitSingle
FNDA:0,ConcurrentSearch_CreatePool
FNDA:0,ConcurrentSearchCtx_Free
FNDA:0,ConcurrentSearch_AddKey
FNDA:0,ConcurrentSearchCtx_Lock
FNDA:0,ConcurrentSearchCtx_Unlock
FNDA:0,ConcurrentSearch_ThreadPoolStart
FNDA:0,ConcurrentSearch_ThreadPoolDestroy
FNDA:0,ConcurrentSearch_ThreadPoolRun
FNDA:0,threadHandleCommand
FNDA:0,ConcurrentCmdCtx_KeepRedisCtx
FNF:17
FNH:0
DA:18,0
DA:19,0
DA:20,0
DA:22,0
DA:23,0
DA:24,0
DA:28,0
DA:30,0
DA:31,0
DA:32,0
DA:34,0
DA:35,0
DA:38,0
DA:39,0
DA:41,0
DA:43,0
DA:46,0
DA:47,0
DA:48,0
DA:50,0
DA:51,0
DA:53,0
DA:54,0
DA:67,0
DA:68,0
DA:69,0
DA:70,0
DA:72,0
DA:73,0
DA:75,0
DA:76,0
DA:79,0
DA:82,0
DA:83,0
DA:86,0
DA:87,0
DA:90,0
DA:92,0
DA:93,0
DA:94,0
DA:95,0
DA:97,0
DA:98,0
DA:99,0
DA:102,0
DA:104,0
DA:105,0
DA:106,0
DA:107,0
DA:108,0
DA:109,0
DA:110,0
DA:112,0
DA:113,0
DA:114,0
DA:117,0
DA:119,0
DA:120,0
DA:123,0
DA:125,0
DA:128,0
DA:129,0
DA:130,0
DA:131,0
DA:133,0
DA:135,0
DA:138,0
DA:140,0
DA:142,0
DA:143,0
DA:145,0
DA:146,0
DA:152,0
DA:155,0
DA:156,0
DA:158,0
DA:161,0
DA:162,0
DA:163,0
DA:164,0
DA:167,0
DA:168,0
DA:169,0
DA:170,0
DA:171,0
DA:172,0
DA:173,0
DA:175,0
DA:176,0
DA:177,0
DA:178,0
DA:179,0
DA:180,0
DA:181,0
DA:183,0
DA:185,0
DA:186,0
DA:189,0
DA:190,0
DA:194,0
DA:195,0
DA:196,0
DA:211,0
DA:213,0
DA:214,0
DA:215,0
DA:218,0
DA:220,0
DA:221,0
DA:222,0
DA:223,0
DA:224,0
DA:225,0
DA:227,0
DA:228,0
DA:229,0
DA:230,0
LF:117
LH:0
end_of_record
TN:
SF:/home/nn/redis/FalkorDB/deps/RediSearch/src/concurrent_ctx.h
FN:108,111,ConcurrentSearch_SetKey
FNDA:0,ConcurrentSearch_SetKey
FNF:1
FNH:0
DA:108,0
DA:110,0
DA:111,0
LF:3
LH:0
end_of_record
TN:
SF:/home/nn/redis/FalkorDB/deps/RediSearch/src/config.c
FN:101,104,setNoMemPools
FN:106,106,getNoMemPools
FN:109,112,setMinPrefix
FN:114,117,getMinPrefix
FN:119,122,setForkGCSleep
FN:124,127,getForkGCSleep
FN:130,140,setMaxDocTableSize
FN:142,145,getMaxDocTableSize
FN:148,157,setMaxSearchResults
FN:159,165,getMaxSearchResults
FN:168,177,setMaxAggregateResults
FN:179,185,getMaxAggregateResults
FN:188,191,setMaxExpansions
FN:193,196,getMaxExpansions
FN:199,202,setTimeout
FN:204,207,getTimeout
FN:210,215,setIndexThreads
FN:217,220,getIndexthreads
FN:223,228,setSearchThreads
FN:230,233,getSearchThreads
FN:236,239,setFrisoINI
FN:240,242,getFrisoINI
FN:245,255,setOnTimeout
FN:257,259,getOnTimeout
FN:262,265,setGcScanSize
FN:267,270,getGcScanSize
FN:273,276,setForkGcInterval
FN:278,281,setForkGcCleanThreshold
FN:283,286,setForkGcRetryInterval
FN:288,291,setMaxResultsToUnsortedMode
FN:293,296,setMinUnionIteratorHeap
FN:298,301,setCursorMaxIdle
FN:303,306,getForkGcCleanThreshold
FN:308,311,getForkGcInterval
FN:313,316,getForkGcRetryInterval
FN:319,322,setForkGCCleanNumericEmptyNodes
FN:324,324,getForkGCCleanNumericEmptyNodes
FN:327,327,set_ForkGCCleanNumericEmptyNodes
FN:328,328,get_ForkGCCleanNumericEmptyNodes
FN:330,333,getMaxResultsToUnsortedMode
FN:335,338,getMinUnionIteratorHeap
FN:340,343,getCursorMaxIdle
FN:345,348,setMinPhoneticTermLen
FN:350,353,getMinPhoneticTermLen
FN:356,356,setNumericCompress
FN:357,357,getNumericCompress
FN:360,360,setFreeResourcesThread
FN:361,361,getFreeResourcesThread
FN:364,364,setPrintProfileClock
FN:365,365,getPrintProfileClock
FN:368,368,setRawDocIDEncoding
FN:369,369,getRawDocIDEncoding
FN:371,382,setNumericTreeMaxDepthRange
FN:384,387,getNumericTreeMaxDepthRange
FN:389,398,setDefaultDialectVersion
FN:400,403,getDefaultDialectVersion
FN:405,410,setVSSMaxResize
FN:412,415,getVSSMaxResize
